0x00091360: aaa  ; call ebx ; 
0x00002f83: aaa  ; retn 0x793B ; 
0x00158390: aad 0x05 ; call dword [ebp-0x1A000FFA] ; 
0x0000251d: aad 0x80 ; retn 0x8A4C ; 
0x000a67fa: aad 0x83 ; ret  ; 
0x000df057: aad 0x96 ; jmp dword [esi-0x70] ; 
0x0011ebd7: aad 0xE6 ; call dword [eax+0x0026748D] ; 
0x0016b6d5: aad 0xEA ; call dword [eax+0x00000000] ; 
0x000af186: aad 0xEF ; call dword [eax-0x18] ; 
0x001662d1: aad 0xEF ; jmp dword [eax] ; 
0x001662c9: aad 0xEF ; jmp eax ; 
0x0010fcb3: aad 0xF1 ; jmp dword [esi-0x70] ; 
0x00167340: aad 0xF2 ; call dword [ebp+eax-0x2A5BFFFE] ; 
0x00167339: aad 0xF2 ; jmp dword [ebp+eax+0x02] ; 
0x0018fdc1: aad 0xF3 ; jmp dword [edx+0x01] ; 
0x00196ac9: aad 0xF4 ; jmp dword [ebx] ; 
0x001a857d: aad 0xF6 ; call dword [ecx] ; 
0x001a852d: aad 0xF6 ; jmp dword [eax+0x00] ; 
0x0003b394: aad 0xFA ; call dword [eax+0x68] ; 
0x0003b3a6: aad 0xFA ; call dword [eax-0x18] ; 
0x00032148: aad 0xFA ; call dword [eax-0x73] ; 
0x0016a2b1: aad 0xFA ; call dword [ecx+ebx-0x297BFFFC] ; 
0x000581d8: aad 0xFF ; call dword [eax+0x0026748D] ; 
0x00189e3c: aam 0x20 ; jmp dword [edi+0x00] ; 
0x0009dd40: aam 0x29 ; retn 0x3C8D ; 
0x0005a63b: aam 0x39 ; ret  ; 
0x001666b0: aam 0x40 ; jmp dword [esp+ecx*2+0x41D40001] ; 
0x001666b8: aam 0x41 ; call dword [eax] ; 
0x000a065b: aam 0x5B ; ret  ; 
0x00003264: aam 0x5C ; retn 0x52C0 ; 
0x0007cbb0: aam 0x83 ; ret  ; 
0x00166a48: aam 0xC7 ; jmp dword [esi+esi*2-0x381BFFFF] ; 
0x00167648: aam 0xD4 ; jmp dword [eax] ; 
0x0011f138: aam 0xE8 ; retn 0x0007 ; 
0x00045b96: aam 0xE9 ; ret  ; 
0x0016b5fd: aam 0xEA ; jmp dword [0x00000000] ; 
0x0016b5b1: aam 0xEA ; jmp dword [ecx] ; 
0x0016fd55: aam 0xEB ; call dword [eax+eax] ; 
0x0016fd35: aam 0xEB ; call dword [edx] ; 
0x00167320: aam 0xF2 ; call esp ; 
0x00167319: aam 0xF2 ; jmp dword [esp+eax-0x2B9BFFFE] ; 
0x00167649: aam 0xF3 ; jmp dword [eax] ; 
0x001a8379: aam 0xF6 ; jmp dword [ebx] ; 
0x00032c87: aam 0xFA ; call dword [eax-0x18] ; 
0x00183ff1: aam 0xFB ; call dword [ebx] ; 
0x00164b6d: aam 0xFC ; call dword [eax-0x0F00032B] ; 
0x00166691: aas  ; jmp eax ; 
0x0002349f: adc ah, bh ; call dword [eax-0x73] ; 
0x0007671d: adc al, 0x01 ; ret  ; 
0x000a66e3: adc al, 0x01 ; retn 0x048D ; 
0x0002d6a9: adc al, 0x01 ; retn 0xD189 ; 
0x000a111d: adc al, 0x01 ; retn 0xF889 ; 
0x000da058: adc al, 0x09 ; retn 0x4B74 ; 
0x00166458: adc al, 0x0B ; call esp ; 
0x00108f95: adc al, 0x24 ; call dword [eax+0x10] ; 
0x0018a06c: adc al, 0x24 ; jmp dword [edi] ; 
0x0011fb0e: adc al, 0x24 ; ret  ; 
0x0004781c: adc al, 0x29 ; ret  ; 
0x000eedeb: adc al, 0x29 ; retn 0xD789 ; 
0x000a67f4: adc al, 0x29 ; retn 0xF329 ; 
0x00047f5b: adc al, 0x39 ; ret  ; 
0x000685d5: adc al, 0x39 ; retn 0x850F ; 
0x0016b26f: adc al, 0x41 ; ret  ; 
0x0016b68a: adc al, 0x43 ; ret  ; 
0x0017476d: adc al, 0x44 ; ret  ; 
0x001666c8: adc al, 0x45 ; jmp dword [eax] ; 
0x001700e6: adc al, 0x45 ; ret  ; 
0x0016b897: adc al, 0x46 ; ret  ; 
0x00195e40: adc al, 0x47 ; ret  ; 
0x001883a7: adc al, 0x48 ; ret  ; 
0x001848b1: adc al, 0x4A ; ret  ; 
0x0018595f: adc al, 0x4B ; ret  ; 
0x001089b6: adc al, 0x50 ; call dword [edx] ; 
0x00062d2f: adc al, 0x50 ; call dword [esi+0x00000098] ; 
0x00114be2: adc al, 0x50 ; call dword [esp+0x40] ; 
0x00071506: adc al, 0x51 ; call eax ; 
0x000adb6a: adc al, 0x52 ; call eax ; 
0x001120b5: adc al, 0x53 ; call dword [eax+0x10] ; 
0x001092e8: adc al, 0x53 ; call dword [eax+0x14] ; 
0x001130c9: adc al, 0x53 ; call dword [eax] ; 
0x001093c3: adc al, 0x53 ; call dword [edx+0x10] ; 
0x00108509: adc al, 0x57 ; call dword [eax+0x04] ; 
0x00070ff6: adc al, 0x57 ; call eax ; 
0x000ac39c: adc al, 0x5B ; ret  ; 
0x000d6a29: adc al, 0x65 ; call dword [0x00000010] ; 
0x00166970: adc al, 0x81 ; jmp dword [eax] ; 
0x0009c513: adc al, 0x83 ; ret  ; 
0x000f0143: adc al, 0x83 ; retn 0x3901 ; 
0x0009b44c: adc al, 0x83 ; retn 0x83FF ; 
0x00090e43: adc al, 0x83 ; retn 0x8B04 ; 
0x0001e1a7: adc al, 0x89 ; ret  ; 
0x000bd5d7: adc al, 0x89 ; retn 0x448D ; 
0x0010431d: adc al, 0x89 ; retn 0x848B ; 
0x0011e9b4: adc al, 0x89 ; retn 0x895B ; 
0x0010371f: adc al, 0x89 ; retn 0xDA29 ; 
0x00096893: adc al, 0x89 ; retn 0xF889 ; 
0x000dd618: adc al, 0xB1 ; jmp dword [esi-0x70] ; 
0x00167528: adc al, 0xB7 ; jmp dword [eax+0x2E] ; 
0x0018f79c: adc al, 0xC5 ; jmp dword [eax] ; 
0x00002bd7: adc al, 0xE7 ; ret  ; 
0x000ccef7: adc al, 0xE8 ; ret  ; 
0x0002f0f3: adc al, 0xEB ; ret  ; 
0x0017ae99: adc al, 0xEF ; call dword [eax+0x00] ; 
0x0017aeb5: adc al, 0xEF ; call dword [ecx+0x00] ; 
0x0017ae49: adc al, 0xEF ; call dword [ecx] ; 
0x00114480: adc al, 0xF1 ; call dword [eax-0x73] ; 
0x0019fecd: adc al, 0xF6 ; call dword [ebp+0x00000000] ; 
0x0019ff6d: adc al, 0xF6 ; call dword [edx] ; 
0x0007331c: adc al, 0xF6 ; ret  ; 
0x001a9e75: adc al, 0xF7 ; call dword [ebx+0x00] ; 
0x000ead6a: adc al, 0xF7 ; retn 0xFF80 ; 
0x00143462: adc al, 0xF9 ; call dword [eax-0x01] ; 
0x0015b18c: adc al, 0xFFFFFFF6 ; jmp dword [eax-0x30] ; 
0x00048ca7: adc al, byte [ebp-0x76E38A2E] ; retn 0x542B ; 
0x000f493a: adc al, byte [ebx+esi*8] ; jmp dword [esi-0x70] ; 
0x000a21d8: adc al, ch ; retn 0xFFFA ; 
0x000900b5: adc al, dh ; ret  ; 
0x001858c0: adc bh, 0xFFFFFFF0 ; jmp dword [0x00000006] ; 
0x000e4ace: adc bh, bl ; call dword [eax-0x01] ; 
0x000e4991: adc bh, bl ; call dword [edx+0x50] ; 
0x00136ff5: adc bh, bl ; jmp dword [esi+0x0F] ; 
0x0017ac0d: adc bh, ch ; jmp dword [ebx] ; 
0x00169589: adc bh, cl ; jmp dword [eax+edi*2+0x03] ; 
0x000fd883: adc bh, dh ; retn 0x8080 ; 
0x000eaf66: adc bh, dh ; retn 0xFF80 ; 
0x000343cf: adc bl, 0xFFFFFFFA ; call dword [eax-0x18] ; 
0x0016a699: adc bl, bh ; jmp dword [eax+edi+0x11E40004] ; 
0x0006011a: adc bl, ch ; ret  ; 
0x00156f41: adc bl, dh ; call dword [eax+0x10] ; 
0x00156f49: adc bl, dh ; call dword [eax-0x4F000CF0] ; 
0x00156f58: adc bl, dh ; call dword [eax] ; 
0x00156f51: adc bl, dh ; call eax ; 
0x00156f39: adc bl, dh ; jmp dword [eax] ; 
0x000e15f5: adc bl, dh ; ret  ; 
0x00022ba4: adc byte [0x89127420], al ; retn 0x20BD ; 
0x000e79a6: adc byte [eax+0x00000015], bh ; call dword [0x00000010] ; 
0x000e7fdc: adc byte [eax+0x00000066], bh ; call dword [0x00000010] ; 
0x000e7896: adc byte [eax+0x00000080], bh ; call dword [0x00000010] ; 
0x000df960: adc byte [eax+0x0000008E], bh ; call dword [0x00000010] ; 
0x000e79e6: adc byte [eax+0x000000A3], bh ; call dword [0x00000010] ; 
0x000e7ac6: adc byte [eax+0x000000A7], bh ; call dword [0x00000010] ; 
0x000e7a86: adc byte [eax+0x000000AC], bh ; call dword [0x00000010] ; 
0x00119cc6: adc byte [eax+0x000000BC], bh ; call dword [0x00000010] ; 
0x00119d46: adc byte [eax+0x000000BD], bh ; call dword [0x00000010] ; 
0x000e5be6: adc byte [eax+0x000000E2], bh ; call dword [0x00000010] ; 
0x000e5b76: adc byte [eax+0x000000E3], bh ; call dword [0x00000010] ; 
0x000e5a46: adc byte [eax+0x000000E4], bh ; call dword [0x00000010] ; 
0x00124286: adc byte [eax+0x000000FA], bh ; call dword [0x00000010] ; 
0x000e782d: adc byte [eax+0x00000100], bh ; call dword [0x00000010] ; 
0x000e2e66: adc byte [eax+0x00000101], bh ; call dword [0x00000010] ; 
0x000d6e56: adc byte [eax+0x0000012A], bh ; call dword [0x00000010] ; 
0x000d7546: adc byte [eax+0x0000012F], bh ; call dword [0x00000010] ; 
0x000e7c1d: adc byte [eax+0x0000013B], bh ; call dword [0x00000010] ; 
0x000e7cdd: adc byte [eax+0x0000013C], bh ; call dword [0x00000010] ; 
0x000e7de6: adc byte [eax+0x00000155], bh ; call dword [0x00000010] ; 
0x0019b183: adc byte [eax+0x0A], bh ; ret  ; 
0x0019c336: adc byte [eax+0x0A], ch ; ret  ; 
0x0017de73: adc byte [eax+0x0A], dl ; ret  ; 
0x000446f8: adc byte [eax+0x56], dl ; call dword [ecx+0x1C] ; 
0x000ad906: adc byte [eax-0x11], 0xFFFFFFFA ; call dword [eax-0x18] ; 
0x00073a47: adc byte [eax-0x18], dl ; retn 0x0035 ; 
0x000900e5: adc byte [eax], ah ; ret  ; 
0x0000921e: adc byte [eax], al ; retn 0x0001 ; 
0x0012ea94: adc byte [eax], bh ; retn 0x840F ; 
0x00157118: adc byte [eax], ch ; jmp dword [eax] ; 
0x000900d5: adc byte [eax], dl ; ret  ; 
0x00173f1c: adc byte [ebp+0x0A], al ; ret  ; 
0x00175a31: adc byte [ebp+0x0A], bl ; ret  ; 
0x0009e6da: adc byte [ebp+0x29D975DB], al ; ret  ; 
0x0009e72e: adc byte [ebp+0x390974DB], al ; ret  ; 
0x0009e801: adc byte [ebp+0x390B74DB], al ; ret  ; 
0x000daf53: adc byte [ebp+0x393374C0], al ; ret  ; 
0x00029c34: adc byte [ebp+0x39FE0144], cl ; ret  ; 
0x0005f5ef: adc byte [ebp+0x53], dl ; call dword [eax+0x1C] ; 
0x000d5452: adc byte [ebp+0x6A1978C0], al ; call dword [edi-0x01] ; 
0x0002888c: adc byte [ebp-0x000BBF80], cl ; call dword [eax-0x75] ; 
0x00117f91: adc byte [ebp-0x04FB377D], cl ; call dword [eax-0x73] ; 
0x00163e94: adc byte [ebp-0x04], al ; jmp dword [eax+0x46] ; 
0x00164134: adc byte [ebp-0x04], ch ; jmp dword [eax+0x6E] ; 
0x000a6efb: adc byte [ebp-0x0510C37A], cl ; call dword [eax-0x73] ; 
0x00093ef6: adc byte [ebp-0x052AEF7D], cl ; call dword [eax+0x68] ; 
0x00093f2b: adc byte [ebp-0x052AEF7D], cl ; call dword [eax-0x73] ; 
0x00111a4a: adc byte [ebp-0x0535737D], cl ; call dword [eax-0x73] ; 
0x00117be7: adc byte [ebp-0x0538E779], cl ; call dword [eax-0x18] ; 
0x000d6feb: adc byte [ebp-0x054C4C7D], cl ; call dword [esi+0x55] ; 
0x000da842: adc byte [ebp-0x054C7E80], cl ; call dword [eax-0x77] ; 
0x0007447b: adc byte [ebp-0x0554297D], cl ; call dword [esi+0x6A] ; 
0x000ad8af: adc byte [ebp-0x05688D7A], cl ; call dword [eax-0x73] ; 
0x000f802c: adc byte [ebp-0x0586D780], cl ; call dword [eax-0x18] ; 
0x0014345e: adc byte [ebp-0x06EBEF7D], cl ; call dword [eax-0x01] ; 
0x001a38b0: adc byte [ebp-0x0A], dh ; jmp dword [eax+eax+0x00] ; 
0x000df783: adc byte [ebp-0x0CFD8B40], al ; ret  ; 
0x000911c9: adc byte [ebp-0x0C], dh ; rep ret  ; 
0x000728ec: adc byte [ebp-0x7600C7A4], cl ; retn 0x2C8D ; 
0x0001e36b: adc byte [ebp-0x760352B4], cl ; retn 0xEAD3 ; 
0x001189f8: adc byte [ebp-0x763E7640], al ; ret  ; 
0x000e8f7a: adc byte [ebp-0x76E78B40], al ; ret  ; 
0x00104319: adc byte [ebp-0x76EB8B40], al ; retn 0x848B ; 
0x000c84f7: adc byte [ebp-0x76F88B40], al ; ret  ; 
0x0013abd7: adc byte [ebp-0x79F00F93], cl ; call dword [eax] ; 
0x00135ad3: adc byte [ebp-0x79F00F93], cl ; ret  ; 
0x0011e17a: adc byte [ebp-0x7C2E8740], al ; ret  ; 
0x001090ab: adc byte [ebp-0x7C348B40], al ; ret  ; 
0x00109b87: adc byte [ebp-0x7C408B40], al ; ret  ; 
0x00109cd8: adc byte [ebp-0x7C5B8B40], al ; ret  ; 
0x000f474d: adc byte [ebp-0x7CE4E884], cl ; ret  ; 
0x00196239: adc byte [ebx+0x0A400204], al ; ret  ; 
0x0018c889: adc byte [ebx+0x0A410204], al ; ret  ; 
0x001730a9: adc byte [ebx+0x0A430204], al ; ret  ; 
0x001841f9: adc byte [ebx+0x0A440204], al ; ret  ; 
0x00173b25: adc byte [ebx+0x0A450204], al ; ret  ; 
0x0017fb85: adc byte [ebx+0x0A480204], al ; ret  ; 
0x0016fa15: adc byte [ebx+0x0A490204], al ; ret  ; 
0x0019bdf9: adc byte [ebx+0x0A4B0204], al ; ret  ; 
0x00194809: adc byte [ebx+0x0A4E0204], al ; ret  ; 
0x00173255: adc byte [ebx+0x0A4F0204], al ; ret  ; 
0x00187759: adc byte [ebx+0x0A520204], al ; ret  ; 
0x0018c96d: adc byte [ebx+0x0A540204], al ; ret  ; 
0x00183fa5: adc byte [ebx+0x0A5B0204], al ; ret  ; 
0x00199365: adc byte [ebx+0x0A5C0204], al ; ret  ; 
0x0018498d: adc byte [ebx+0x0A5E0204], al ; ret  ; 
0x0017a285: adc byte [ebx+0x0A620204], al ; ret  ; 
0x00184b25: adc byte [ebx+0x0A670204], al ; ret  ; 
0x00199181: adc byte [ebx+0x0A730204], al ; ret  ; 
0x00178165: adc byte [ebx+0x0A750204], al ; ret  ; 
0x00198f29: adc byte [ebx+0x0A780204], al ; ret  ; 
0x00184bb1: adc byte [ebx+0x0A7C0204], al ; ret  ; 
0x00184de9: adc byte [ebx+0x0A880204], al ; ret  ; 
0x0017c461: adc byte [ebx+0x0A8E0204], al ; ret  ; 
0x0017c4a5: adc byte [ebx+0x0A8F0204], al ; ret  ; 
0x0017c179: adc byte [ebx+0x0A920204], al ; ret  ; 
0x00184b65: adc byte [ebx+0x0A970204], al ; ret  ; 
0x0019c955: adc byte [ebx+0x0AA00204], al ; ret  ; 
0x0017c809: adc byte [ebx+0x0AC50204], al ; ret  ; 
0x001966a5: adc byte [ebx+0x0ADF0204], al ; ret  ; 
0x00179f9b: adc byte [ebx+0x0A], ah ; ret  ; 
0x00175d16: adc byte [ebx+0x0A], al ; ret  ; 
0x0019a65e: adc byte [ebx+0x0A], ch ; ret  ; 
0x0016e35b: adc byte [ebx+0x0A], cl ; ret  ; 
0x00197d3d: adc byte [ebx+0x0C0E5D04], al ; ret  ; 
0x00192569: adc byte [ebx+0x0C0E6104], al ; ret  ; 
0x00165534: adc byte [ebx+0x1F940000], 0xFFFFFFEC ; call eax ; 
0x00044700: adc byte [ebx+0x39082454], cl ; retn 0xFFB8 ; 
0x000a305f: adc byte [ebx+0x390C2454], cl ; retn 0x9275 ; 
0x0010cc33: adc byte [ebx+0x390C2454], cl ; retn 0x960F ; 
0x0004eefb: adc byte [ebx+0x390C2454], cl ; retn 0xFFB8 ; 
0x0004741d: adc byte [ebx+0x390C245C], cl ; ret  ; 
0x00047f57: adc byte [ebx+0x39142454], cl ; ret  ; 
0x00114d23: adc byte [ebx+0x53520443], cl ; call dword [eax+0x04] ; 
0x00115453: adc byte [ebx+0x53520443], cl ; call dword [eax+0x24] ; 
0x0008bab5: adc byte [ebx+0x5E082444], cl ; ret  ; 
0x00029a02: adc byte [ebx+0x5E5B04C4], al ; ret  ; 
0x0005e3c3: adc byte [ebx+0x5E5B14C4], al ; ret  ; 
0x001076fc: adc byte [ebx+0x5E5B14C4], al ; retn 0x0004 ; 
0x000fcc80: adc byte [ebx+0x5E5B24C4], al ; ret  ; 
0x00108e7d: adc byte [ebx+0x5E5B34C4], al ; ret  ; 
0x000d52ff: adc byte [ebx+0x5E5B64C4], al ; ret  ; 
0x0010ab2c: adc byte [ebx+0x5E], bl ; ret  ; 
0x000d5189: adc byte [ebx+0x650C245C], cl ; call dword [0x00000010] ; 
0x000e8d06: adc byte [ebx+0x6514247C], cl ; call dword [0x00000010] ; 
0x000e8d46: adc byte [ebx+0x65182474], cl ; call dword [0x00000010] ; 
0x00124456: adc byte [ebx+0x6518247C], cl ; call dword [0x00000010] ; 
0x00119c85: adc byte [ebx+0x651C247C], cl ; call dword [0x00000010] ; 
0x001002bb: adc byte [ebx-0x0000D76F], cl ; jmp dword [ebp-0x75] ; 
0x00067c2b: adc byte [ebx-0x0000D77D], cl ; jmp dword [ebp-0x75] ; 
0x000f7d5b: adc byte [ebx-0x0000DF6D], cl ; jmp dword [ebp-0x75] ; 
0x000b6ae1: adc byte [ebx-0x00010B63], cl ; call dword [edi-0x01] ; 
0x00163f78: adc byte [ebx-0x04], bl ; jmp dword [eax+0x12FFFC5B] ; 
0x000ead66: adc byte [ebx-0x08EBDBBC], cl ; retn 0xFF80 ; 
0x000d58b5: adc byte [ebx-0x09D7DBAC], cl ; retn 0x7540 ; 
0x00115938: adc byte [ebx-0x17E7DB84], cl ; ret  ; 
0x000c1ea0: adc byte [ebx-0x76F3DBBC], cl ; ret  ; 
0x0004929c: adc byte [ebx-0x7AF00008], al ; retn 0xFFFE ; 
0x0005496d: adc byte [ebx-0x7BF00008], al ; ret  ; 
0x0003e65f: adc byte [ebx-0x7CB7DBB4], cl ; retn 0xEB04 ; 
0x0009b448: adc byte [ebx-0x7CEBDBB4], cl ; retn 0x83FF ; 
0x0016b52b: adc byte [ecx+0x0A], al ; ret  ; 
0x00175f0a: adc byte [ecx+0x0A], ch ; ret  ; 
0x001780fa: adc byte [ecx+0x0A], cl ; ret  ; 
0x00191384: adc byte [ecx+0x0A], dl ; ret  ; 
0x00166cec: adc byte [ecx+0x19C40001], 0xFFFFFFF1 ; jmp dword [ecx+edx*4+0x1A040001] ; 
0x0007372b: adc byte [ecx+0x5F5E5BD8], cl ; ret  ; 
0x0007d6b4: adc byte [ecx+0x5F5E5BF0], cl ; ret  ; 
0x000ee68c: adc byte [ecx+0x5F5E5BF8], cl ; ret  ; 
0x00143461: adc byte [ecx+edi*8], dl ; call dword [eax-0x01] ; 
0x0006467c: adc byte [ecx-0x09EC74CE], cl ; retn 0x7402 ; 
0x0010cb5b: adc byte [ecx-0x76C3DBBC], cl ; retn 0x0A8B ; 
0x000fba99: adc byte [ecx-0x76DBDB8C], cl ; ret  ; 
0x00077bf8: adc byte [ecx-0x76F3DBA4], cl ; ret  ; 
0x000c2391: adc byte [ecx-0x76F3DBBC], cl ; retn 0xF389 ; 
0x00112247: adc byte [ecx-0x7CF57406], cl ; retn 0x8D04 ; 
0x00095594: adc byte [ecx], 0xFFFFFFFB ; call dword [esi+0x6A] ; 
0x000eaafb: adc byte [ecx], ah ; ret  ; 
0x000ccdbb: adc byte [ecx], al ; ret  ; 
0x0008fd15: adc byte [ecx], al ; retn 0x067C ; 
0x0004066f: adc byte [ecx], bh ; ret  ; 
0x000ee4c2: adc byte [ecx], bh ; retn 0x1876 ; 
0x000684f1: adc byte [ecx], bh ; retn 0x44C7 ; 
0x0004ab8d: adc byte [ecx], bh ; retn 0x4877 ; 
0x0004090c: adc byte [ecx], bh ; retn 0x850F ; 
0x000417cf: adc byte [ecx], bh ; retn 0x860F ; 
0x000410cc: adc byte [ecx], bh ; retn 0x870F ; 
0x00068425: adc byte [ecx], bh ; retn 0xA674 ; 
0x00120c25: adc byte [ecx], bh ; retn 0xB174 ; 
0x00064a75: adc byte [ecx], ch ; ret  ; 
0x0011c57d: adc byte [ecx], ch ; retn 0x4A8D ; 
0x0002f6f0: adc byte [ecx], ch ; retn 0xC269 ; 
0x00140d09: adc byte [ecx], ch ; retn 0xE183 ; 
0x0004eed7: adc byte [ecx], ch ; retn 0xFAC1 ; 
0x0003aa5f: adc byte [ecx], cl ; ret  ; 
0x000a1015: adc byte [ecx], cl ; retn 0x01B9 ; 
0x0017a256: adc byte [edi+0x0A], ah ; ret  ; 
0x0016e29b: adc byte [edi+0x0A], al ; ret  ; 
0x00176446: adc byte [edi+0x0A], bl ; ret  ; 
0x0017e6ab: adc byte [edi+0x0A], cl ; ret  ; 
0x00175e1e: adc byte [edi+0x0A], dh ; ret  ; 
0x0019b2ef: adc byte [edi+0x0A], dl ; ret  ; 
0x00085d0f: adc byte [edi+0x5B], bl ; ret  ; 
0x0007e4ea: adc byte [edi+0x5E], bl ; ret  ; 
0x000f8d63: adc byte [edi-0x0C], ch ; call dword [eax-0x18] ; 
0x00158cb0: adc byte [edi-0x0F], ch ; jmp dword [edi+ebp*2-0x0F] ; 
0x0017cf60: adc byte [edi-0x11], ah ; call dword [ecx+eax] ; 
0x001562d0: adc byte [edi-0x16], al ; jmp eax ; 
0x0000227b: adc byte [edi-0x29EFD780], al ; ret  ; 
0x00156f10: adc byte [edi], cl ; jmp dword [eax] ; 
0x0017ad23: adc byte [edx+0x0A], bl ; ret  ; 
0x0017b642: adc byte [edx+0x0A], cl ; ret  ; 
0x00184c9f: adc byte [edx+0x0A], dl ; ret  ; 
0x00166d1c: adc byte [edx+0x1F340001], 0xFFFFFFF1 ; call dword [edx+edx*4+0x1F940001] ; 
0x00115421: adc byte [edx+0x53], dl ; call dword [eax+0x20] ; 
0x00114d61: adc byte [edx+0x53], dl ; call dword [eax] ; 
0x001a1760: adc byte [edx-0x0A], dl ; jmp dword [ecx+0x00000000] ; 
0x001093b0: adc byte [edx-0x0B], dh ; call dword [edx+0x6A] ; 
0x00127039: adc byte [edx-0x18], 0xFFFFFFFC ; jmp dword [esi-0x70] ; 
0x00156fb8: adc byte [edx], 0xFFFFFFF3 ; call dword [eax-0x5F000CEE] ; 
0x00156f9c: adc byte [edx], dl ; jmp dword [eax] ; 
0x00179b52: adc byte [esi+0x0A], ah ; ret  ; 
0x00175ebb: adc byte [esi+0x0A], al ; ret  ; 
0x0017671b: adc byte [esi+0x0A], bl ; ret  ; 
0x0016bf17: adc byte [esi+0x0A], cl ; ret  ; 
0x00173ed6: adc byte [esi+0x0A], dl ; ret  ; 
0x001839ff: adc byte [esi+0x0C0E4204], al ; ret  ; 
0x00183a6e: adc byte [esi+0x0C0E4A04], al ; ret  ; 
0x00183a5d: adc byte [esi+0x0C0E4D04], al ; ret  ; 
0x00183ac3: adc byte [esi+0x0C0E4F04], al ; ret  ; 
0x00183a3b: adc byte [esi+0x0C0E7104], al ; ret  ; 
0x00183d01: adc byte [esi+0x0C0E7204], al ; ret  ; 
0x00183a4c: adc byte [esi+0x0C0E7304], al ; ret  ; 
0x00183a2a: adc byte [esi+0x0C0E7504], al ; ret  ; 
0x00163da4: adc byte [esi-0x04], dl ; jmp dword [eax+0x30FFFC56] ; 
0x0011dfaf: adc byte [esi-0x09], ah ; ret  ; 
0x00156224: adc byte [esi-0x16], dl ; call dword [eax] ; 
0x00156214: adc byte [esi-0x16], dl ; jmp eax ; 
0x00164474: adc byte [esi-0x68EF0004], 0xFFFFFFFC ; jmp dword [eax-0x2D000369] ; 
0x001a4848: adc byte [esi-0x6E9BFFFD], 0xFFFFFFF6 ; jmp dword [esi] ; 
0x0017acf5: adc ch, bh ; call dword [ecx+0x00000000] ; 
0x0017ac75: adc ch, bh ; jmp dword [eax+0x00] ; 
0x0017b7b1: adc ch, bh ; jmp dword [ebp+0x00] ; 
0x00157d10: adc ch, byte [eax-0x11] ; call dword [ecx-0x540010AD] ; 
0x000a170f: adc ch, byte [ecx] ; retn 0x068B ; 
0x000a1777: adc ch, byte [ecx] ; retn 0xC269 ; 
0x000d3cc5: adc ch, dh ; call dword [eax+0x0026B48D] ; 
0x00169561: adc cl, bh ; jmp dword [edi+esi*2+0x03] ; 
0x0002983b: adc cl, byte [ebp-0x7CFFD98C] ; ret  ; 
0x0003e2b7: adc cl, ch ; ret  ; 
0x000577fd: adc cl, ch ; retn 0xFFE9 ; 
0x000e635e: adc cl, ch ; retn 0xFFF9 ; 
0x0006e236: adc cl, ch ; retn 0xFFFA ; 
0x000ddd08: adc cl, ch ; retn 0xFFFD ; 
0x0002bd86: adc cl, cl ; ret  ; 
0x001664b1: adc dh, al ; call dword [esi+esi+0x01] ; 
0x00168289: adc dh, bh ; call dword [eax] ; 
0x00156f81: adc dh, bl ; call dword [eax+0x12] ; 
0x00156fb9: adc dh, bl ; call dword [eax-0x5F000CEE] ; 
0x00156f99: adc dh, bl ; call dword [eax] ; 
0x00156fc9: adc dh, bl ; call eax ; 
0x00156fad: adc dh, bl ; jmp dword [eax+0x12] ; 
0x00156fbd: adc dh, bl ; jmp dword [eax-0x4F000CEE] ; 
0x00156f9d: adc dh, bl ; jmp dword [eax] ; 
0x00156fcd: adc dh, bl ; jmp eax ; 
0x0010bc50: adc dh, byte [ecx] ; retn 0xD689 ; 
0x0019fd35: adc dh, dh ; jmp dword [ecx] ; 
0x000cdc19: adc dh, dh ; retn 0x0F02 ; 
0x0000227f: adc dh, dl ; ret  ; 
0x00169bf9: adc dl, bh ; call dword [eax+0x040003C3] ; 
0x00114a87: adc dword [eax+0x04], 0xFFFFFFFB ; call dword [eax-0x73] ; 
0x000b077e: adc dword [eax+0x50FFFAEF], 0xF745C7E8 ; jmp dword [esi-0x70] ; 
0x000fad39: adc dword [eax+0x57], 0xFFFFFFF5 ; call dword [eax-0x73] ; 
0x000f96c9: adc dword [eax+0x58], 0xFFFFFFF5 ; call dword [eax-0x73] ; 
0x000af4c2: adc dword [eax+0x59], 0xFFFFFFF5 ; call dword [eax-0x73] ; 
0x000ec012: adc dword [eax+0x5A], 0xFFFFFFF5 ; call dword [eax-0x73] ; 
0x000fe822: adc dword [eax+0x5B], 0xFFFFFFF5 ; call dword [eax-0x73] ; 
0x0001874c: adc dword [eax-0x00000001], edi ; ret  ; 
0x000d00d0: adc dword [eax-0x0B], 0xFFFFFFFA ; call dword [eax-0x18] ; 
0x00110b77: adc dword [eax-0x17], 0xFFFFFFF5 ; call dword [eax+0x57] ; 
0x0001850d: adc dword [eax-0x33], 0xFFFFFFFA ; call dword [eax-0x73] ; 
0x000eb614: adc dword [eax], 0xFFFFFFA1 ; call dword [eax-0x18] ; 
0x0001b5c3: adc dword [ebp-0x7CFFD98C], ecx ; retn 0x0F01 ; 
0x00101c74: adc dword [ebx+0x5E], ebx ; ret  ; 
0x000be755: adc dword [ebx-0x7CF7DBBC], ecx ; retn 0x0F01 ; 
0x001436ba: adc dword [ecx+edx*8], 0xFFFFFFFA ; call dword [eax-0x73] ; 
0x00057e05: adc dword [ecx-0x0004D363], ecx ; jmp dword [esi-0x77] ; 
0x00115826: adc dword [ecx], ebp ; retn 0x4189 ; 
0x000c10c8: adc dword [ecx], edi ; ret  ; 
0x00152efa: adc dword [edi+0x5FA022DA], 0x0D849416 ; retn 0xBE57 ; 
0x00034283: adc dword [edi-0x67], 0xE850FFFA ; retn 0xFF0A ; 
0x00021a99: adc dword [edi-0x6B], 0xFFFFFFFA ; call dword [eax-0x18] ; 
0x000e2812: adc dword [edx-0x4B], 0xFFFFFFFA ; call dword [eax-0x01] ; 
0x000b5e27: adc dword [edx-0x50], 0xFFFFFFFA ; call dword [eax-0x73] ; 
0x000e69d3: adc dword [esi-0x44], 0xFFFFFFFA ; call dword [eax-0x01] ; 
0x000c9585: adc dword [esi-0x4F], 0xFFFFFFFA ; call dword [eax-0x18] ; 
0x000021f0: adc dword [si], eax ; ret  ; 
0x000b1267: adc eax, 0x00000010 ; ret  ; 
0x0002e964: adc eax, 0x00000018 ; call edx ; 
0x0008f7ba: adc eax, 0x29C0BC0F ; retn 0x860F ; 
0x000f638a: adc eax, 0x3901C283 ; retn 0xEE75 ; 
0x00081e68: adc eax, 0x5BFFFFFE ; ret  ; 
0x000e79a8: adc eax, 0x65000000 ; call dword [0x00000010] ; 
0x000f8fec: adc eax, 0x8100026B ; ret  ; 
0x000b13ec: adc eax, 0x810006E7 ; ret  ; 
0x0002ceec: adc eax, 0x81000F2C ; ret  ; 
0x0010a48f: adc eax, 0x8108EC83 ; retn 0x2394 ; 
0x0013c6ec: adc eax, 0x81FFFE34 ; ret  ; 
0x000f0b13: adc eax, 0x8300000E ; retn 0x8318 ; 
0x0001812c: adc eax, 0x8900768D ; retn 0xF189 ; 
0x001213b7: adc eax, 0x89FFF49A ; retn 0xC483 ; 
0x000f3b88: adc eax, dword [ebx+0x5E5B04C4] ; ret  ; 
0x0001c82c: adc eax, dword [ebx+eax*4] ; retn 0x8B01 ; 
0x00090551: adc eax, dword [ebx-0x6BF0FD06] ; retn 0x5484 ; 
0x0018025d: adc eax, dword [ecx] ; ret  ; 
0x000bd120: adc eax, dword [ecx] ; retn 0x5303 ; 
0x000a3b5c: adc eax, edi ; call dword [eax+0x4C8BDA89] ; 
0x00157a90: adc ebp, dword [edx-0x11] ; call dword [eax+0x65] ; 
0x00157b10: adc ebp, dword [edx-0x11] ; call dword [eax+0x7AFFEF5F] ; 
0x00157994: adc ebp, dword [edx-0x11] ; call dword [ebx] ; 
0x00157a20: adc ebp, dword [edx-0x11] ; call dword [esi+0x66] ; 
0x00157b54: adc ebp, dword [edx-0x11] ; jmp dword [eax+ebx*2] ; 
0x00157b28: adc ebp, dword [edx-0x11] ; jmp dword [edi+0x62] ; 
0x0017b831: adc ebp, edi ; jmp dword [ecx] ; 
0x000a036c: adc ebx, dword [edi+0x5E] ; ret  ; 
0x000f69c9: adc ebx, dword [edi] ; jmp dword [esi-0x70] ; 
0x00062223: adc ebx, ebp ; retn 0x768D ; 
0x00046e57: adc ebx, edi ; call dword [eax+0x56] ; 
0x000952f5: adc ebx, edi ; call dword [eax+0x57] ; 
0x000e492e: adc ebx, edi ; call dword [eax-0x18] ; 
0x00095595: adc ebx, edi ; call dword [esi+0x6A] ; 
0x00156f61: adc ebx, esi ; call dword [eax+0x11] ; 
0x00156f69: adc ebx, esi ; call dword [eax-0x4F000CEF] ; 
0x00156f78: adc ebx, esi ; call dword [eax] ; 
0x00156f71: adc ebx, esi ; call eax ; 
0x001013c1: adc ecx, dword [ebx+eax*4] ; ret  ; 
0x000f6ba4: adc ecx, dword [ebx-0x0000D745] ; jmp dword [ebp-0x75] ; 
0x000debc7: adc ecx, dword [ebx-0x0000D761] ; jmp dword [ebp-0x75] ; 
0x000deaf3: adc ecx, dword [ebx-0x0000D769] ; jmp dword [ebp-0x75] ; 
0x0005e21c: adc ecx, dword [ebx-0x0000D775] ; jmp dword [ebp-0x75] ; 
0x0010af01: adc ecx, dword [ebx-0x7CDBDBB4] ; ret  ; 
0x00052075: adc ecx, dword [ecx-0x0005A773] ; jmp dword [esi-0x77] ; 
0x00169579: adc ecx, edi ; call dword [eax+edi*2] ; 
0x0005fb91: adc edi, dword [eax+0x00000006] ; call dword [0x00000010] ; 
0x0003eedc: adc edi, dword [ecx] ; retn 0x8D0F ; 
0x00102ac8: adc edi, dword [ecx] ; retn 0x960F ; 
0x00192e7d: adc edi, ecx ; jmp dword [0x00000000] ; 
0x001695a1: adc edi, ecx ; jmp eax ; 
0x00033b8b: adc edi, edi ; jmp dword [esi-0x70] ; 
0x001a9c89: adc edi, esi ; jmp dword [edx+0x00] ; 
0x000629c4: adc edx, dword [eax+eax+0x53500000] ; call dword [edx+0x18] ; 
0x0011e89b: adc edx, ebp ; call dword [eax+0x044A8953] ; 
0x000f55c9: adc esi, dword [ebx] ; jmp dword [esi-0x70] ; 
0x00115251: adc esi, dword [esp+ebp-0x7D] ; ret  ; 
0x00198f01: adc esi, ebp ; call dword [eax+eax] ; 
0x000e7344: adc esi, ebx ; jmp dword [esi-0x70] ; 
0x000b1b0a: adc esi, ebx ; ret  ; 
0x00166cd1: adc esi, ecx ; call dword [eax-0x5BFFFE70] ; 
0x001a9d95: adc esi, edi ; jmp dword [ebx+0x02] ; 
0x000cf346: adc esi, edi ; retn 0xF800 ; 
0x0005f4a7: adc esi, esi ; retn 0x0F20 ; 
0x00064680: adc esi, esi ; retn 0x7402 ; 
0x0010199c: adc esi, esi ; retn 0x7507 ; 
0x001667e7: add ah, ah ; call dword [eax+0x59] ; 
0x0016efeb: add ah, ah ; ret  ; 
0x0019e4ab: add ah, al ; ret  ; 
0x0015918b: add ah, bh ; jmp dword [esi+0x00] ; 
0x00184dd3: add ah, bh ; ret  ; 
0x001a7143: add ah, bl ; ret  ; 
0x0016b473: add ah, bl ; retn 0xFFEA ; 
0x00176b71: add ah, byte [eax+0x0A] ; ret  ; 
0x0018845a: add ah, byte [eax+0x410C0E0A] ; ret  ; 
0x00197b5c: add ah, byte [eax+0x41140E0A] ; ret  ; 
0x00196090: add ah, byte [ebp+0x0A] ; ret  ; 
0x0017911f: add ah, byte [ebx+0x0A] ; ret  ; 
0x0017d564: add ah, byte [ebx+0x41140E0A] ; ret  ; 
0x001a3d08: add ah, byte [ebx+0x43140E0A] ; ret  ; 
0x0016f401: add ah, byte [ecx+0x0A] ; ret  ; 
0x00189ed0: add ah, byte [ecx+0x43140E0A] ; ret  ; 
0x00184b28: add ah, byte [edi+0x0A] ; ret  ; 
0x0017b867: add ah, byte [edi+0x43140E0A] ; ret  ; 
0x00176842: add ah, byte [edx+0x0A] ; ret  ; 
0x0019a8a4: add ah, byte [edx+0x41140E0A] ; ret  ; 
0x0016e72c: add ah, byte [edx+0x43140E0A] ; ret  ; 
0x0017e419: add ah, byte [esi+0x0A] ; ret  ; 
0x00165431: add ah, ch ; call dword [eax-0x72] ; 
0x00165419: add ah, ch ; call dword [esi+ecx*4] ; 
0x0016f003: add ah, ch ; ret  ; 
0x001a7103: add ah, cl ; ret  ; 
0x00197493: add ah, cl ; retn 0x0002 ; 
0x0018ffa5: add ah, dh ; jmp dword [eax+0x00000000] ; 
0x00168817: add ah, dh ; ret  ; 
0x001774bb: add ah, dh ; retn 0x0000 ; 
0x00168807: add ah, dl ; retn 0xFFF7 ; 
0x0002d914: add al, 0x01 ; ret  ; 
0x00091184: add al, 0x01 ; retn 0xF685 ; 
0x001058d8: add al, 0x02 ; ret  ; 
0x00166450: add al, 0x0A ; call dword [eax+0x14000132] ; 
0x0018c2c2: add al, 0x0A ; ret  ; 
0x00189b1c: add al, 0x1D ; call eax ; 
0x00111a3d: add al, 0x24 ; call dword [edx+0x10] ; 
0x0014321b: add al, 0x24 ; call esi ; 
0x0003d3e1: add al, 0x24 ; ret  ; 
0x0005ca32: add al, 0x29 ; ret  ; 
0x0006a50d: add al, 0x29 ; retn 0x5052 ; 
0x000e1cc4: add al, 0x29 ; retn 0x8957 ; 
0x00064718: add al, 0x29 ; retn 0xFAC1 ; 
0x0010baa8: add al, 0x31 ; retn 0x0B89 ; 
0x00167138: add al, 0x34 ; jmp dword [eax+ebx*8+0x3A140001] ; 
0x000ba05d: add al, 0x39 ; ret  ; 
0x0002d7a7: add al, 0x39 ; retn 0x4489 ; 
0x0011e398: add al, 0x39 ; retn 0x850F ; 
0x000c13c1: add al, 0x39 ; retn 0xCA7D ; 
0x0005546a: add al, 0x39 ; retn 0xF372 ; 
0x0003def8: add al, 0x39 ; retn 0xF375 ; 
0x000c397c: add al, 0x39 ; retn 0xF775 ; 
0x0017059b: add al, 0x49 ; ret  ; 
0x00167148: add al, 0x4B ; call eax ; 
0x00167418: add al, 0x4E ; jmp dword [eax] ; 
0x00108873: add al, 0x50 ; call dword [edx+0x10] ; 
0x00111acb: add al, 0x50 ; call dword [edx+0x14] ; 
0x00108f2a: add al, 0x52 ; call dword [eax+0x10] ; 
0x00108e72: add al, 0x53 ; call dword [eax+0x10] ; 
0x001120aa: add al, 0x53 ; call dword [eax] ; 
0x0018ba6c: add al, 0x53 ; jmp dword [ebp+0x00000004] ; 
0x00108d70: add al, 0x56 ; call dword [eax+0x10] ; 
0x0011e174: add al, 0x56 ; call ebp ; 
0x0011279e: add al, 0x57 ; call dword [eax+0x10] ; 
0x0006acf5: add al, 0x5B ; ret  ; 
0x0006caf2: add al, 0x5E ; ret  ; 
0x00083f3c: add al, 0x5F ; ret  ; 
0x0018bf3c: add al, 0x60 ; call dword [eax] ; 
0x0017f72f: add al, 0x60 ; ret  ; 
0x0019f1fb: add al, 0x63 ; ret  ; 
0x00115a32: add al, 0x6A ; call dword [ebp+0x56] ; 
0x00116082: add al, 0x6A ; call dword [ebp+0x57] ; 
0x00114adf: add al, 0x6A ; call dword [ebx+0x57] ; 
0x0019410b: add al, 0x6B ; ret  ; 
0x0017f75b: add al, 0x6C ; ret  ; 
0x0017f7b3: add al, 0x6E ; ret  ; 
0x0017f67b: add al, 0x6F ; ret  ; 
0x0013da2b: add al, 0x76 ; ret  ; 
0x00172a5f: add al, 0x79 ; ret  ; 
0x0019c833: add al, 0x7C ; ret  ; 
0x00100795: add al, 0x81 ; ret  ; 
0x000c8d63: add al, 0x83 ; jmp dword [eax] ; 
0x0010b117: add al, 0x83 ; jmp dword [ebx-0x47] ; 
0x00166980: add al, 0x83 ; jmp esp ; 
0x00019a4f: add al, 0x83 ; ret  ; 
0x0009d5d0: add al, 0x83 ; retn 0x3901 ; 
0x000b4012: add al, 0x83 ; retn 0x3904 ; 
0x0004019c: add al, 0x83 ; retn 0x390C ; 
0x000b6522: add al, 0x83 ; retn 0x5601 ; 
0x00077dfb: add al, 0x83 ; retn 0x8301 ; 
0x00074be0: add al, 0x83 ; retn 0x8304 ; 
0x0011ae12: add al, 0x83 ; retn 0x8308 ; 
0x00091055: add al, 0x83 ; retn 0x8310 ; 
0x0011ae00: add al, 0x83 ; retn 0x8328 ; 
0x00074be3: add al, 0x83 ; retn 0x8404 ; 
0x000f61a6: add al, 0x83 ; retn 0x8501 ; 
0x000a9759: add al, 0x83 ; retn 0x8530 ; 
0x0007ca0f: add al, 0x83 ; retn 0x8901 ; 
0x000c98d7: add al, 0x83 ; retn 0x8904 ; 
0x0010ca52: add al, 0x83 ; retn 0x8908 ; 
0x0001c82d: add al, 0x83 ; retn 0x8B01 ; 
0x00076ec1: add al, 0x83 ; retn 0x8B04 ; 
0x000778c6: add al, 0x83 ; retn 0xD310 ; 
0x000bff7e: add al, 0x83 ; retn 0xE804 ; 
0x0011cc22: add al, 0x83 ; retn 0xF610 ; 
0x00107d66: add al, 0x83 ; retn 0xFF28 ; 
0x000374c3: add al, 0x89 ; ret  ; 
0x000965f5: add al, 0x89 ; retn 0x048D ; 
0x00071ea9: add al, 0x89 ; retn 0x05EB ; 
0x000f1719: add al, 0x89 ; retn 0x4789 ; 
0x00025814: add al, 0x89 ; retn 0x4EE9 ; 
0x00073706: add al, 0x89 ; retn 0x588D ; 
0x0005f360: add al, 0x89 ; retn 0x708D ; 
0x000cf78b: add al, 0x89 ; retn 0x830F ; 
0x0011a685: add al, 0x89 ; retn 0x8365 ; 
0x00090716: add al, 0x89 ; retn 0x850F ; 
0x00028023: add al, 0x89 ; retn 0x8FE9 ; 
0x000691c2: add al, 0x89 ; retn 0xC483 ; 
0x0006ebe5: add al, 0x89 ; retn 0xDDE9 ; 
0x000c846b: add al, 0x89 ; retn 0xE283 ; 
0x0002e8e2: add al, 0x89 ; retn 0xE2C1 ; 
0x000e5e41: add al, 0x89 ; retn 0xE8C1 ; 
0x0004957b: add al, 0x89 ; retn 0xF229 ; 
0x00027561: add al, 0x89 ; retn 0xF889 ; 
0x0002b1d7: add al, 0x89 ; retn 0xF8C1 ; 
0x0002b6cf: add al, 0x89 ; retn 0xFF25 ; 
0x00025053: add al, 0x90 ; rep ret  ; 
0x000252dc: add al, 0x90 ; ret  ; 
0x00167490: add al, 0x98 ; call dword [esi+0x02] ; 
0x001674a8: add al, 0x9B ; call dword [eax] ; 
0x001671f8: add al, 0xBA ; jmp dword [eax] ; 
0x00167278: add al, 0xC1 ; call dword [ebp+edi*8+0x01] ; 
0x0010bdd5: add al, 0xC1 ; retn 0x8904 ; 
0x0011e2b8: add al, 0xE8 ; retn 0xFFF7 ; 
0x000a0bf8: add al, 0xE9 ; retn 0xFFFE ; 
0x00055aca: add al, 0xEB ; ret  ; 
0x0017a3b5: add al, 0xEF ; call dword [edx] ; 
0x00165ee9: add al, 0xEF ; jmp eax ; 
0x00158335: add al, 0xF0 ; call dword [ecx] ; 
0x00158351: add al, 0xF0 ; call dword [edi+0x04] ; 
0x0015833d: add al, 0xF0 ; jmp dword [0x2FFFF004] ; 
0x00158355: add al, 0xF0 ; jmp dword [ecx+0x04] ; 
0x00158371: add al, 0xF0 ; jmp dword [edi-0x4E000FFC] ; 
0x001153a5: add al, 0xF1 ; call dword [eax-0x73] ; 
0x0018ce41: add al, 0xF3 ; call dword [edi] ; 
0x000f493b: add al, 0xF3 ; jmp dword [esi-0x70] ; 
0x00017cb9: add al, 0xF6 ; retn 0x0F08 ; 
0x000474ed: add al, 0xF6 ; retn 0x0F20 ; 
0x00168199: add al, 0xF7 ; call esp ; 
0x001681a1: add al, 0xF7 ; jmp dword [ebx+ecx*8] ; 
0x000c421a: add al, 0xF7 ; ret  ; 
0x00075852: add al, 0xF7 ; retn 0x0000 ; 
0x000bf3cc: add al, 0xF7 ; retn 0xFF00 ; 
0x00116cc5: add al, 0xFB ; call dword [eax-0x18] ; 
0x00114a89: add al, 0xFB ; call dword [eax-0x73] ; 
0x00166bd0: add al, 0xFB ; call dword [edi+eax*4-0x034BFFFF] ; 
0x0016ae91: add al, 0xFC ; jmp esp ; 
0x0012546b: add al, 0xFD ; jmp dword [esi-0x70] ; 
0x000022b1: add al, 0xFFFFFFAA ; ret  ; 
0x0000b99b: add al, ah ; ret  ; 
0x000087ab: add al, ah ; retn 0x0005 ; 
0x00009a4b: add al, ah ; retn 0x0010 ; 
0x001a6fdf: add al, ah ; retn 0xFFF6 ; 
0x0000554b: add al, al ; ret  ; 
0x00168ab1: add al, bh ; call dword [eax+0x14000320] ; 
0x0019759f: add al, bl ; ret  ; 
0x0016d982: add al, byte [eax+0x0A] ; ret  ; 
0x0016c478: add al, byte [eax+0x41140E0A] ; ret  ; 
0x00167a0e: add al, byte [eax] ; retn 0xFFF4 ; 
0x00173b28: add al, byte [ebp+0x0A] ; ret  ; 
0x001a43ec: add al, byte [ebp+0x41140E0A] ; ret  ; 
0x001a9e05: add al, byte [ebp+0x43140E0A] ; ret  ; 
0x0006bf8f: add al, byte [ebp-0x0C0B8A40] ; ret  ; 
0x000e1dfa: add al, byte [ebp-0x7CF68B40] ; retn 0x8904 ; 
0x001730ac: add al, byte [ebx+0x0A] ; ret  ; 
0x0018f544: add al, byte [ebx+0x41140E0A] ; ret  ; 
0x00198e5d: add al, byte [ebx+0x43140E0A] ; ret  ; 
0x0003d500: add al, byte [ebx+0x5E5B01E8] ; ret  ; 
0x00062786: add al, byte [ebx+0x5E5B04C4] ; ret  ; 
0x000c14ad: add al, byte [ebx+0x5E5B08C0] ; ret  ; 
0x00176444: add al, byte [ecx+0x0A5F102E] ; ret  ; 
0x00173efe: add al, byte [ecx+0x0A] ; ret  ; 
0x0016c28c: add al, byte [ecx+0x41140E0A] ; ret  ; 
0x0005a394: add al, byte [ecx] ; ret  ; 
0x000213ef: add al, byte [ecx] ; retn 0x953B ; 
0x0016c52c: add al, byte [edi+0x41140E0A] ; ret  ; 
0x0017190c: add al, byte [edx+0x41140E0A] ; ret  ; 
0x001ab2dd: add al, byte [edx+0x43140E0A] ; ret  ; 
0x0017382a: add al, byte [esi+0x0A] ; ret  ; 
0x0016ca3c: add al, byte [esi+0x41140E0A] ; ret  ; 
0x000e261b: add al, ch ; call dword [ecx+eax] ; 
0x0002d39b: add al, ch ; jmp esp ; 
0x0003ce16: add al, ch ; ret  ; 
0x001874af: add al, ch ; retn 0x0001 ; 
0x001974af: add al, ch ; retn 0x0002 ; 
0x00072428: add al, ch ; retn 0x0816 ; 
0x00070d28: add al, ch ; retn 0x082D ; 
0x000d26c8: add al, ch ; retn 0xF6CA ; 
0x00074088: add al, ch ; retn 0xFD55 ; 
0x0016efa7: add al, cl ; retn 0xFFEB ; 
0x0003ebf1: add al, dh ; jmp dword [0x000FFFFF] ; 
0x0000709b: add al, dh ; retn 0x000A ; 
0x0000addb: add al, dl ; ret  ; 
0x0000477b: add al, dl ; retn 0x0002 ; 
0x0018c690: add bh, al ; call dword [0x00000016] ; 
0x000b1c59: add bh, bh ; ret  ; 
0x0010fadf: add bh, bl ; call dword [eax-0x73] ; 
0x0016a521: add bh, bl ; call dword [eax] ; 
0x00049643: add bh, byte [eax+0x00000001] ; ret  ; 
0x00198f2c: add bh, byte [eax+0x0A] ; ret  ; 
0x00178324: add bh, byte [ebp+0x0A] ; ret  ; 
0x00178200: add bh, byte [ebx+0x0A] ; ret  ; 
0x0017e00c: add bh, byte [ebx+0x41140E0A] ; ret  ; 
0x0018f58c: add bh, byte [ecx+0x0A] ; ret  ; 
0x00101c57: add bh, byte [ecx] ; ret  ; 
0x000e5812: add bh, byte [ecx] ; retn 0x440F ; 
0x00046368: add bh, byte [ecx] ; retn 0x8D0F ; 
0x00176b3c: add bh, byte [edi+0x0A] ; ret  ; 
0x00194627: add bh, byte [edi+0x41100E0A] ; ret  ; 
0x0017cba4: add bh, byte [edi+0x43140E0A] ; ret  ; 
0x00175f5c: add bh, byte [edx+0x0A] ; ret  ; 
0x0016d745: add bh, byte [esi+0x0A] ; ret  ; 
0x001816db: add bh, byte [esi+ecx+0x04] ; ret  ; 
0x001694c1: add bh, cl ; jmp dword [eax+0x64000372] ; 
0x000ea340: add bh, dh ; ret  ; 
0x00074b41: add bh, dh ; retn 0x0003 ; 
0x00125548: add bh, dh ; retn 0x000F ; 
0x0008ffd5: add bh, dh ; retn 0x003F ; 
0x000ea480: add bh, dh ; retn 0xFF80 ; 
0x0002b65f: add bh, dh ; retn 0xFFFF ; 
0x00164938: add bl, 0xFFFFFFFC ; call eax ; 
0x000747ec: add bl, al ; rep ret  ; 
0x0010755c: add bl, bh ; call dword [eax-0x73] ; 
0x0016a4f9: add bl, bh ; call eax ; 
0x0016a501: add bl, bh ; jmp esp ; 
0x0016f559: add bl, byte [ebp+0x0A] ; ret  ; 
0x0018ded0: add bl, byte [ebp+0x41140E0A] ; ret  ; 
0x001797f1: add bl, byte [ebx+0x0A] ; ret  ; 
0x0018a6b7: add bl, byte [ebx+0x41140E0A] ; ret  ; 
0x00062c61: add bl, byte [ebx+0x5E] ; ret  ; 
0x00180549: add bl, byte [ebx+edx+0x01] ; ret  ; 
0x00188f4a: add bl, byte [ecx+0x0A] ; ret  ; 
0x0018ba84: add bl, byte [edi+0x0A] ; ret  ; 
0x00101a94: add bl, byte [edi+0x5D] ; ret  ; 
0x0016bfbc: add bl, byte [edx+0x0A] ; ret  ; 
0x0019681b: add bl, byte [edx+0x41140E0A] ; ret  ; 
0x00194897: add bl, byte [edx+0x43140E0A] ; ret  ; 
0x00184990: add bl, byte [esi+0x0A] ; ret  ; 
0x0019a9a8: add bl, byte [esi+0x41140E0A] ; ret  ; 
0x0008fece: add bl, byte [esi+0x5F] ; ret  ; 
0x00180936: add bl, byte [esi+ecx+0x04] ; ret  ; 
0x001845fc: add bl, byte [esi+ecx+0x14] ; ret  ; 
0x00142d67: add bl, byte [esi-0x7D] ; retn 0x8308 ; 
0x0001897a: add bl, ch ; ret  ; 
0x0002a14b: add bl, ch ; retn 0x44C7 ; 
0x00046135: add bl, ch ; retn 0x458B ; 
0x0002db76: add bl, ch ; retn 0x7C89 ; 
0x00144291: add bl, ch ; retn 0x838D ; 
0x001017b8: add bl, ch ; retn 0x8D90 ; 
0x0004c96a: add bl, ch ; retn 0xBD8B ; 
0x0001837b: add bl, dh ; ret  ; 
0x00067005: add byte [0x00000200], ah ; ret  ; 
0x00066fd5: add byte [0x00000804], ah ; ret  ; 
0x00156ecc: add byte [0x0D20FFF3], cl ; call dword [eax+0x0D] ; 
0x00176e57: add byte [0x140E0A54], 0x00000041 ; ret  ; 
0x00189eeb: add byte [0x21E00001+ebp*8], ah ; jmp dword [edx+0x00000001] ; 
0x000003c5: add byte [0x62082008], 0x00000022 ; retn 0x0224 ; 
0x0018e6f3: add byte [0x78A80002+esi], ch ; jmp dword [edx+0x02] ; 
0x00047d27: add byte [0xFFF68AE9], ch ; jmp dword [esi-0x70] ; 
0x00045511: add byte [0xFFFD50E9], ch ; call dword [eax+0x0026B48D] ; 
0x000493c7: add byte [0xFFFD62E9], ch ; jmp dword [esi-0x70] ; 
0x000b07d7: add byte [eax+0x00000001], bh ; int 0x80 ; 
0x0002caff: add byte [eax+0x00000001], bh ; ret  ; 
0x000a05af: add byte [eax+0x00000002], bh ; ret  ; 
0x0006e565: add byte [eax+0x00000003], bh ; call dword [0x00000010] ; 
0x000a05bf: add byte [eax+0x00000003], bh ; ret  ; 
0x000a05cf: add byte [eax+0x00000004], bh ; ret  ; 
0x0002301b: add byte [eax+0x00000005], bh ; call dword [0x00000010] ; 
0x000a05df: add byte [eax+0x00000005], bh ; ret  ; 
0x0005f99d: add byte [eax+0x00000006], bh ; call dword [0x00000010] ; 
0x000a05ef: add byte [eax+0x00000006], bh ; ret  ; 
0x000a05ff: add byte [eax+0x00000007], bh ; ret  ; 
0x000b1b1d: add byte [eax+0x00000020], bh ; ret  ; 
0x000de4d2: add byte [eax+0x00000036], bh ; call dword [0x00000010] ; 
0x000e8b25: add byte [eax+0x00000075], bh ; call dword [0x00000010] ; 
0x0003d099: add byte [eax+0x0000007E], bh ; call dword [0x00000010] ; 
0x0002c1c7: add byte [eax+0x000000B3], bh ; call dword [0x00000010] ; 
0x000b07a8: add byte [eax+0x000000BE], bh ; int 0x80 ; 
0x000f3b34: add byte [eax+0x000000F0], bh ; call dword [0x00000010] ; 
0x000b2164: add byte [eax+0x0000010A], bh ; call dword [0x00000010] ; 
0x000e7279: add byte [eax+0x0000013F], bh ; call dword [0x00000010] ; 
0x0000044c: add byte [eax+0x00], al ; retn 0x3E00 ; 
0x0011b3a5: add byte [eax+0x05], 0xFFFFFFFB ; call dword [eax-0x73] ; 
0x00156e7f: add byte [eax+0x0A], dh ; call dword [eax-0x4F000CF6] ; 
0x00189aa7: add byte [eax+0x1C], bh ; call dword [eax+eax+0x00] ; 
0x0018d9bf: add byte [eax+0x23], al ; jmp dword [esi] ; 
0x0018a0ef: add byte [eax+0x25], ah ; call esp ; 
0x001a704f: add byte [eax+0x2C0003BE], cl ; ret  ; 
0x001873f7: add byte [eax+0x34000000], dh ; retn 0x0001 ; 
0x00090857: add byte [eax+0x440FF0E5], al ; retn 0x6FE9 ; 
0x0018b4ff: add byte [eax+0x4B], ah ; call dword [eax+eax+0x41000000] ; 
0x0010f659: add byte [eax+0x52], dl ; call dword [ecx+0x0C] ; 
0x000629c8: add byte [eax+0x53], dl ; call dword [edx+0x18] ; 
0x00064c6f: add byte [eax+0x57], dl ; call ebx ; 
0x0018bbef: add byte [eax+0x58], dh ; jmp dword [eax] ; 
0x0018bd2f: add byte [eax+0x59], dh ; call ebp ; 
0x0008817f: add byte [eax+0x5B5E5F17], cl ; ret  ; 
0x001666a7: add byte [eax+eax*2], ah ; call dword [esp+ecx*2+0x01] ; 
0x0019baa3: add byte [eax+eax*4-0x0B], bh ; jmp dword [0x00000000] ; 
0x00167d2f: add byte [eax+eax*8-0x0B], dl ; jmp dword [eax-0x75] ; 
0x001652a7: add byte [eax+eax*8-0x15], dh ; jmp dword [edi+edi*2+0x00] ; 
0x0016529f: add byte [eax+eax*8-0x15], dl ; call dword [eax+0x7F] ; 
0x00184afb: add byte [eax+eax*8], ah ; jmp dword [edi] ; 
0x0016a4f7: add byte [eax+eax-0x05], dh ; call eax ; 
0x000d7a66: add byte [eax+eax], 0xFFFFFF81 ; ret  ; 
0x00166827: add byte [eax+ebp*2-0x10], dh ; jmp esp ; 
0x0016659f: add byte [eax+ebp-0x10], dh ; call dword [eax] ; 
0x0018bc03: add byte [eax+ebx*2-0x0E], bh ; jmp dword [eax+eax] ; 
0x0016aa3f: add byte [eax+ebx*4-0x05], dh ; call dword [edi+ebx*2+0x04] ; 
0x0016856f: add byte [eax+ebx*4-0x09], dl ; jmp dword [ecx+edi*8+0x02] ; 
0x00184a63: add byte [eax+ebx*4-0x4007FFFF], bl ; jmp dword [edi] ; 
0x0016748f: add byte [eax+ebx*4], al ; call dword [esi+0x02] ; 
0x0016a2cf: add byte [eax+ebx*8-0x06], dl ; jmp dword [eax+0x1B] ; 
0x001697a7: add byte [eax+ecx*2-0x07], dh ; call dword [eax] ; 
0x00167c2f: add byte [eax+ecx*4-0x0B], dl ; jmp dword [eax] ; 
0x0016700f: add byte [eax+ecx*4-0x0F], ah ; call dword [eax] ; 
0x0019e7eb: add byte [eax+ecx*8-0x0B], ah ; jmp dword [ebx] ; 
0x001a3bc3: add byte [eax+edi*2-0x0A], bh ; call esp ; 
0x0017da8b: add byte [eax+edi*2-0x11], ah ; call dword [eax+eax+0x00] ; 
0x0016691f: add byte [eax+edi*2], ah ; call esp ; 
0x00191953: add byte [eax+edi-0x0C], bl ; jmp dword [esi] ; 
0x0018dc9b: add byte [eax+edi-0x0D], dl ; jmp dword [ecx+eax] ; 
0x00166eff: add byte [eax+edx*2-0x0F], ah ; call dword [eax] ; 
0x00166707: add byte [eax+edx*2-0x10], al ; jmp dword [eax+0x51] ; 
0x00188443: add byte [eax+edx*4-0x0F], bh ; call ecx ; 
0x0016f94b: add byte [eax+edx*8-0x15], dh ; jmp dword [eax+eax] ; 
0x00165faf: add byte [eax+esi*2-0x11], ah ; jmp eax ; 
0x0016873f: add byte [eax+esi*4-0x09], ah ; call dword [eax+0x05] ; 
0x00166127: add byte [eax+esi*4-0x11], dh ; jmp dword [ebx+edx+0x01] ; 
0x00174063: add byte [eax+esi-0x13], bl ; jmp dword [0x00000000] ; 
0x0002c9ab: add byte [eax-0x00000001], bh ; ret  ; 
0x000458e9: add byte [eax-0x0000AB43], al ; jmp dword [edi-0x75] ; 
0x00044e9b: add byte [eax-0x0000AB43], al ; jmp dword [esi+0x0F] ; 
0x00030df7: add byte [eax-0x0001F117], al ; jmp dword [esi-0x70] ; 
0x0004082f: add byte [eax-0x00043F43], al ; call dword [ebx+0x0F] ; 
0x00043563: add byte [eax-0x00047B43], al ; call dword [ebx+0x0F] ; 
0x00106c0b: add byte [eax-0x01], bl ; call dword [esp+0x2C] ; 
0x0018cbdf: add byte [eax-0x02], ah ; call dword [ecx+0x00000000] ; 
0x001641e4: add byte [eax-0x04], bh ; jmp dword [eax+0x50FFFC78] ; 
0x00163e78: add byte [eax-0x04], bl ; call eax ; 
0x00169667: add byte [eax-0x07], dl ; jmp dword [eax+0x7E] ; 
0x00168ba7: add byte [eax-0x08], dh ; jmp eax ; 
0x00169277: add byte [eax-0x08], dl ; call dword [0xE0940003] ; 
0x0016898f: add byte [eax-0x09], al ; jmp esp ; 
0x00167cd7: add byte [eax-0x0B], al ; call esp ; 
0x00092a88: add byte [eax-0x0C], 0xFFFFFFFF ; call dword [eax-0x01] ; 
0x0002888e: add byte [eax-0x0C], 0xFFFFFFFF ; call dword [eax-0x75] ; 
0x0018feaf: add byte [eax-0x0C], al ; jmp dword [esp+ecx] ; 
0x0017f3bb: add byte [eax-0x11], al ; jmp dword [edi] ; 
0x0017f483: add byte [eax-0x11], bh ; jmp dword [ebx] ; 
0x0017f403: add byte [eax-0x11], bl ; call dword [0x00000000] ; 
0x00166357: add byte [eax-0x11], dl ; call dword [esi-0x1F0BFFFF] ; 
0x0005d29f: add byte [eax-0x14BFF3B2], al ; retn 0x768D ; 
0x00173003: add byte [eax-0x14], cl ; jmp dword [ebp+0x00] ; 
0x00104f30: add byte [eax-0x158B7F80], 0xFFFFFF89 ; ret  ; 
0x000f0f7a: add byte [eax-0x158B7F80], 0xFFFFFF89 ; retn 0xEAC1 ; 
0x0009a796: add byte [eax-0x18], dl ; ret  ; 
0x000fb9d7: add byte [eax-0x18], dl ; retn 0x0028 ; 
0x0016b46f: add byte [eax-0x23FFFFFE], ch ; retn 0xFFEA ; 
0x001848f7: add byte [eax-0x43], bl ; call dword [edx] ; 
0x00184d57: add byte [eax-0x5BFFFE65], dl ; ret  ; 
0x0016ef67: add byte [eax-0x6BFFFFC3], ah ; retn 0xFFEB ; 
0x0018c387: add byte [eax-0x70], bh ; call dword [esi] ; 
0x000d7cba: add byte [eax-0x76D00088], al ; retn 0x0D74 ; 
0x000e57ef: add byte [eax-0x76D00088], al ; retn 0x0E74 ; 
0x000d1ace: add byte [eax-0x76FCBC73], dl ; retn 0x4489 ; 
0x0003bb8a: add byte [eax-0x77], dl ; ret  ; 
0x000c661c: add byte [eax-0x7AF10000], al ; retn 0xFFFE ; 
0x000b3d36: add byte [eax-0x7C3E76F6], cl ; retn 0x8001 ; 
0x000c12ce: add byte [eax-0x7CFBB975], dl ; ret  ; 
0x0001c829: add byte [eax-0x7CFBECBC], cl ; retn 0x8B01 ; 
0x001147c8: add byte [eax-0x7CFEA9BC], cl ; retn 0x3901 ; 
0x00006cdb: add byte [eax], ah ; ret  ; 
0x0000c30b: add byte [eax], ah ; retn 0x0010 ; 
0x000178fc: add byte [eax], al ; call dword [0x00000010] ; 
0x0010a6a7: add byte [eax], al ; call dword [eax+0x08] ; 
0x001096b7: add byte [eax], al ; call dword [eax+0x10] ; 
0x00119fc4: add byte [eax], al ; call dword [eax+0x14] ; 
0x000471d1: add byte [eax], al ; call dword [eax+ecx*4] ; 
0x00119f95: add byte [eax], al ; call dword [eax] ; 
0x0011a5ae: add byte [eax], al ; call dword [ebx-0x00000CCC] ; 
0x0011a566: add byte [eax], al ; call dword [ebx-0x00000CD0] ; 
0x0011a506: add byte [eax], al ; call dword [ebx-0x00000CD4] ; 
0x0011a4a2: add byte [eax], al ; call dword [ebx-0x00000CD8] ; 
0x0004a19e: add byte [eax], al ; call dword [edx+eax*4] ; 
0x0011d1a0: add byte [eax], al ; call dword [esi+0x000001F0] ; 
0x00109a06: add byte [eax], al ; call dword [esp+0x0000296C] ; 
0x00106c69: add byte [eax], al ; call dword [esp+0x2C] ; 
0x00106fa1: add byte [eax], al ; call dword [esp+0x3C] ; 
0x00106e45: add byte [eax], al ; call dword [esp+0x48] ; 
0x0001865c: add byte [eax], al ; call eax ; 
0x0014ec6e: add byte [eax], al ; call ebp ; 
0x0011d37e: add byte [eax], al ; call ecx ; 
0x00020cc4: add byte [eax], al ; call edi ; 
0x0002e967: add byte [eax], al ; call edx ; 
0x00020d6c: add byte [eax], al ; call esi ; 
0x0014e4ce: add byte [eax], al ; call esp ; 
0x0002bf33: add byte [eax], al ; int 0x80 ; 
0x0003ebf0: add byte [eax], al ; jmp dword [0x000FFFFF] ; 
0x000176a4: add byte [eax], al ; jmp dword [ebx+0x00000008] ; 
0x000176ae: add byte [eax], al ; jmp dword [ebx+0x0000000C] ; 
0x0004260c: add byte [eax], al ; jmp eax ; 
0x0001837a: add byte [eax], al ; rep ret  ; 
0x00001056: add byte [eax], al ; ret  ; 
0x00000b0e: add byte [eax], al ; retn 0x0000 ; 
0x00000ce6: add byte [eax], al ; retn 0x0001 ; 
0x00000eae: add byte [eax], al ; retn 0x0002 ; 
0x0014fac2: add byte [eax], al ; retn 0x0003 ; 
0x00001202: add byte [eax], al ; retn 0x0004 ; 
0x0014fec2: add byte [eax], al ; retn 0x0005 ; 
0x0014b9c6: add byte [eax], al ; retn 0x0006 ; 
0x001502c2: add byte [eax], al ; retn 0x0007 ; 
0x001504c2: add byte [eax], al ; retn 0x0008 ; 
0x001506c2: add byte [eax], al ; retn 0x0009 ; 
0x0000709a: add byte [eax], al ; retn 0x000A ; 
0x0014c21e: add byte [eax], al ; retn 0x000D ; 
0x0014c61e: add byte [eax], al ; retn 0x0010 ; 
0x0014d2f6: add byte [eax], al ; retn 0x0024 ; 
0x0014d7e6: add byte [eax], al ; retn 0x0033 ; 
0x0014e2ee: add byte [eax], al ; retn 0x01D4 ; 
0x0014ea86: add byte [eax], al ; retn 0x01D5 ; 
0x0000098d: add byte [eax], al ; retn 0x1010 ; 
0x00184c6f: add byte [eax], al ; retn 0xFFF0 ; 
0x001774ff: add byte [eax], bh ; ret  ; 
0x0012df8f: add byte [eax], bh ; retn 0x840F ; 
0x00184cf7: add byte [eax], bl ; ret  ; 
0x00157114: add byte [eax], ch ; call dword [eax] ; 
0x001974ef: add byte [eax], ch ; ret  ; 
0x001973ef: add byte [eax], ch ; retn 0x0002 ; 
0x001774cf: add byte [eax], cl ; ret  ; 
0x00006f7b: add byte [eax], dh ; ret  ; 
0x00156f38: add byte [eax], dl ; jmp dword [eax] ; 
0x000b1b08: add byte [ebp+0x13], dh ; rep ret  ; 
0x000ce5b8: add byte [ebp+0x391D74C0], al ; ret  ; 
0x00040fb5: add byte [ebp+0x440FFE42], cl ; retn 0x8589 ; 
0x000e32cd: add byte [ebp+0x480F370C], cl ; retn 0xF589 ; 
0x0006a824: add byte [ebp+0x520C2454], cl ; call eax ; 
0x0005f813: add byte [ebp+0x521C2454], cl ; call eax ; 
0x0003ab14: add byte [ebp+0x52202454], cl ; call eax ; 
0x00044794: add byte [ebp+0x52242454], cl ; call eax ; 
0x0005fb10: add byte [ebp+0x522C2454], cl ; call eax ; 
0x001201e3: add byte [ebp+0x551C246C], cl ; call eax ; 
0x001127ea: add byte [ebp+0x57], dl ; call dword [eax+0x08] ; 
0x0009108f: add byte [ebp+0x5E5B0442], cl ; ret  ; 
0x0009109f: add byte [ebp+0x5E5B0842], cl ; ret  ; 
0x000910af: add byte [ebp+0x5E5B0C42], cl ; ret  ; 
0x0001ab7d: add byte [ebp+0x6B1D74D2], al ; retn 0x8B3C ; 
0x00168ec7: add byte [ebp+eax*2-0x08], al ; jmp dword [ebx+edi] ; 
0x0018f77b: add byte [ebp+eax*2-0x3AFFFFFE], dh ; jmp dword [esi] ; 
0x0018f753: add byte [ebp+eax*2-0x3B37FFFE], cl ; jmp dword [eax+eax] ; 
0x001684bf: add byte [ebp+eax*4-0x09], al ; jmp dword [eax] ; 
0x00166f97: add byte [ebp+eax*4-0x0F], dh ; call esp ; 
0x0018f7eb: add byte [ebp+eax*8-0x0D], al ; jmp dword [eax+eax] ; 
0x0018b75b: add byte [ebp+eax+0x50B00002], dl ; call esp ; 
0x00166c47: add byte [ebp+eax-0x0F], dl ; jmp eax ; 
0x00189f63: add byte [ebp+ebp*8+0x23880001], bl ; jmp dword [edi+0x00] ; 
0x0017087b: add byte [ebp+ebp*8-0x15], dl ; jmp dword [ebx+0x00000000] ; 
0x0016bdd3: add byte [ebp+ebp*8-0x16], ch ; call dword [ebx+0x00000000] ; 
0x0018423b: add byte [ebp+ebp-0x05], al ; call edx ; 
0x00168d57: add byte [ebp+ebp-0x08], al ; jmp dword [eax+esi] ; 
0x0019118b: add byte [ebp+ebp-0x0C], ah ; jmp dword [ebp+0x00000000] ; 
0x001665ef: add byte [ebp+ebp-0x10], ah ; call dword [0x2DA40001+eax*2] ; 
0x00169ebf: add byte [ebp+ebx*2-0x06], al ; call dword [eax-0x18] ; 
0x0016841f: add byte [ebp+ebx*2-0x09], dh ; call dword [edi] ; 
0x00167cbf: add byte [ebp+ebx*4-0x0B], al ; jmp dword [esp+eax*4-0x622BFFFE] ; 
0x00184f73: add byte [ebp+ebx*4-0x3977FFFF], ch ; jmp edi ; 
0x0019ed8b: add byte [ebp+ebx*8-0x0B], dh ; call dword [edx] ; 
0x00169c57: add byte [ebp+ebx-0x06], al ; call dword [eax-0x37] ; 
0x0016aa1f: add byte [ebp+ecx*4-0x05], dh ; jmp dword [0x8EC40004+ebx*2] ; 
0x00167897: add byte [ebp+ecx*4-0x0C], dl ; jmp esp ; 
0x0017e383: add byte [ebp+ecx*4-0x11], bh ; call dword [eax+eax+0x00] ; 
0x0017e363: add byte [ebp+ecx*4-0x11], ch ; jmp dword [edx] ; 
0x0016e5e3: add byte [ebp+ecx*4-0x15], bh ; call dword [0x41000000+edx] ; 
0x00183f53: add byte [ebp+ecx*4-0x44E7FFFF], cl ; call dword [ebx+eax+0x03000000] ; 
0x001817c3: add byte [ebp+ecx*8-0x11], cl ; call dword [edi+0x00] ; 
0x00167f3f: add byte [ebp+edi*2-0x0A], dl ; jmp eax ; 
0x001a6b0b: add byte [ebp+edi*4-0x0A], dl ; jmp dword [eax] ; 
0x00169467: add byte [ebp+edi*8-0x08], dh ; call esp ; 
0x001980ab: add byte [ebp+edi*8-0x0C], ah ; jmp dword [ebp+0x00] ; 
0x001663e7: add byte [ebp+edi*8-0x11], dl ; jmp dword [eax] ; 
0x0016a817: add byte [ebp+edx*2-0x05], dl ; call dword [eax] ; 
0x0016733f: add byte [ebp+edx*8-0x0E], ah ; call dword [ebp+eax-0x2A5BFFFE] ; 
0x001662cf: add byte [ebp+edx*8-0x11], dl ; jmp dword [eax] ; 
0x00194d6b: add byte [ebp+esi*8-0x08], ah ; call dword [edi+0x00000000] ; 
0x0018e74b: add byte [ebp+esi+0x7AC00002], al ; call dword [esi+eax+0x41000000] ; 
0x0018a98b: add byte [ebp+esi-0x0E], al ; call dword [ebx+0x02] ; 
0x000cfd3e: add byte [ebp-0x0000AF7B], cl ; call dword [eax-0x73] ; 
0x000b3c04: add byte [ebp-0x0000F37B], cl ; call dword [eax-0x77] ; 
0x000d1015: add byte [ebp-0x050A677B], cl ; call dword [eax-0x73] ; 
0x00090957: add byte [ebp-0x05147779], cl ; call dword [eax-0x73] ; 
0x0007b16f: add byte [ebp-0x0515D379], cl ; call dword [eax-0x73] ; 
0x000179ba: add byte [ebp-0x0517C770], cl ; call dword [edx-0x73] ; 
0x0005bd09: add byte [ebp-0x0528BB7D], cl ; call dword [eax-0x73] ; 
0x0001931f: add byte [ebp-0x0532277D], cl ; call dword [eax-0x73] ; 
0x00103d0e: add byte [ebp-0x0538E77D], cl ; call dword [eax-0x18] ; 
0x00067391: add byte [ebp-0x053F814D], cl ; call dword [eax+0x0026B48D] ; 
0x000e587f: add byte [ebp-0x054A3261], cl ; jmp dword [ebp-0x01] ; 
0x000e1ea6: add byte [ebp-0x054ACA7D], cl ; call dword [eax-0x73] ; 
0x000d6d02: add byte [ebp-0x054C7B7D], cl ; call dword [eax-0x18] ; 
0x0011014f: add byte [ebp-0x054CD47D], cl ; call dword [esi-0x01] ; 
0x000bc175: add byte [ebp-0x054F617D], cl ; call dword [eax-0x73] ; 
0x000caa58: add byte [ebp-0x054F9D80], cl ; call dword [eax-0x18] ; 
0x000b35d5: add byte [ebp-0x054FA47D], cl ; call dword [eax-0x73] ; 
0x000b5e25: add byte [ebp-0x054FAD7D], cl ; call dword [eax-0x73] ; 
0x000fd636: add byte [ebp-0x054FB27D], cl ; call dword [eax-0x18] ; 
0x000a3d06: add byte [ebp-0x0551E67D], cl ; call dword [eax-0x18] ; 
0x0009061f: add byte [ebp-0x0553BA7A], cl ; call dword [eax-0x73] ; 
0x00040be8: add byte [ebp-0x0565CF79], cl ; call dword [eax-0x73] ; 
0x000443d6: add byte [ebp-0x0565CF7D], cl ; call dword [eax-0x73] ; 
0x0003b39c: add byte [ebp-0x0566457F], cl ; call dword [eax-0x73] ; 
0x00093f02: add byte [ebp-0x05666C7D], cl ; call dword [eax-0x73] ; 
0x000241fd: add byte [ebp-0x056A7780], cl ; call dword [eax-0x18] ; 
0x0001bd22: add byte [ebp-0x056B6A79], cl ; call dword [eax-0x73] ; 
0x0001c558: add byte [ebp-0x056B6A7A], cl ; call dword [eax-0x73] ; 
0x0001debc: add byte [ebp-0x056B6A7D], cl ; call dword [eax-0x73] ; 
0x00020912: add byte [ebp-0x056B6A7F], cl ; call dword [eax-0x73] ; 
0x0016a3af: add byte [ebp-0x06], dl ; jmp dword [eax+0x21] ; 
0x0016833f: add byte [ebp-0x09], dh ; jmp eax ; 
0x0007227f: add byte [ebp-0x0CF38740], al ; ret  ; 
0x000b1ca3: add byte [ebp-0x0CF78737], al ; ret  ; 
0x001950e3: add byte [ebp-0x0C], cl ; call dword [edi+0x00000000] ; 
0x00165f27: add byte [ebp-0x11], al ; call dword [esi+edi*8] ; 
0x000a21d4: add byte [ebp-0x17EFDBBC], cl ; retn 0xFFFA ; 
0x0010e856: add byte [ebp-0x18], dl ; ret  ; 
0x00021893: add byte [ebp-0x19081F7E], cl ; call dword [eax-0x01] ; 
0x000b1b5a: add byte [ebp-0x3F], dh ; rep ret  ; 
0x000dfe43: add byte [ebp-0x76F3DBB4], cl ; retn 0xFF65 ; 
0x00091277: add byte [ebp-0x7C218B37], al ; retn 0x8B04 ; 
0x000c2a08: add byte [ebp-0x7CA7DBA4], cl ; retn 0x8904 ; 
0x00081f3f: add byte [ebp-0x7CC78A40], al ; ret  ; 
0x000473b3: add byte [ebp-0x7CFFD98C], cl ; ret  ; 
0x000984c3: add byte [ebp-0x7CFFD98C], cl ; retn 0x8301 ; 
0x000d1523: add byte [ebp-0x7CFFD98C], cl ; retn 0x8D01 ; 
0x0002d910: add byte [ebx+0x0104245C], cl ; ret  ; 
0x00180262: add byte [ebx+0x01137900], al ; ret  ; 
0x000a66df: add byte [ebx+0x01142474], cl ; retn 0x048D ; 
0x000d4d98: add byte [ebx+0x027602FA], al ; rep ret  ; 
0x000aeba7: add byte [ebx+0x03C604EC], al ; call dword [esi-0x01] ; 
0x0000c307: add byte [ebx+0x20000051], bl ; retn 0x0010 ; 
0x0001d351: add byte [ebx+0x29242454], cl ; retn 0x038B ; 
0x0001c328: add byte [ebx+0x29F28907], cl ; retn 0xFA83 ; 
0x000a75ab: add byte [ebx+0x390C2444], cl ; ret  ; 
0x00079acb: add byte [ebx+0x3920245C], cl ; ret  ; 
0x0003b946: add byte [ebx+0x40C601C0], al ; jmp dword [eax] ; 
0x000ee1a6: add byte [ebx+0x42C601C2], al ; jmp dword [eax] ; 
0x000b4b59: add byte [ebx+0x440F01C0], al ; retn 0xE289 ; 
0x0011c3ad: add byte [ebx+0x440FFFF8], al ; retn 0x8D8D ; 
0x000733b0: add byte [ebx+0x440FFFF8], al ; retn 0xC483 ; 
0x00065758: add byte [ebx+0x450F40E0], al ; retn 0xEC83 ; 
0x000a1826: add byte [ebx+0x470F3BF8], al ; ret  ; 
0x0010fc47: add byte [ebx+0x4F0F10F8], al ; retn 0x5057 ; 
0x00112f8a: add byte [ebx+0x50510850], cl ; call dword [edx+0x0C] ; 
0x001115b1: add byte [ebx+0x50532050], cl ; call dword [edx+0x08] ; 
0x00111032: add byte [ebx+0x50552048], cl ; call dword [ecx+0x04] ; 
0x0010dcba: add byte [ebx+0x50562050], cl ; call dword [edx+0x04] ; 
0x0010dea4: add byte [ebx+0x50572050], cl ; call dword [edx+0x08] ; 
0x0011d106: add byte [ebx+0x515308EC], al ; call dword [edx+0x04] ; 
0x0011d09f: add byte [ebx+0x525108EC], al ; call dword [ebx] ; 
0x000741e8: add byte [ebx+0x565508EC], al ; call eax ; 
0x0002d86b: add byte [ebx+0x57], dl ; call ebp ; 
0x0008bb27: add byte [ebx+0x5E082444], cl ; ret  ; 
0x0007dc66: add byte [ebx+0x5E5B02C0], al ; ret  ; 
0x0006839a: add byte [ebx+0x5E5B04C4], al ; ret  ; 
0x0006264f: add byte [ebx+0x5E5B14C4], al ; ret  ; 
0x0002c5fe: add byte [ebx+0x5E], bl ; ret  ; 
0x00141ccf: add byte [ebx+0x5F0C2444], cl ; ret  ; 
0x0002d095: add byte [ebx+0x5F], bl ; ret  ; 
0x000dfbef: add byte [ebx+0x65082454], cl ; call dword [0x00000010] ; 
0x0002c18a: add byte [ebx+0x6508245C], cl ; call dword [0x00000010] ; 
0x000d5818: add byte [ebx+0x650C2454], cl ; call dword [0x00000010] ; 
0x000ab2de: add byte [ebx+0x6510244C], cl ; call dword [0x00000010] ; 
0x0002a8b3: add byte [ebx+0x6510245C], cl ; call dword [0x00000010] ; 
0x000e8ea2: add byte [ebx+0x6510247C], cl ; call dword [0x00000010] ; 
0x000f42e4: add byte [ebx+0x6514244C], cl ; call dword [0x00000010] ; 
0x000d6a25: add byte [ebx+0x6514245C], cl ; call dword [0x00000010] ; 
0x000f43d3: add byte [ebx+0x651C2474], cl ; call dword [0x00000010] ; 
0x000e1353: add byte [ebx+0x6520244C], cl ; call dword [0x00000010] ; 
0x000adb20: add byte [ebx+0x6530245C], cl ; call dword [0x00000010] ; 
0x000e2b20: add byte [ebx+0x65742454], cl ; call dword [0x00000010] ; 
0x000d5043: add byte [ebx+0x6574245C], cl ; call dword [0x00000010] ; 
0x000e51e1: add byte [ebx+0x65CA2909], cl ; call dword [0x00000010] ; 
0x00060634: add byte [ebx+0x6A5720C4], al ; call dword [edi+0x56] ; 
0x00166f37: add byte [ebx+eax*4-0x0F], ah ; call dword [ebx] ; 
0x0016e3b3: add byte [ebx+eax*4-0x15], bl ; jmp dword [ecx+0x00000008] ; 
0x0016697f: add byte [ebx+eax*4], al ; jmp esp ; 
0x00169a3f: add byte [ebx+eax*8-0x07], dl ; jmp eax ; 
0x001694c7: add byte [ebx+eax-0x07], ah ; jmp esp ; 
0x00168177: add byte [ebx+eax-0x09], al ; jmp dword [edx+ecx*8+0x02] ; 
0x001986cb: add byte [ebx+eax-0x0B], dh ; jmp dword [edi] ; 
0x0016682f: add byte [ebx+ebp*2], dh ; call dword [eax+0x5B] ; 
0x00167937: add byte [ebx+ebp*4-0x0C], dl ; call dword [eax-0x2BFFFD9D] ; 
0x0016a3ff: add byte [ebx+ebp*8-0x06], dh ; jmp eax ; 
0x00167677: add byte [ebx+ebp*8], dh ; jmp dword [esi+edi] ; 
0x000abeb2: add byte [ebx+ebp-0x77], dh ; ret  ; 
0x001674a7: add byte [ebx+ebx*4], al ; call dword [eax] ; 
0x00169c47: add byte [ebx+ebx-0x06], dl ; jmp dword [eax+ecx*8] ; 
0x001a028b: add byte [ebx+ebx-0x0A], ah ; call dword [edi+0x00] ; 
0x001651a7: add byte [ebx+ecx*2-0x15], al ; jmp dword [eax+0x6B] ; 
0x0018b4db: add byte [ebx+ecx*2], ah ; call dword [ecx+0x00] ; 
0x00167147: add byte [ebx+ecx*2], al ; call eax ; 
0x00168887: add byte [ebx+ecx*8-0x09], dl ; jmp dword [esi+ecx-0x324BFFFD] ; 
0x00167607: add byte [ebx+ecx*8-0x0D], dl ; call esp ; 
0x00166457: add byte [ebx+ecx], dl ; call esp ; 
0x0016abf7: add byte [ebx+edi*4-0x05], al ; call eax ; 
0x00168a67: add byte [ebx+edi*8-0x09], dl ; call dword [eax+0x7400031E] ; 
0x00197dc3: add byte [ebx+edi*8-0x0C], cl ; jmp dword [eax] ; 
0x00197deb: add byte [ebx+edi*8-0x0C], dh ; jmp dword [esi] ; 
0x0016538f: add byte [ebx+edi*8-0x15], dh ; call dword [eax-0x3BFFFF75] ; 
0x00166bcf: add byte [ebx+edi*8], al ; call dword [edi+eax*4-0x034BFFFF] ; 
0x00191dfb: add byte [ebx+edi-0x0C], dh ; call dword [ecx+0x00] ; 
0x0018ba6b: add byte [ebx+edx*2], al ; jmp dword [ebp+0x00000004] ; 
0x001672ff: add byte [ebx+edx*8-0x0E], ah ; call dword [esp+eax] ; 
0x001a9d93: add byte [ebx+edx-0x09], ch ; jmp dword [ebx+0x02] ; 
0x00079dea: add byte [ebx+edx-0x7D], dh ; retn 0x8301 ; 
0x00167997: add byte [ebx+esi*4-0x0C], dl ; call dword [esi-0x4C3BFFFE] ; 
0x0007835f: add byte [ebx-0x00007775], cl ; jmp dword [ebp-0x75] ; 
0x00078438: add byte [ebx-0x0000777D], cl ; jmp dword [ebp-0x75] ; 
0x00025369: add byte [ebx-0x00007780], cl ; jmp dword [ebp+0x03] ; 
0x001020e3: add byte [ebx-0x00008373], cl ; jmp dword [ebp-0x7D] ; 
0x001020b6: add byte [ebx-0x00008B63], cl ; jmp dword [ebp-0x01] ; 
0x00025349: add byte [ebx-0x0000A380], cl ; jmp dword [ebp+0x03] ; 
0x000d8556: add byte [ebx-0x0000B363], cl ; jmp dword [ebp-0x01] ; 
0x000d97b6: add byte [ebx-0x0000C363], cl ; jmp dword [ebp-0x01] ; 
0x0002417f: add byte [ebx-0x0000CB7B], cl ; jmp dword [ebp-0x75] ; 
0x000cf744: add byte [ebx-0x0000D363], cl ; jmp dword [ebp-0x01] ; 
0x000d9ca7: add byte [ebx-0x0000D741], cl ; jmp dword [ebp-0x75] ; 
0x0011a0d1: add byte [ebx-0x0000D748], cl ; call dword [eax+0x0026B48D] ; 
0x000db62f: add byte [ebx-0x0000D74A], cl ; jmp dword [ebp-0x75] ; 
0x0010532f: add byte [ebx-0x0000D74D], cl ; jmp dword [ebp-0x5F] ; 
0x00119bb4: add byte [ebx-0x0000D750], cl ; jmp dword [ebp-0x75] ; 
0x000edc56: add byte [ebx-0x0000D765], cl ; jmp dword [ebp-0x75] ; 
0x0012167f: add byte [ebx-0x0000D76A], cl ; jmp dword [ebp-0x75] ; 
0x000f5eaf: add byte [ebx-0x0000D76D], cl ; jmp dword [ebp-0x75] ; 
0x0005bae6: add byte [ebx-0x0000D779], cl ; jmp dword [ebp-0x75] ; 
0x0005f8f9: add byte [ebx-0x0000D77A], cl ; jmp dword [ebp-0x75] ; 
0x0002f5af: add byte [ebx-0x0000D77B], cl ; jmp dword [ebp-0x75] ; 
0x000fe044: add byte [ebx-0x0000D77D], cl ; jmp dword [ebp+0x03] ; 
0x000190bf: add byte [ebx-0x0000D77D], cl ; jmp dword [ebp-0x75] ; 
0x0002c8d6: add byte [ebx-0x0000D77E], cl ; jmp dword [ebp-0x75] ; 
0x00069507: add byte [ebx-0x0000D77F], cl ; jmp dword [ebp-0x75] ; 
0x00018989: add byte [ebx-0x0000D780], cl ; jmp dword [ebp+0x03] ; 
0x0002c806: add byte [ebx-0x0000D780], cl ; jmp dword [ebp-0x75] ; 
0x000f7c19: add byte [ebx-0x0000DF80], cl ; jmp dword [ebp+0x03] ; 
0x000b3ebe: add byte [ebx-0x0000FB7B], cl ; jmp dword [ebp-0x75] ; 
0x000c6377: add byte [ebx-0x00010B6B], cl ; jmp dword [ebp-0x75] ; 
0x00104b8c: add byte [ebx-0x00010B75], cl ; jmp dword [ebp-0x75] ; 
0x000b6ff6: add byte [ebx-0x00010B7B], cl ; jmp dword [ebp-0x75] ; 
0x000c3429: add byte [ebx-0x00010B7D], cl ; jmp dword [ebp-0x75] ; 
0x00025329: add byte [ebx-0x00010B80], cl ; jmp dword [ebp+0x03] ; 
0x000ea9df: add byte [ebx-0x00010B80], cl ; jmp dword [ebp-0x75] ; 
0x0004b24f: add byte [ebx-0x00012F79], cl ; jmp dword [ebp-0x75] ; 
0x00136f5b: add byte [ebx-0x00012F7D], cl ; jmp dword [ebp+0x03] ; 
0x0002f09f: add byte [ebx-0x00012F7D], cl ; jmp dword [ebp-0x75] ; 
0x0011d6d9: add byte [ebx-0x00014780], cl ; jmp dword [ebp+0x03] ; 
0x0007e2e6: add byte [ebx-0x0001537D], cl ; jmp dword [ebp-0x75] ; 
0x00070dfb: add byte [ebx-0x00015779], cl ; jmp dword [ebp-0x75] ; 
0x00070f21: add byte [ebx-0x0001577A], cl ; jmp dword [ebp-0x75] ; 
0x000708b6: add byte [ebx-0x0001577D], cl ; jmp dword [ebp-0x75] ; 
0x000fc474: add byte [ebx-0x0001837B], cl ; jmp dword [ebp-0x75] ; 
0x0002361e: add byte [ebx-0x0001D763], cl ; jmp dword [ebp-0x01] ; 
0x0005cb3f: add byte [ebx-0x00021B63], cl ; call dword [esi+0x6A] ; 
0x000e901d: add byte [ebx-0x0003C763], cl ; jmp dword [ebp-0x01] ; 
0x0004afb2: add byte [ebx-0x00046343], al ; call dword [ebx+0x0F] ; 
0x0004abd9: add byte [ebx-0x0004677B], cl ; jmp dword [ebp-0x75] ; 
0x00042850: add byte [ebx-0x00048F43], al ; call dword [eax] ; 
0x0004a40c: add byte [ebx-0x0004A763], cl ; call dword [eax+0x0026748D] ; 
0x0004055b: add byte [ebx-0x0004A763], cl ; jmp dword [ebp-0x5F] ; 
0x000555a0: add byte [ebx-0x0004AB63], cl ; jmp dword [ebp-0x75] ; 
0x000565e7: add byte [ebx-0x0004BF4B], cl ; jmp dword [0x00002100] ; 
0x000526f6: add byte [ebx-0x00058F63], cl ; call ecx ; 
0x0004d1fa: add byte [ebx-0x000FFB6B], cl ; call dword [esi-0x75] ; 
0x0004de1b: add byte [ebx-0x000FFB73], cl ; call dword [eax+0x0F] ; 
0x0004d4a1: add byte [ebx-0x000FFB73], cl ; call dword [eax-0x77] ; 
0x0004dbda: add byte [ebx-0x00102B43], al ; call dword [ebx+0x0F] ; 
0x0004d0e7: add byte [ebx-0x00103F43], al ; call dword [eax] ; 
0x00180010: add byte [ebx-0x06], bh ; jmp ebp ; 
0x0016a377: add byte [ebx-0x06], dl ; jmp dword [eax] ; 
0x001692cf: add byte [ebx-0x08], al ; call dword [esi+0x03] ; 
0x000ac4e1: add byte [ebx-0x0E7643A3], cl ; call dword [0x00000010] ; 
0x000ac3ee: add byte [ebx-0x0E76E314], al ; call dword [0x00000010] ; 
0x000ad543: add byte [ebx-0x0F76EF3C], al ; call eax ; 
0x00165f0f: add byte [ebx-0x11], dh ; jmp eax ; 
0x000a0bf4: add byte [ebx-0x16FBDBBC], cl ; retn 0xFFFE ; 
0x00064337: add byte [ebx-0x17A9F314], al ; call dword [ecx+0x00] ; 
0x000dd4d4: add byte [ebx-0x17CBDBA4], cl ; retn 0xFF6A ; 
0x000fe6ff: add byte [ebx-0x18], dl ; call dword [ebx] ; 
0x0005e3ff: add byte [ebx-0x18], dl ; call dword [esi] ; 
0x001129fe: add byte [ebx-0x18], dl ; call eax ; 
0x0000b997: add byte [ebx-0x1FFFFFF9], ch ; ret  ; 
0x0005c6a7: add byte [ebx-0x35D6FC26], al ; call dword [0x00000010] ; 
0x0003239f: add byte [ebx-0x41F0DBC4], cl ; ret  ; 
0x0003272f: add byte [ebx-0x41F0DBEC], cl ; ret  ; 
0x000905ee: add byte [ebx-0x50F0FE40], al ; retn 0x4BE9 ; 
0x000905dc: add byte [ebx-0x50F0FE40], al ; retn 0xAF0F ; 
0x000d23b5: add byte [ebx-0x6AF0FE02], al ; retn 0xB60F ; 
0x0000c297: add byte [ebx-0x6FFFFFB1], dl ; retn 0x0006 ; 
0x000fe2ba: add byte [ebx-0x71F0FF08], al ; retn 0x0003 ; 
0x0007df8e: add byte [ebx-0x764E14F9], cl ; retn 0xC031 ; 
0x00114b1e: add byte [ebx-0x76ACFC19], al ; ret  ; 
0x000198ee: add byte [ebx-0x76C7DB8C], cl ; ret  ; 
0x000da667: add byte [ebx-0x76D7DB84], cl ; retn 0xE283 ; 
0x0010371b: add byte [ebx-0x76EBDBBC], cl ; retn 0xDA29 ; 
0x00120f00: add byte [ebx-0x76EFDBAC], cl ; ret  ; 
0x0002736f: add byte [ebx-0x77], dl ; ret  ; 
0x00141914: add byte [ebx-0x79F0BF11], al ; retn 0x0001 ; 
0x00057067: add byte [ebx-0x7AF0CF01], al ; retn 0x0019 ; 
0x0005634c: add byte [ebx-0x7AF0D701], al ; retn 0x001B ; 
0x0007e6d7: add byte [ebx-0x7BF0F108], al ; call dword [eax] ; 
0x0013d824: add byte [ebx-0x7BF0FB03], al ; ret  ; 
0x00141d72: add byte [ebx-0x7BF0FC01], al ; retn 0x0000 ; 
0x0013d2c3: add byte [ebx-0x7BF0FF07], al ; ret  ; 
0x000c3bae: add byte [ebx-0x7C26FEF1], cl ; ret  ; 
0x0010690f: add byte [ebx-0x7CCFDBAC], cl ; retn 0x8302 ; 
0x000487de: add byte [ebx-0x7CDBDB8C], cl ; ret  ; 
0x00095cf5: add byte [ebx-0x7CE7DB8C], cl ; retn 0x83FF ; 
0x0001ced4: add byte [ebx-0x7CE7DBBC], cl ; retn 0xBF04 ; 
0x0002037d: add byte [ebx-0x7CE7DBBC], cl ; retn 0xC704 ; 
0x0009c50e: add byte [ebx-0x7CEB4184], cl ; ret  ; 
0x000989c5: add byte [ebx-0x7CEFDB8C], cl ; retn 0x83FF ; 
0x0006f332: add byte [ebx-0x7CEFDBBC], cl ; ret  ; 
0x0001d711: add byte [ebx-0x7CEFDBBC], cl ; retn 0xC704 ; 
0x000c2aa6: add byte [ebx-0x7CF3DBBC], cl ; ret  ; 
0x00037094: add byte [ebx-0x7CF7DBA4], cl ; retn 0x83FF ; 
0x000a30e3: add byte [ebx-0x7D], dh ; retn 0xEB01 ; 
0x000a8374: add byte [ebx-0x7EC7DBA4], cl ; ret  ; 
0x000d57ce: add byte [ebx-0x7FDFDBA4], cl ; int 0x80 ; 
0x000e7062: add byte [ebx-0x7F], bl ; ret  ; 
0x0019fc40: add byte [ebx], 0xFFFFFFF6 ; call dword [ebx] ; 
0x0018d670: add byte [ebx], bl ; call esi ; 
0x000f3f79: add byte [ecx+0x00000080], bh ; call dword [0x00000010] ; 
0x000b062d: add byte [ecx+0x00000081], bh ; call dword [0x00000010] ; 
0x000c48d9: add byte [ecx+0x010C2444], cl ; ret  ; 
0x0002d6a5: add byte [ecx+0x0114245C], cl ; retn 0xD189 ; 
0x00116972: add byte [ecx+0x0138245C], cl ; ret  ; 
0x000abde4: add byte [ecx+0x0A3C8BF3], cl ; call dword [0x00000010] ; 
0x000ffb31: add byte [ecx+0x113C8BF3], cl ; call dword [0x00000010] ; 
0x00115e02: add byte [ecx+0x1CC483D0], cl ; ret  ; 
0x0006b7ed: add byte [ecx+0x53], dl ; call dword [eax+0x18] ; 
0x00111016: add byte [ecx+0x55], dl ; call dword [eax+0x04] ; 
0x000881af: add byte [ecx+0x5B5E5F17], cl ; ret  ; 
0x001269b0: add byte [ecx+0x5B5E5FD0], cl ; ret  ; 
0x0008841e: add byte [ecx+0x5B5E5FF8], cl ; ret  ; 
0x000253d2: add byte [ecx+0x5E5B1814], cl ; ret  ; 
0x0007dcbd: add byte [ecx+0x5E5BFA70], cl ; ret  ; 
0x0005b6e0: add byte [ecx+0x5F5E5BD8], cl ; ret  ; 
0x000652ee: add byte [ecx+0x5F5E5BF0], cl ; ret  ; 
0x000448cb: add byte [ecx+0x5F5E5BF8], cl ; ret  ; 
0x0002c271: add byte [ecx+0x65D189F8], cl ; call dword [0x00000010] ; 
0x00017948: add byte [ecx+0x65E989F3], cl ; call dword [0x00000010] ; 
0x0001796c: add byte [ecx+0x65E989FB], cl ; call dword [0x00000010] ; 
0x000e975c: add byte [ecx+0x65F889C1], cl ; call dword [0x00000010] ; 
0x0011b4e5: add byte [ecx+0x65FA89E9], cl ; call dword [0x00000010] ; 
0x00169db7: add byte [ecx+eax*2-0x06], dh ; call dword [edx+ebx*8+0x03] ; 
0x00192163: add byte [ecx+eax*2-0x0C], bh ; jmp dword [eax] ; 
0x00166e57: add byte [ecx+eax*2-0x0F], al ; call dword [edx+ebx*4] ; 
0x0018f373: add byte [ecx+eax*2-0x5217FFFE], ch ; jmp dword [edi] ; 
0x0016afaf: add byte [ecx+eax*4-0x03], al ; call dword [eax+0x140001F4] ; 
0x00167857: add byte [ecx+eax*4-0x0C], al ; jmp dword [eax+0x24000254] ; 
0x0016696f: add byte [ecx+eax*4], dl ; jmp dword [eax] ; 
0x00167277: add byte [ecx+eax*8], al ; call dword [ebp+edi*8+0x01] ; 
0x001694b7: add byte [ecx+eax-0x07], al ; jmp dword [eax] ; 
0x0019847b: add byte [ecx+eax-0x0B], dl ; call dword [edx+0x00] ; 
0x001670bc: add byte [ecx+eax-0x0E6F3C00], ch ; call dword [esp+ebp*4+0x01] ; 
0x0016544f: add byte [ecx+eax-0x14], al ; jmp dword [eax+0x6400008E] ; 
0x0018c18b: add byte [ecx+ebp*2-0x0E], al ; call dword [esi] ; 
0x0016521f: add byte [ecx+ebp*2-0x15], ah ; call dword [eax+esi*2+0x00] ; 
0x0016ab2f: add byte [ecx+ebp*4-0x05], dl ; jmp eax ; 
0x0017ea93: add byte [ecx+ebp*4-0x11], cl ; jmp dword [eax+0x00] ; 
0x001659f7: add byte [ecx+ebp*4-0x14], dl ; call dword [ecx+edi*4-0x567C0000] ; 
0x0016b0e7: add byte [ecx+ebp*8-0x03], dl ; jmp dword [eax-0x3BFFFF0C] ; 
0x00169377: add byte [ecx+ebp*8-0x08], ah ; call dword [ecx+ebp*2-0x165BFFFD] ; 
0x001a8dfb: add byte [ecx+ebp*8-0x0A], dh ; jmp dword [edx+0x00000004] ; 
0x00168cdf: add byte [ecx+ebp-0x08], ah ; call esp ; 
0x0016a2df: add byte [ecx+ebx*8-0x06], dl ; call esp ; 
0x00167407: add byte [ecx+ecx*2-0x0D], dl ; jmp dword [ebx+ebx] ; 
0x00175ccb: add byte [ecx+ecx*4-0x12], ah ; jmp edi ; 
0x00169a6f: add byte [ecx+ecx*8-0x07], dl ; call dword [eax+esi*4+0x03] ; 
0x00166c87: add byte [ecx+ecx-0x0F], dh ; call dword [esp+ecx*4+0x09A40001] ; 
0x00173c1b: add byte [ecx+edi*4-0x14], ah ; jmp dword [edx+eax] ; 
0x0016adbf: add byte [ecx+edi*8-0x05], dl ; call eax ; 
0x0018c903: add byte [ecx+edi*8-0x0E], bh ; jmp dword [ebx+0x00] ; 
0x0018c873: add byte [ecx+edi*8], bh ; jmp dword [esi+0x00] ; 
0x00191c8b: add byte [ecx+edi-0x0C], ah ; jmp dword [eax+eax] ; 
0x00166e3f: add byte [ecx+edi-0x0F], ah ; call eax ; 
0x00165e3f: add byte [ecx+edi-0x12], ah ; jmp eax ; 
0x0016510f: add byte [ecx+edi-0x15], dh ; jmp dword [0x39A40000] ; 
0x00165107: add byte [ecx+edi-0x15], dl ; call dword [eax] ; 
0x0018b813: add byte [ecx+edx*2], cl ; call dword [edx+0x01] ; 
0x001a484b: add byte [ecx+edx*4-0x0A], ah ; jmp dword [esi] ; 
0x0017e5a3: add byte [ecx+edx*4-0x11], cl ; call dword [eax] ; 
0x0016b20b: add byte [ecx+edx*8-0x16], dh ; call dword [edi] ; 
0x0018c383: add byte [ecx+edx-0x6F87FFFE], bh ; call dword [esi] ; 
0x0009233a: add byte [ecx+edx-0x7D], dh ; retn 0x8304 ; 
0x0016a8df: add byte [ecx+esi*2-0x05], ah ; jmp dword [ebx+edx*2] ; 
0x00169f7f: add byte [ecx+esi*2-0x06], dl ; call dword [eax-0x12] ; 
0x00167967: add byte [ecx+esi*4-0x0C], al ; call dword [ebp+0x02] ; 
0x001a0903: add byte [ecx+esi-0x0A], cl ; jmp edx ; 
0x0016662f: add byte [ecx+esi-0x10], dl ; jmp dword [eax] ; 
0x00048ebd: add byte [ecx+esi-0x77], dh ; ret  ; 
0x0003b0ca: add byte [ecx-0x00008B6B], cl ; call dword [esi-0x01] ; 
0x0011917d: add byte [ecx-0x00008F43], cl ; call dword [eax-0x73] ; 
0x001022b4: add byte [ecx-0x00009B7B], cl ; jmp dword [ebp-0x5F] ; 
0x000181a7: add byte [ecx-0x0000FF1B], al ; call ecx ; 
0x00028937: add byte [ecx-0x0001B37B], cl ; jmp dword [ebp-0x5F] ; 
0x00041eb3: add byte [ecx-0x00043B7B], cl ; call dword [eax+0x6A] ; 
0x000543ee: add byte [ecx-0x00056B6B], cl ; call dword [ebx-0x75] ; 
0x00163ea0: add byte [ecx-0x04], cl ; call dword [eax+0x4A] ; 
0x00169b17: add byte [ecx-0x07], al ; call dword [eax-0x4A] ; 
0x001a268b: add byte [ecx-0x0A], ah ; jmp dword [edi+0x02] ; 
0x000b1229: add byte [ecx-0x0CFD8130], cl ; ret  ; 
0x00166797: add byte [ecx-0x10], dl ; jmp eax ; 
0x0017c9f0: add byte [ecx-0x11], bl ; call dword [edi+0x00] ; 
0x00090f97: add byte [ecx-0x140D7622], cl ; retn 0x9066 ; 
0x0001ffc2: add byte [ecx-0x160776E8], cl ; retn 0xFFFC ; 
0x000c79e4: add byte [ecx-0x170F763F], cl ; retn 0xFF72 ; 
0x000180dd: add byte [ecx-0x47397626], cl ; retn 0x0000 ; 
0x00018183: add byte [ecx-0x763FCF10], cl ; retn 0x8789 ; 
0x0002ead4: add byte [ecx-0x76481439], cl ; retn 0x8D90 ; 
0x0009051b: add byte [ecx-0x765DF00F], cl ; retn 0x5C89 ; 
0x0001cf5f: add byte [ecx-0x76B7DBBC], cl ; retn 0x15E9 ; 
0x00099286: add byte [ecx-0x76BFDBBC], cl ; retn 0xF889 ; 
0x00079a6c: add byte [ecx-0x76CFDBBC], cl ; ret  ; 
0x00037439: add byte [ecx-0x76D3DBBC], cl ; ret  ; 
0x0002a80a: add byte [ecx-0x76E3DBBC], cl ; ret  ; 
0x000cbf73: add byte [ecx-0x76EBDBBC], cl ; ret  ; 
0x0009688f: add byte [ecx-0x76EBDBBC], cl ; retn 0xF889 ; 
0x00028914: add byte [ecx-0x76FF7439], cl ; retn 0xCE80 ; 
0x000f58ed: add byte [ecx-0x76FF743A], cl ; retn 0xCE80 ; 
0x000ae94b: add byte [ecx-0x7C6F990E], cl ; retn 0x0F01 ; 
0x000f0f67: add byte [ecx-0x7CEC740D], cl ; ret  ; 
0x0002f952: add byte [ecx-0x7E27763A], cl ; retn 0x3039 ; 
0x00166b5d: add byte [ecx], 0x00000000 ; jmp dword [fs:eax-0x7D] ; 
0x000755c8: add byte [ecx], ah ; retn 0x2474 ; 
0x00021235: add byte [ecx], al ; ret  ; 
0x000a6676: add byte [ecx], al ; retn 0x048D ; 
0x0006e8b5: add byte [ecx], al ; retn 0x448B ; 
0x000e968a: add byte [ecx], al ; retn 0x8689 ; 
0x000a2ae1: add byte [ecx], al ; retn 0x9389 ; 
0x00027c3f: add byte [ecx], al ; retn 0x9589 ; 
0x000be206: add byte [ecx], al ; retn 0xD139 ; 
0x0002151a: add byte [ecx], bh ; ret  ; 
0x000cae9b: add byte [ecx], bh ; retn 0x0C74 ; 
0x00120cca: add byte [ecx], bh ; retn 0x44C7 ; 
0x000c4bec: add byte [ecx], bh ; retn 0x4F0F ; 
0x000bb16e: add byte [ecx], bh ; retn 0x840F ; 
0x00120fef: add byte [ecx], bh ; retn 0x850F ; 
0x000ff9e9: add byte [ecx], bh ; retn 0x870F ; 
0x000f3b7a: add byte [ecx], bh ; retn 0xC689 ; 
0x00067a77: add byte [ecx], bh ; retn 0xF076 ; 
0x000a2e3a: add byte [ecx], bh ; retn 0xF472 ; 
0x001074e6: add byte [ecx], bh ; retn 0xF575 ; 
0x0003bef7: add byte [ecx], ch ; ret  ; 
0x000a4b46: add byte [ecx], ch ; retn 0x448B ; 
0x0003742a: add byte [ecx], ch ; retn 0x5152 ; 
0x0001e8b1: add byte [ecx], ch ; retn 0x5403 ; 
0x00028f2d: add byte [ecx], ch ; retn 0x7BE8 ; 
0x000aa669: add byte [ecx], ch ; retn 0x858B ; 
0x000529dd: add byte [ecx], ch ; retn 0x9539 ; 
0x000a67e1: add byte [ecx], ch ; retn 0xBE0F ; 
0x00108017: add byte [ecx], ch ; retn 0xC031 ; 
0x0002b832: add byte [ecx], ch ; retn 0xD089 ; 
0x000aa7af: add byte [ecx], ch ; retn 0xD129 ; 
0x0005278f: add byte [ecx], ch ; retn 0xD189 ; 
0x000a6819: add byte [ecx], ch ; retn 0xD329 ; 
0x0005a6d9: add byte [ecx], ch ; retn 0xD389 ; 
0x00034550: add byte [ecx], ch ; retn 0xE889 ; 
0x0009c086: add byte [ecx], ch ; retn 0xF889 ; 
0x0001bfd1: add byte [ecx], ch ; retn 0xFA83 ; 
0x0010585b: add byte [ecx], cl ; retn 0x5074 ; 
0x0003ebf8: add byte [ecx], cl ; retn 0x5489 ; 
0x000a28cf: add byte [ecx], cl ; retn 0x840F ; 
0x000a2c2b: add byte [ecx], cl ; retn 0x850F ; 
0x0003a785: add byte [ecx], cl ; retn 0xAC74 ; 
0x0002ecba: add byte [ecx], dh ; jmp dword [ebp-0x7D] ; 
0x0010b903: add byte [ecx], dh ; ret  ; 
0x0010bc1a: add byte [ecx], dh ; retn 0xE281 ; 
0x000402ee: add byte [edi+0x50], dl ; call dword [ecx+edx*4] ; 
0x00081621: add byte [edi+0x5B], bl ; ret  ; 
0x000a0234: add byte [edi+0x5E], bl ; ret  ; 
0x0016558f: add byte [edi+eax*2-0x14], ah ; jmp dword [eax-0x5BFFFF67] ; 
0x0016d363: add byte [edi+eax*2-0x15], cl ; call dword [edx] ; 
0x0016b01f: add byte [edi+eax*8-0x03], dl ; jmp esp ; 
0x0016886f: add byte [edi+eax*8-0x09], dh ; jmp dword [eax-0x6BFFFCF3] ; 
0x001661f7: add byte [edi+eax*8-0x11], dh ; call dword [ebx+ebx+0x01] ; 
0x001652bf: add byte [edi+eax*8-0x15], dl ; jmp dword [ecx+eax*4] ; 
0x00168ae7: add byte [edi+eax-0x08], dh ; jmp dword [edx+0x03] ; 
0x0016b187: add byte [edi+ebp*8-0x03], ah ; jmp dword [eax-0x5BFFFBC0] ; 
0x00168d97: add byte [edi+ebp-0x08], dh ; jmp dword [eax+0x31] ; 
0x00166787: add byte [edi+ebx*2-0x10], dh ; jmp dword [esi+edx*2] ; 
0x001674bf: add byte [edi+ebx*4-0x0D], dh ; jmp dword [eax+ebp-0x5F7BFFFE] ; 
0x00169647: add byte [edi+ebx-0x07], dl ; jmp dword [eax-0x6BFFFC83] ; 
0x00189d03: add byte [edi+ebx-0x0E], ch ; jmp dword [esi+0x00] ; 
0x00165e17: add byte [edi+ebx-0x12], ah ; call eax ; 
0x00189c9b: add byte [edi+ebx], ah ; call dword [edx+0x00] ; 
0x00187223: add byte [edi+ecx*2-0x0F], ch ; jmp dword [edi] ; 
0x0016525f: add byte [edi+ecx*4-0x15], ah ; call eax ; 
0x001a7b3b: add byte [edi+ecx*8-0x0A], dh ; call dword [ebp+0x00] ; 
0x0016f8cb: add byte [edi+ecx*8-0x15], ah ; jmp dword [ebx+0x00] ; 
0x0016a68f: add byte [edi+ecx-0x05], ah ; call dword [eax] ; 
0x00165297: add byte [edi+edi*4-0x15], ah ; call esp ; 
0x00166bff: add byte [edi+edi*8-0x10], ah ; jmp dword [eax-0x78] ; 
0x0019a77b: add byte [edi+edi-0x0B], dh ; jmp dword [edi+0x00] ; 
0x0016a847: add byte [edi+edx*2-0x05], ah ; jmp esp ; 
0x0016bb23: add byte [edi+esi*2-0x03], bh ; call dword [edi+0x00] ; 
0x0016a8ff: add byte [edi+esi*2-0x05], ah ; call dword [esp+edx*2+0x77A40004] ; 
0x001657b7: add byte [edi+esi*2-0x14], dh ; jmp dword [eax-0x58] ; 
0x00166907: add byte [edi+esi*2], ah ; jmp dword [eax] ; 
0x0016752f: add byte [edi+esi*4-0x0D], al ; jmp dword [edi+ebp+0x02] ; 
0x00167527: add byte [edi+esi*4], dl ; jmp dword [eax+0x2E] ; 
0x0016ad87: add byte [edi+esi*8-0x05], al ; jmp dword [edx+ebp*2] ; 
0x0019181b: add byte [edi+esi-0x0C], dh ; jmp dword [eax+eax] ; 
0x00166bcc: add byte [edi-0x04FBFFFF], 0xFFFFFFF0 ; call dword [edi+eax*4-0x034BFFFF] ; 
0x00164390: add byte [edi-0x04], bh ; jmp dword [eax-0x80] ; 
0x0016aaf7: add byte [edi-0x05], al ; jmp dword [eax+0x54000463] ; 
0x0016933f: add byte [edi-0x08], dl ; call dword [eax+ebp*2-0x185BFFFD] ; 
0x001aa823: add byte [edi-0x09], bh ; jmp dword [ecx] ; 
0x001a12b0: add byte [edi-0x0A], al ; jmp dword [ecx+0x04] ; 
0x0018db53: add byte [edi-0x0D], bl ; call eax ; 
0x00166b07: add byte [edi-0x10], ah ; call dword [eax+0x7400017F] ; 
0x0015872c: add byte [edi-0x10], ch ; call dword [eax+0x42FFF06E] ; 
0x001659df: add byte [edi-0x14], al ; jmp eax ; 
0x000266ab: add byte [edi-0x53], 0xFFFFFFFA ; call dword [eax+0x52] ; 
0x00156f0c: add byte [edi], cl ; call dword [eax] ; 
0x0000bc77: add byte [edx+0x0000004A], al ; ret  ; 
0x000abebd: add byte [edx+0x00098800], bh ; call dword [0x00000010] ; 
0x000dab13: add byte [edx+0x50FFFAB3], 0xFFFFFFE8 ; retn 0xFFAB ; 
0x0006b2ce: add byte [edx+0x56], dl ; call dword [eax+0x0C] ; 
0x0005d8f1: add byte [edx+0x56], dl ; call dword [eax+0x48] ; 
0x0012dd49: add byte [edx+0x7B], 0xFFFFFFFC ; jmp dword [esi-0x70] ; 
0x0018f453: add byte [edx+eax*2-0x51C7FFFE], cl ; jmp dword [esi+0x00000006] ; 
0x001684b7: add byte [edx+eax*4-0x09], al ; call dword [eax] ; 
0x00165887: add byte [edx+eax*4-0x14], ah ; jmp dword [eax-0x53] ; 
0x00167a0f: add byte [edx+eax*8-0x0C], ah ; call esp ; 
0x0018b45b: add byte [edx+eax+0x49A00002], dl ; jmp eax ; 
0x0016a51f: add byte [edx+eax-0x05], dh ; call dword [eax] ; 
0x001694bf: add byte [edx+eax-0x07], al ; jmp dword [eax+0x64000372] ; 
0x00166c27: add byte [edx+eax-0x0F], dh ; call dword [eax] ; 
0x0017a323: add byte [edx+eax-0x11], bh ; call dword [ecx+0x00000000] ; 
0x00165497: add byte [edx+eax-0x14], ah ; call dword [edi+ecx*4+0x00] ; 
0x00167187: add byte [edx+ebp*4-0x0E], al ; jmp dword [edi+ebp*8] ; 
0x0017ec23: add byte [edx+ebp*4-0x11], cl ; call dword [ebp+0x00] ; 
0x00199d83: add byte [edx+ebp-0x0B], cl ; jmp eax ; 
0x0016aa6f: add byte [edx+ebx*4-0x05], ah ; jmp dword [eax] ; 
0x0016859f: add byte [edx+ebx*4-0x09], ah ; jmp dword [edx+edi*8-0x656BFFFE] ; 
0x00165eb7: add byte [edx+ecx*2-0x12], dl ; jmp esp ; 
0x0018bc5b: add byte [edx+ecx+0x58800002], dl ; jmp dword [eax] ; 
0x0018bc83: add byte [edx+ecx+0x58980002], bh ; jmp dword [esi] ; 
0x00168b27: add byte [edx+ecx-0x08], dh ; jmp dword [esp+0x03] ; 
0x00166c97: add byte [edx+ecx-0x0F], ah ; jmp dword [eax-0x3BFFFE73] ; 
0x0017a713: add byte [edx+ecx-0x11], ch ; call dword [eax+0x00000000] ; 
0x0016644f: add byte [edx+ecx], al ; call dword [eax+0x14000132] ; 
0x0017dc3b: add byte [edx+edi*2-0x11], al ; jmp dword [edi] ; 
0x001657ff: add byte [edx+edi*2-0x14], al ; call dword [ecx+ebp*4+0x7A940000] ; 
0x0016a1cf: add byte [edx+edi*4-0x06], al ; jmp dword [0xBCD40004+ecx] ; 
0x0019de43: add byte [edx+edi*4-0x0B], bl ; call dword [edx+0x00000002] ; 
0x001671f7: add byte [edx+edi*4], al ; jmp dword [eax] ; 
0x00197c6b: add byte [edx+edi*8-0x0C], al ; jmp dword [eax+eax] ; 
0x00197c93: add byte [edx+edi*8-0x0C], bh ; jmp dword [esi] ; 
0x00167e67: add byte [edx+edx*2-0x0A], ah ; jmp dword [esp] ; 
0x001a8043: add byte [edx+edx*8-0x0A], bl ; jmp dword [0x00000001] ; 
0x00166a77: add byte [edx+edx*8-0x10], dh ; call dword [eax-0x3BFFFE87] ; 
0x000733ee: add byte [edx+edx*8], 0xFFFFFFFA ; call dword [eax-0x18] ; 
0x00168287: add byte [edx+edx-0x09], dl ; call dword [eax] ; 
0x0018c44b: add byte [edx+edx-0x6E5FFFFE], al ; call dword [edi+0x08] ; 
0x0016af97: add byte [edx+esi*2-0x03], al ; jmp dword [ebx+eax*8+0x75840001] ; 
0x001792ab: add byte [edx+esi*2-0x06], dl ; call dword [edx+0x00000000] ; 
0x00167baf: add byte [edx+esi*2-0x0B], dl ; call eax ; 
0x001668c7: add byte [edx+esi*2-0x10], dh ; call dword [eax+0x5E] ; 
0x0017d5fb: add byte [edx+esi*2-0x11], ah ; jmp dword [ecx] ; 
0x0016de5b: add byte [edx+esi*2-0x15], al ; jmp dword [esi] ; 
0x001668af: add byte [edx+esi*2], dh ; call dword [esi+ebx*2] ; 
0x0016a17f: add byte [edx+esi*4-0x06], dh ; jmp dword [eax+0x64000409] ; 
0x0016876f: add byte [edx+esi*4-0x09], dl ; jmp dword [esi+eax+0x03] ; 
0x00166b5f: add byte [edx+esi*8-0x10], ah ; jmp dword [eax-0x7D] ; 
0x0018a7a3: add byte [edx+esi-0x0E], ch ; jmp edi ; 
0x001691d7: add byte [edx-0x08], ah ; jmp dword [ebx+ebx*2-0x57ABFFFD] ; 
0x00074b52: add byte [edx-0x09], al ; retn 0x0003 ; 
0x00194cdb: add byte [edx-0x0C], dh ; jmp dword [esi] ; 
0x001a03f0: add byte [edx], 0x0000000A ; ret  ; 
0x001673ef: add byte [edx], ah ; call dword [esp+edx+0x46540002] ; 
0x000ef466: add byte [edx], al ; call eax ; 
0x00156f98: add byte [edx], dl ; call dword [eax] ; 
0x000e8d35: add byte [esi+0x31], dl ; call dword [ebx-0x45] ; 
0x0001b045: add byte [esi+0x5F], bl ; ret  ; 
0x00165e7f: add byte [esi+eax*2-0x12], dh ; jmp dword [eax+edi*8] ; 
0x000eabc7: add byte [esi+eax*2-0x7D], dh ; ret  ; 
0x001684df: add byte [esi+eax*4-0x09], al ; jmp eax ; 
0x0016a567: add byte [esi+eax-0x05], al ; call dword [edx+esi+0x04] ; 
0x00167f1f: add byte [esi+ebp*2-0x0A], al ; call dword [ecx+ebp*4] ; 
0x00165707: add byte [esi+ebp*2-0x14], al ; jmp esp ; 
0x001693df: add byte [esi+ebp*8-0x08], al ; jmp dword [eax] ; 
0x00169d17: add byte [esi+ebp-0x06], al ; call eax ; 
0x001a1deb: add byte [esi+ebp-0x08], dh ; call dword [ecx] ; 
0x00168d77: add byte [esi+ebp-0x08], dl ; jmp dword [eax+esi+0x2E840003] ; 
0x00199fd3: add byte [esi+ebp-0x0B], bh ; call dword [esi+0x00000001] ; 
0x00186bab: add byte [esi+ebp-0x0F], dl ; jmp dword [edi] ; 
0x001718eb: add byte [esi+ebp-0x14], al ; jmp esp ; 
0x00168957: add byte [esi+ebx*8-0x09], ah ; call dword [esp+edx-0x216BFFFD] ; 
0x00166abf: add byte [esi+ebx*8-0x10], dl ; jmp dword [eax+0x7C] ; 
0x0018d77b: add byte [esi+ebx-0x0D], dl ; call dword [ebx+0x00000001] ; 
0x00181fab: add byte [esi+ecx*2-0x10], ah ; jmp ebp ; 
0x00167417: add byte [esi+ecx*2], al ; jmp dword [eax] ; 
0x00175eeb: add byte [esi+ecx*4-0x12], dh ; call dword [ecx+eax+0x77040000] ; 
0x0016b027: add byte [esi+ecx*8-0x03], al ; call dword [0xD4440002+ebp] ; 
0x00165b4f: add byte [esi+ecx*8-0x14], al ; call dword [edx+eax*8-0x2E7C0000] ; 
0x0016c673: add byte [esi+ecx-0x15], ch ; jmp dword [edi+0x0000000A] ; 
0x00060597: add byte [esi+ecx-0x77], dh ; retn 0x895B ; 
0x00020c74: add byte [esi+edi*2-0x7D], dh ; ret  ; 
0x0016695f: add byte [esi+edi*2], ah ; jmp dword [eax+ebp*2+0x7FD40001] ; 
0x0019e0d3: add byte [esi+edi*4-0x0B], bl ; jmp dword [ebx+0x00000000] ; 
0x001661a7: add byte [esi+edi*4-0x11], dh ; jmp eax ; 
0x001653cf: add byte [esi+edi*8-0x15], dh ; jmp dword [eax-0x73] ; 
0x0016a737: add byte [esi+edi-0x05], dh ; call esp ; 
0x00169d9f: add byte [esi+edi-0x06], ah ; call dword [eax+ebx*8+0x40340003] ; 
0x0016746f: add byte [esi+edx*4-0x0D], dh ; call eax ; 
0x001662df: add byte [esi+edx*8-0x11], al ; call dword [eax+0x64000122] ; 
0x0016b793: add byte [esi+edx*8-0x16], cl ; jmp dword [edi] ; 
0x00166157: add byte [esi+esi*4-0x11], dh ; jmp dword [ebp+edx+0x01] ; 
0x00173aa3: add byte [esi+esi*4-0x14], cl ; call dword [eax+eax+0x41000000] ; 
0x00191693: add byte [esi+esi-0x0C], bh ; call dword [ebx] ; 
0x001a57fb: add byte [esi-0x07], ah ; jmp dword [edi] ; 
0x0016986f: add byte [esi-0x07], dl ; jmp dword [edx+ebx*4+0x6BA40003] ; 
0x00168c5f: add byte [esi-0x08], dl ; jmp dword [esp+ebp] ; 
0x000d44a8: add byte [esi-0x09], ah ; retn 0xFF80 ; 
0x00197533: add byte [esi-0x0C], ch ; jmp dword [eax+eax] ; 
0x001659d7: add byte [esi-0x14], dl ; call dword [eax+edi*4-0x58BC0000] ; 
0x0016d973: add byte [esi-0x15], bh ; call dword [esi+0x00] ; 
0x00072227: add byte [esi-0x18], dl ; retn 0xFBDC ; 
0x00021870: add byte [esi-0x6B], 0xFFFFFFFA ; call dword [eax-0x18] ; 
0x00142707: add byte [esi-0x77], dl ; retn 0x348D ; 
0x001426a7: add byte [esi-0x77], dl ; retn 0xFE89 ; 
0x0011dafd: add byte [esi-0x7D], dl ; ret  ; 
0x0018d66b: add byte [esp+0x1B000002], ah ; call esi ; 
0x001690f7: add byte [esp+eax*4-0x08], al ; call dword [ecx+edx*2+0x03] ; 
0x00166f67: add byte [esp+eax*4-0x0F], dl ; jmp esp ; 
0x00165ccf: add byte [esp+eax*4-0x13], ah ; jmp dword [eax-0x5BFFFF1F] ; 
0x00167a47: add byte [esp+eax*8-0x0C], dl ; call eax ; 
0x0016819f: add byte [esp+eax-0x09], dl ; jmp dword [ebx+ecx*8] ; 
0x00167757: add byte [esp+ebp*2-0x0C], al ; call eax ; 
0x001656d7: add byte [esp+ebp*2-0x14], al ; call esp ; 
0x001693bf: add byte [esp+ebp*8-0x08], dl ; call dword [eax] ; 
0x001a20a3: add byte [esp+ebp-0x08], bh ; call dword [ecx] ; 
0x001685b7: add byte [esp+ebx*4-0x09], al ; call dword [eax-0x05] ; 
0x001685bf: add byte [esp+ebx*4-0x09], dh ; jmp dword [ebx+edi*8+0x02] ; 
0x001651c7: add byte [esp+ecx*2-0x15], dl ; call dword [eax] ; 
0x0018b63b: add byte [esp+ecx*2], dh ; jmp dword [eax] ; 
0x001a9983: add byte [esp+ecx-0x09], cl ; jmp dword [ecx+0x00] ; 
0x00167fa7: add byte [esp+edi*4-0x0A], dl ; jmp dword [eax] ; 
0x00167567: add byte [esp+edi*4], ah ; jmp dword [ecx+esi] ; 
0x00164378: add byte [esp+edi*8-0x036B2F01], dl ; jmp dword [eax] ; 
0x0016ae2f: add byte [esp+edi*8-0x05], dh ; jmp dword [eax-0x6BFFFC32] ; 
0x00197f6b: add byte [esp+edi*8-0x0C], al ; jmp dword [eax] ; 
0x0016337c: add byte [esp+edi*8], bl ; call ebx ; 
0x00191e9b: add byte [esp+edi-0x0C], dl ; jmp dword [ebp+0x00] ; 
0x00165147: add byte [esp+edi-0x15], dh ; jmp dword [eax+0x04000066] ; 
0x00169e4f: add byte [esp+edx*2-0x06], al ; jmp eax ; 
0x00168547: add byte [esp+edx*4-0x09], dh ; call dword [eax+edi*8] ; 
0x0019c443: add byte [esp+edx*4-0x0B], ch ; jmp ecx ; 
0x00166067: add byte [esp+edx*4-0x11], al ; jmp dword [ebx+ecx-0x6B6BFFFF] ; 
0x0016731f: add byte [esp+edx*8-0x0E], ah ; call esp ; 
0x0016b5fb: add byte [esp+edx*8-0x16], dl ; jmp dword [0x00000000] ; 
0x00167317: add byte [esp+edx*8], ah ; jmp dword [esp+eax-0x2B9BFFFE] ; 
0x0017aeb3: add byte [esp+edx-0x11], cl ; call dword [ecx+0x00] ; 
0x001877e3: add byte [esp+esi*2-0x0F], cl ; jmp dword [ebx+0x03] ; 
0x0016576f: add byte [esp+esi*2-0x14], dl ; call esp ; 
0x00167137: add byte [esp+esi], al ; jmp dword [eax+ebx*8+0x3A140001] ; 
0x0016cf43: add byte [esp-0x03], ch ; call dword [esi+0x00] ; 
0x0016a387: add byte [esp-0x06], dl ; call dword [eax-0x6BFFFBE0] ; 
0x0016903f: add byte [esp-0x08], ah ; jmp dword [esi+eax*2+0x64C40003] ; 
0x0016863f: add byte [esp-0x09], al ; call esp ; 
0x001a2753: add byte [esp-0x0A], bh ; call edi ; 
0x0016790f: add byte [esp-0x0C], al ; jmp dword [eax-0x1BFFFDA0] ; 
0x0016657f: add byte [esp-0x10], ah ; jmp dword [esp+edi+0x25A40001] ; 
0x00165c07: add byte [esp-0x13], dh ; jmp dword [edx+ebx*8+0x00] ; 
0x00165617: add byte [esp-0x14], al ; jmp esp ; 
0x001659bf: add byte [esp-0x14], dl ; jmp esp ; 
0x0018a06b: add byte [esp], dl ; jmp dword [edi] ; 
0x001654b1: add ch, ah ; call dword [eax-0x3BFFFF71] ; 
0x00165498: add ch, ah ; call dword [edi+ecx*4+0x00] ; 
0x001654b9: add ch, ah ; jmp dword [edi+ecx*4+0x02F40000] ; 
0x0018f780: add ch, al ; jmp dword [esi] ; 
0x0017a325: add ch, bh ; call dword [ecx+0x00000000] ; 
0x00178b91: add ch, byte [eax+0x0A] ; ret  ; 
0x0017c614: add ch, byte [eax+0x43140E0A] ; ret  ; 
0x0019ffb4: add ch, byte [ebp+0x0A] ; ret  ; 
0x00154df9: add ch, byte [ebp+ebp*2+0x5B] ; retn 0x06F9 ; 
0x001729d8: add ch, byte [ebx+0x0A] ; ret  ; 
0x0016b6e1: add ch, byte [ecx+0x0A] ; ret  ; 
0x0019c0f0: add ch, byte [ecx+0x41140E0A] ; ret  ; 
0x0018a110: add ch, byte [ecx+0x43140E0A] ; ret  ; 
0x0009c764: add ch, byte [ecx] ; ret  ; 
0x000a086f: add ch, byte [ecx] ; retn 0x048D ; 
0x000a79a6: add ch, byte [ecx] ; retn 0xD089 ; 
0x00176080: add ch, byte [edi+0x0A76202E] ; ret  ; 
0x00170118: add ch, byte [edi+0x0A] ; ret  ; 
0x00173a6f: add ch, byte [edi+0x41140E0A] ; ret  ; 
0x00194dbd: add ch, byte [edx+0x0A] ; ret  ; 
0x0016b7f0: add ch, byte [edx+0x41140E0A] ; ret  ; 
0x001782e0: add ch, byte [esi+0x0A] ; ret  ; 
0x000cfd7a: add ch, cl ; ret  ; 
0x0005e5be: add cl, al ; retn 0x6509 ; 
0x000177c9: add cl, al ; retn 0x8909 ; 
0x001768cc: add cl, byte [eax+0x0A5D102E] ; ret  ; 
0x0017fafd: add cl, byte [eax+0x0A] ; ret  ; 
0x0017c21c: add cl, byte [eax+0x41140E0A] ; ret  ; 
0x0018d9e0: add cl, byte [eax+0x43140E0A] ; ret  ; 
0x001904f4: add cl, byte [eax+0x46140E0A] ; ret  ; 
0x0007fcda: add cl, byte [eax-0x2F76F7BE] ; ret  ; 
0x0007fc78: add cl, byte [eax-0x2F76FDBE] ; ret  ; 
0x00101fbd: add cl, byte [eax] ; ret  ; 
0x00175dcc: add cl, byte [ebp+0x0A] ; ret  ; 
0x00085c60: add cl, byte [ebp+0x5B5F0442] ; ret  ; 
0x00085c92: add cl, byte [ebp+0x5B5F0842] ; ret  ; 
0x00177870: add cl, byte [ebx+0x0A] ; ret  ; 
0x00024069: add cl, byte [ebx+0x58408B00] ; ret  ; 
0x0012992f: add cl, byte [ebx+0x5B082444] ; ret  ; 
0x0008bac8: add cl, byte [ebx+0x5E082444] ; ret  ; 
0x0018026e: add cl, byte [ebx+edx+0x01] ; ret  ; 
0x000db387: add cl, byte [ebx-0x0000D77D] ; jmp dword [ebp-0x75] ; 
0x00071e77: add cl, byte [ebx-0x0001576D] ; jmp dword [ebp-0x75] ; 
0x0016fa18: add cl, byte [ecx+0x0A] ; ret  ; 
0x0017e668: add cl, byte [ecx+0x41140E0A] ; ret  ; 
0x0007fd3a: add cl, byte [ecx-0x2F76F7BE] ; ret  ; 
0x0007fd1a: add cl, byte [ecx-0x2F76F8BE] ; ret  ; 
0x00142c1a: add cl, byte [ecx-0x7CA1F78E] ; retn 0x830C ; 
0x0003f3b4: add cl, byte [ecx] ; ret  ; 
0x0010bced: add cl, byte [ecx] ; retn 0xC889 ; 
0x00170899: add cl, byte [edi+0x0A] ; ret  ; 
0x00170421: add cl, byte [edi+0x41140E0A] ; ret  ; 
0x001842e9: add cl, byte [edx+0x0A] ; ret  ; 
0x0017d058: add cl, byte [edx+0x41140E0A] ; ret  ; 
0x0016bfef: add cl, byte [edx] ; ret  ; 
0x0019480c: add cl, byte [esi+0x0A] ; ret  ; 
0x00192103: add cl, byte [esi+0x41100E0A] ; ret  ; 
0x001945c8: add cl, byte [esi+0x41140E0A] ; ret  ; 
0x001801a7: add cl, byte [esi+ecx+0x00] ; ret  ; 
0x00180ab2: add cl, byte [esi+ecx+0x04] ; ret  ; 
0x0001a71e: add cl, ch ; ret  ; 
0x000f7f3b: add cl, ch ; retn 0x0001 ; 
0x000ccb6d: add cl, ch ; retn 0xFFF7 ; 
0x0003c11f: add cl, ch ; retn 0xFFFC ; 
0x0007b211: add cl, ch ; retn 0xFFFD ; 
0x0006df78: add cl, ch ; retn 0xFFFE ; 
0x00008f65: add cl, dh ; call ecx ; 
0x0000abf5: add cl, dh ; jmp dword [ebx+0x2E] ; 
0x00009515: add cl, dh ; jmp edi ; 
0x0000a045: add cl, dh ; jmp edx ; 
0x001a7500: add dh, 0xFFFFFFF6 ; call dword [ecx] ; 
0x00000530: add dh, ah ; retn 0x0AD0 ; 
0x00158458: add dh, al ; call dword [ebp+0x02] ; 
0x001582a1: add dh, al ; call dword [edi-0x5E000FFE] ; 
0x0015838d: add dh, al ; call ebp ; 
0x001582b9: add dh, al ; call ebx ; 
0x00158455: add dh, al ; jmp dword [ebp+0x02] ; 
0x001582a5: add dh, al ; jmp dword [ecx-0x54000FFE] ; 
0x0015845d: add dh, al ; jmp dword [ecx] ; 
0x00168161: add dh, bh ; jmp dword [ecx+ecx*8+0x02940002] ; 
0x00168169: add dh, bh ; jmp eax ; 
0x0015919b: add dh, bh ; jmp edi ; 
0x0012dc8a: add dh, bh ; retn 0x0002 ; 
0x0012dcc4: add dh, bh ; retn 0x000F ; 
0x0006552d: add dh, bl ; ret  ; 
0x00191cad: add dh, byte [eax+0x0A] ; ret  ; 
0x000900ac: add dh, byte [eax] ; ret  ; 
0x00178168: add dh, byte [ebp+0x0A] ; ret  ; 
0x0018a150: add dh, byte [ebp+0x43140E0A] ; ret  ; 
0x0002bb4c: add dh, byte [ebp+ebp-0x77] ; retn 0xE083 ; 
0x00199184: add dh, byte [ebx+0x0A] ; ret  ; 
0x001ab09e: add dh, byte [ebx+0x410C0E0A] ; ret  ; 
0x0016f8fd: add dh, byte [ecx+0x0A] ; ret  ; 
0x001789a4: add dh, byte [edi+0x0A] ; ret  ; 
0x001a8f52: add dh, byte [edi+0x43140E0A] ; ret  ; 
0x0017ca80: add dh, byte [edi+0x46140E0A] ; ret  ; 
0x0016f921: add dh, byte [edx+0x0A] ; ret  ; 
0x001887e5: add dh, byte [edx+0x41140E0A] ; ret  ; 
0x000e152a: add dh, byte [edx-0x0D] ; jmp dword [esi-0x70] ; 
0x000d4d9b: add dh, byte [esi+0x02] ; rep ret  ; 
0x0019c400: add dh, byte [esi+0x0A7F202E] ; ret  ; 
0x00175e64: add dh, byte [esi+0x0A] ; ret  ; 
0x00198bec: add dh, byte [esi+0x41140E0A] ; ret  ; 
0x00181bb5: add dh, byte [esi+ecx+0x04] ; ret  ; 
0x00166c29: add dh, cl ; call dword [eax] ; 
0x0019fa51: add dh, dh ; call dword [ebx+0x00000000] ; 
0x0006db42: add dh, dh ; ret  ; 
0x000472b5: add dh, dh ; retn 0x0F01 ; 
0x000d77ca: add dh, dh ; retn 0x0F02 ; 
0x0013fed9: add dh, dh ; retn 0x0F04 ; 
0x0005024a: add dh, dh ; retn 0x0F08 ; 
0x00142501: add dh, dh ; retn 0x0F0F ; 
0x0004bf36: add dh, dh ; retn 0x0F10 ; 
0x0013fe82: add dh, dh ; retn 0x0F20 ; 
0x000cd631: add dh, dh ; retn 0x0F40 ; 
0x001038e9: add dh, dh ; retn 0x0F80 ; 
0x000cf352: add dh, dh ; retn 0x7402 ; 
0x0005e216: add dh, dh ; retn 0x7420 ; 
0x0013f48d: add dh, dh ; retn 0x7501 ; 
0x00089daf: add dh, dh ; retn 0x7510 ; 
0x000bdec2: add dh, dh ; retn 0x7540 ; 
0x00044c73: add dh, dh ; retn 0x8B01 ; 
0x000adbe5: add dl, 0xFFFFFFEF ; call dword [eax-0x18] ; 
0x0015918e: add dl, bh ; call dword [ecx-0x56000A00] ; 
0x0019a45e: add dl, byte [eax+0x41140E0A] ; ret  ; 
0x00184797: add dl, byte [eax+0x43140E0A] ; ret  ; 
0x000c9076: add dl, byte [eax-0x18] ; ret  ; 
0x0019c764: add dl, byte [ebp+0x0A] ; ret  ; 
0x00189a70: add dl, byte [ebp+0x41140E0A] ; ret  ; 
0x00175f08: add dl, byte [ebx+0x0A69102E] ; ret  ; 
0x00176456: add dl, byte [ebx+0x0A] ; ret  ; 
0x0018b4a6: add dl, byte [ebx+0x41140E0A] ; ret  ; 
0x0016d7e4: add dl, byte [ecx+0x0A] ; ret  ; 
0x0016d786: add dl, byte [ecx+0x41140E0A] ; ret  ; 
0x00175d84: add dl, byte [edi+0x0A5D102E] ; ret  ; 
0x001975c4: add dl, byte [edi+0x41140E0A] ; ret  ; 
0x00175ad0: add dl, byte [edx+0x0A67202E] ; ret  ; 
0x0016db19: add dl, byte [edx+0x0A] ; ret  ; 
0x0017cb40: add dl, byte [esi+0x41140E0A] ; ret  ; 
0x00156d59: add dl, dh ; call eax ; 
0x00156d89: add dl, dh ; jmp dword [esi+0x3EFFF200] ; 
0x00183cbd: add dword [0x0EC60C0E+ecx*2], 0x08 ; ret  ; 
0x00154e68: add dword [0x73950000], ecx ; retn 0x0048 ; 
0x00083ef1: add dword [eax+0x5F028D02], ecx ; ret  ; 
0x0007fb31: add dword [eax+0x5FF88902], ecx ; ret  ; 
0x00079272: add dword [eax+0x5F], eax ; ret  ; 
0x0001b09d: add dword [eax+0x7B], 0xFFFFFFE6 ; call dword [eax-0x73] ; 
0x000d771a: add dword [eax+eax], 0xFFFFFF81 ; ret  ; 
0x0017d766: add dword [eax+ebx*2], 0x0A ; ret  ; 
0x0017ad0a: add dword [eax+esi*2], 0x0A ; ret  ; 
0x00158aac: add dword [eax-0x0F], ecx ; call dword [ebx+0x48] ; 
0x0009f589: add dword [eax-0x12], 0xFFFFFFFA ; call dword [eax-0x73] ; 
0x0010e626: add dword [eax-0x36], 0xFFFFFFF5 ; call dword [eax-0x73] ; 
0x0010d4a6: add dword [eax-0x36], 0xFFFFFFFA ; call dword [eax-0x18] ; 
0x0007c7fd: add dword [eax-0x49F02FBB], ecx ; ret  ; 
0x0007e339: add dword [eax-0x54], 0xFFFFFFFA ; call dword [ebp+0x56] ; 
0x0002605a: add dword [eax-0x6BF0D006], eax ; retn 0xB60F ; 
0x000fac94: add dword [eax-0x72], 0xFFFFFFF4 ; call dword [eax-0x18] ; 
0x00198842: add dword [eax], 0x0A ; ret  ; 
0x000e9940: add dword [eax], 0x89000021 ; retn 0xEAC1 ; 
0x001652c5: add dword [eax], 0xEBC78400 ; jmp dword [ecx+eax*4+0x00] ; 
0x00173331: add dword [eax], 0xECA68C00 ; call dword [edi+0x00] ; 
0x00173375: add dword [eax], 0xECA6A800 ; call dword [edi+0x00] ; 
0x00106d2a: add dword [eax], eax ; call dword [esp+0x2C] ; 
0x00166b5e: add dword [eax], eax ; jmp dword [fs:eax-0x7D] ; 
0x000e21c8: add dword [eax], eax ; ret  ; 
0x000f7aeb: add dword [eax], ecx ; ret  ; 
0x0007a3a8: add dword [eax], edi ; ret  ; 
0x0007639c: add dword [eax], edi ; retn 0x940F ; 
0x0008fcfc: add dword [eax], edx ; ret  ; 
0x0008fd1c: add dword [eax], esi ; ret  ; 
0x0008fd0c: add dword [eax], esp ; ret  ; 
0x00101c53: add dword [ebp+0x39023044], ecx ; ret  ; 
0x0001a27f: add dword [ebp+0x6BF475C0], eax ; retn 0x833C ; 
0x000f4870: add dword [ebp-0x053E3580], ecx ; call dword [eax+0x57] ; 
0x0011809a: add dword [ebp-0x0552026F], ecx ; call dword [edx+0x50] ; 
0x0005cb6a: add dword [ebp-0x05647E7D], ecx ; call dword [eax-0x18] ; 
0x0005cb4a: add dword [ebp-0x0564977D], ecx ; call dword [eax-0x18] ; 
0x0002e478: add dword [ebp-0x05677467], ecx ; call dword [ebx+0x50] ; 
0x00002712: add dword [ebx+0x2B], 0x821055B8 ; retn 0x617E ; 
0x00085a05: add dword [ebx+0x5B5FFFD8], eax ; ret  ; 
0x0003d503: add dword [ebx+0x5E], ebx ; ret  ; 
0x00173f8e: add dword [ebx+edi*2], 0x0A ; ret  ; 
0x0016dbda: add dword [ebx+edx*2], 0x0A ; ret  ; 
0x0004aa06: add dword [ebx-0x00048F43], eax ; call dword [eax] ; 
0x00054135: add dword [ebx-0x00055B63], ecx ; call dword [esi-0x01] ; 
0x000576c8: add dword [ebx-0x077CFE40], 0x83E7750A ; ret  ; 
0x000b3b83: add dword [ebx-0x49F0FE1D], eax ; ret  ; 
0x00064fec: add dword [ebx-0x59], 0xFFFFFFFA ; call dword [eax-0x18] ; 
0x0007778a: add dword [ebx-0x7CD68BCE], ecx ; retn 0xEB04 ; 
0x00198806: add dword [ebx], 0x0A ; ret  ; 
0x0017f385: add dword [ebx], 0x57 ; ret  ; 
0x0017f3a9: add dword [ebx], 0x59 ; ret  ; 
0x0017f311: add dword [ebx], 0x5F ; ret  ; 
0x0017f3cd: add dword [ebx], 0x63 ; ret  ; 
0x0017f3f1: add dword [ebx], 0x66 ; ret  ; 
0x0017f5a1: add dword [ebx], 0x68 ; ret  ; 
0x0017f335: add dword [ebx], 0x6A ; ret  ; 
0x0017f471: add dword [ebx], 0x6B ; ret  ; 
0x001ab4dd: add dword [ebx], 0x6C ; ret  ; 
0x0017b79d: add dword [ebx], 0x77 ; ret  ; 
0x0017e86d: add dword [ebx], 0x7B ; ret  ; 
0x001754b5: add dword [ebx], 0x7C ; ret  ; 
0x0016e039: add dword [ebx], 0x7E ; ret  ; 
0x00170ccd: add dword [ebx], 0x7F ; ret  ; 
0x0012c07b: add dword [ebx], 0x8B1C0300 ; jmp ebx ; 
0x00084061: add dword [ecx+0x03428D02], ecx ; ret  ; 
0x00027f21: add dword [ecx+0x29C189CA], ecx ; ret  ; 
0x001011ca: add dword [ecx+0x5BC03110], ecx ; ret  ; 
0x00082921: add dword [ecx+0x5BD08902], ecx ; ret  ; 
0x000fdc72: add dword [ecx+0x5F5E5BD0], ecx ; ret  ; 
0x0007fa71: add dword [ecx+0x5FF88902], ecx ; ret  ; 
0x001a862a: add dword [ecx+ebp*2], 0x0A ; ret  ; 
0x0018d2b6: add dword [ecx+ecx*2], 0x0A ; ret  ; 
0x0003b12b: add dword [ecx-0x00008B6B], ecx ; call dword [eax+0x57] ; 
0x000d8499: add dword [ecx-0x00009B7B], ecx ; jmp dword [ebp-0x5F] ; 
0x000d96f9: add dword [ecx-0x0000A37B], ecx ; jmp dword [ebp-0x5F] ; 
0x000d4cab: add dword [ecx-0x0000DB6B], ecx ; call dword [eax+0x6A] ; 
0x0005b135: add dword [ecx-0x0004B77B], ecx ; call dword [edx+0x51] ; 
0x00059ca8: add dword [ecx-0x0004C36B], ecx ; call dword [eax-0x75] ; 
0x00059594: add dword [ecx-0x0004CF6B], ecx ; call dword [eax+0x51] ; 
0x00054462: add dword [ecx-0x00056B73], ecx ; call dword [eax-0x75] ; 
0x0002ef9e: add dword [ecx-0x3776FBAF], ecx ; retn 0x0004 ; 
0x001591b7: add dword [ecx-0x67FE6B01], ebx ; jmp dword [esi-0x410068FF] ; 
0x00033246: add dword [ecx-0x768BDBAC], ecx ; retn 0x2274 ; 
0x0007604b: add dword [ecx-0x76D7DBB4], ecx ; retn 0x4489 ; 
0x00034aa4: add dword [ecx-0x76F3DBBC], ecx ; retn 0xC031 ; 
0x00031d6d: add dword [ecx-0x76F7DBBC], ecx ; retn 0xC031 ; 
0x00047e56: add dword [ecx-0x7C24E628], ecx ; ret  ; 
0x0011e364: add dword [ecx-0x7CF7608C], ecx ; ret  ; 
0x0011e34a: add dword [ecx-0x7CF76E8C], ecx ; retn 0x3901 ; 
0x001a372a: add dword [ecx], 0x0A ; ret  ; 
0x00166b35: add dword [ecx], 0xF0ECC400 ; call dword [eax-0x7F] ; 
0x00052aac: add dword [ecx], eax ; ret  ; 
0x0005a5d7: add dword [ecx], eax ; retn 0x858B ; 
0x00040f68: add dword [ecx], ebp ; ret  ; 
0x0003f50b: add dword [ecx], ebp ; retn 0xD601 ; 
0x0001bbdb: add dword [ecx], edi ; ret  ; 
0x0003e1c2: add dword [ecx], edi ; retn 0x0389 ; 
0x0003afde: add dword [ecx], edi ; retn 0x0B76 ; 
0x00077e01: add dword [ecx], edi ; retn 0x0C72 ; 
0x0003b177: add dword [ecx], edi ; retn 0x1477 ; 
0x0003ed2a: add dword [ecx], edi ; retn 0x3F74 ; 
0x0003c379: add dword [ecx], edi ; retn 0x5A88 ; 
0x000d82c2: add dword [ecx], edi ; retn 0x840F ; 
0x0003b1b6: add dword [ecx], edi ; retn 0x860F ; 
0x000bd472: add dword [ecx], edi ; retn 0xE075 ; 
0x0007c97c: add dword [ecx], edi ; retn 0xE575 ; 
0x0007c92f: add dword [ecx], edi ; retn 0xEC77 ; 
0x000f638d: add dword [ecx], edi ; retn 0xEE75 ; 
0x0007c8cc: add dword [ecx], edi ; retn 0xEF77 ; 
0x000c267c: add dword [ecx], edi ; retn 0xEF7F ; 
0x0001d13b: add dword [ecx], edi ; retn 0xF175 ; 
0x0009d5d3: add dword [ecx], edi ; retn 0xF275 ; 
0x00023c7f: add dword [ecx], esp ; retn 0x6A52 ; 
0x000bc5f1: add dword [edi+0x5D], ebx ; retn 0x0008 ; 
0x000a3b03: add dword [edi+ebp*8], 0xFFFFFFFA ; call dword [eax-0x73] ; 
0x001a9526: add dword [edi+ebx*2], 0x0A ; ret  ; 
0x00055c2d: add dword [edi+edi], 0xCB01FFFA ; jmp ebx ; 
0x0016db9e: add dword [edi+esi*2], 0x0A ; ret  ; 
0x000e9967: add dword [edx+eax*2], 0x01 ; ret  ; 
0x00174916: add dword [edx+eax], 0x47 ; ret  ; 
0x00175706: add dword [edx+eax], 0x49 ; ret  ; 
0x001757b6: add dword [edx+eax], 0x52 ; ret  ; 
0x001873a6: add dword [edx+eax], 0x53 ; ret  ; 
0x0017c416: add dword [edx+eax], 0x57 ; ret  ; 
0x00181312: add dword [edx+eax], 0xFFFFFFAC ; ret  ; 
0x00198a4e: add dword [edx+ebx*2], 0x0A ; ret  ; 
0x0018ca56: add dword [edx+edi*2], 0x0A ; ret  ; 
0x0007dd46: add dword [edx+edx*8+0x5E5BED75], eax ; ret  ; 
0x00024d69: add dword [edx+edx*8], 0xFFFFFFFA ; call dword [eax-0x18] ; 
0x001591b3: add dword [edx-0x66FE8001], ebx ; call dword [ecx+eax+0x01A6FF98] ; 
0x00033b83: add dword [edx-0x67], 0xE850FFFA ; retn 0xFF11 ; 
0x00188434: add dword [edx], 0x51 ; ret  ; 
0x001979f4: add dword [edx], 0x52 ; ret  ; 
0x0019fc8c: add dword [edx], 0x53 ; ret  ; 
0x0016b218: add dword [edx], 0x55 ; ret  ; 
0x0018d2e8: add dword [edx], 0x57 ; ret  ; 
0x00191798: add dword [edx], 0x59 ; ret  ; 
0x0017f4b4: add dword [edx], 0x5C ; ret  ; 
0x0017f450: add dword [edx], 0x5D ; ret  ; 
0x00187fa4: add dword [edx], 0x5E ; ret  ; 
0x001979d8: add dword [edx], 0x60 ; ret  ; 
0x0016b7a0: add dword [edx], 0x61 ; ret  ; 
0x0017e8f4: add dword [edx], 0x63 ; ret  ; 
0x00188568: add dword [edx], 0x65 ; ret  ; 
0x0017a520: add dword [edx], 0x66 ; ret  ; 
0x00176fe4: add dword [edx], 0x68 ; ret  ; 
0x00188030: add dword [edx], 0x6D ; ret  ; 
0x00184a30: add dword [edx], 0x6F ; ret  ; 
0x0019bc44: add dword [edx], 0x70 ; ret  ; 
0x0017fb28: add dword [edx], 0x74 ; ret  ; 
0x001a799c: add dword [edx], 0x79 ; ret  ; 
0x00193375: add dword [edx], 0xF46AA800 ; jmp esp ; 
0x0016ed94: add dword [edx], eax ; retn 0xAC0E ; 
0x0016b82a: add dword [edx], ecx ; ret  ; 
0x000f56db: add dword [edx], esi ; call dword [eax+0x57E58955] ; 
0x0008fed5: add dword [esi+0x5F], ebx ; ret  ; 
0x0009ef1f: add dword [esi+ebp*8], 0xFFFFFFFA ; call dword [eax-0x18] ; 
0x0019a636: add dword [esi+ebx*2], 0x0A ; ret  ; 
0x001801ba: add dword [esi+ecx+0x00], ebp ; ret  ; 
0x001841be: add dword [esi+edi*2], 0x0A ; ret  ; 
0x0017d3be: add dword [esi+edx*2], 0x0A ; ret  ; 
0x001754de: add dword [esi+esi*2], 0x0A ; ret  ; 
0x000f6adb: add dword [esi], ebx ; call dword [eax+0x57E58955] ; 
0x00018992: add eax, 0x00000000 ; ret  ; 
0x00018659: add eax, 0x00000018 ; call eax ; 
0x0007723d: add eax, 0x01 ; ret  ; 
0x000a0567: add eax, 0x02 ; ret  ; 
0x0019e7b4: add eax, 0x02200E4B ; retn 0x0E0A ; 
0x000a0580: add eax, 0x03 ; ret  ; 
0x0013fd0c: add eax, 0x04 ; ret  ; 
0x0013fd10: add eax, 0x05 ; ret  ; 
0x00158541: add eax, 0x0521FFF0 ; call dword [edi] ; 
0x0015822d: add eax, 0x0549FFF0 ; call dword [ebx+0x05] ; 
0x0013fd14: add eax, 0x06 ; ret  ; 
0x00158391: add eax, 0x0695FFF0 ; jmp ebp ; 
0x0013fd12: add eax, 0x06C083C3 ; ret  ; 
0x0015854d: add eax, 0x06C9FFF0 ; jmp dword [ebp-0x7D000FFA] ; 
0x0013fcae: add eax, 0x07 ; ret  ; 
0x00101d78: add eax, 0x08 ; ret  ; 
0x0013fd20: add eax, 0x09 ; ret  ; 
0x0013fd24: add eax, 0x0A ; ret  ; 
0x001a8c78: add eax, 0x0A010203 ; ret  ; 
0x001749fc: add eax, 0x0A010803 ; ret  ; 
0x0016e5fc: add eax, 0x0A010B03 ; ret  ; 
0x001aa36f: add eax, 0x0A010C03 ; ret  ; 
0x001a5793: add eax, 0x0A010F03 ; ret  ; 
0x0016d7d3: add eax, 0x0A011003 ; ret  ; 
0x0018a0b3: add eax, 0x0A011703 ; ret  ; 
0x001a26a3: add eax, 0x0A011803 ; ret  ; 
0x001a9293: add eax, 0x0A012003 ; ret  ; 
0x0019ec33: add eax, 0x0A012203 ; ret  ; 
0x0018c6db: add eax, 0x0A013A03 ; ret  ; 
0x001733fb: add eax, 0x0A014103 ; ret  ; 
0x0016b827: add eax, 0x0A014403 ; ret  ; 
0x00170147: add eax, 0x0A014903 ; ret  ; 
0x0018c677: add eax, 0x0A014B03 ; ret  ; 
0x0016bc5b: add eax, 0x0A015003 ; ret  ; 
0x0018c6a8: add eax, 0x0A015303 ; ret  ; 
0x0017a237: add eax, 0x0A015603 ; ret  ; 
0x0019f8b3: add eax, 0x0A016003 ; ret  ; 
0x00196fbb: add eax, 0x0A017003 ; ret  ; 
0x001a033b: add eax, 0x0A017503 ; ret  ; 
0x0016b967: add eax, 0x0A017803 ; ret  ; 
0x001a977f: add eax, 0x0A018F03 ; ret  ; 
0x0019efd7: add eax, 0x0A019103 ; ret  ; 
0x00173f5c: add eax, 0x0A019703 ; ret  ; 
0x00178c23: add eax, 0x0A01A003 ; ret  ; 
0x001a903b: add eax, 0x0A01AE03 ; ret  ; 
0x00173d64: add eax, 0x0A01AF03 ; ret  ; 
0x0019eeeb: add eax, 0x0A01B703 ; ret  ; 
0x00174a5f: add eax, 0x0A01BA03 ; ret  ; 
0x0018b6ff: add eax, 0x0A01BB03 ; ret  ; 
0x00170047: add eax, 0x0A01C703 ; ret  ; 
0x0019bee7: add eax, 0x0A01CF03 ; ret  ; 
0x00173dc7: add eax, 0x0A01EF03 ; ret  ; 
0x00195b1f: add eax, 0x0A01F803 ; ret  ; 
0x001a939b: add eax, 0x0A01FA03 ; ret  ; 
0x001905b7: add eax, 0x0A020003 ; ret  ; 
0x001729b7: add eax, 0x0A021503 ; ret  ; 
0x0019fc57: add eax, 0x0A022A03 ; ret  ; 
0x0017785f: add eax, 0x0A023503 ; ret  ; 
0x0018c30f: add eax, 0x0A026103 ; ret  ; 
0x0018c547: add eax, 0x0A026903 ; ret  ; 
0x0016bfec: add eax, 0x0A028B03 ; ret  ; 
0x0016e38b: add eax, 0x0A029003 ; ret  ; 
0x001a91ef: add eax, 0x0A029B03 ; ret  ; 
0x00198ec7: add eax, 0x0A02BF03 ; ret  ; 
0x0019fd1b: add eax, 0x0A02F603 ; ret  ; 
0x00174c77: add eax, 0x0A02FB03 ; ret  ; 
0x0016e6d3: add eax, 0x0A032A03 ; ret  ; 
0x0016e3cb: add eax, 0x0A036A03 ; ret  ; 
0x0019b51f: add eax, 0x0A03C903 ; ret  ; 
0x00192de7: add eax, 0x0A03E303 ; ret  ; 
0x001931bb: add eax, 0x0A03F303 ; ret  ; 
0x00174bbf: add eax, 0x0A03F803 ; ret  ; 
0x0018c2bf: add eax, 0x0A041D03 ; ret  ; 
0x00198b3f: add eax, 0x0A043B03 ; ret  ; 
0x0018e300: add eax, 0x0A046603 ; ret  ; 
0x0018c467: add eax, 0x0A04F103 ; ret  ; 
0x0018db6b: add eax, 0x0A053103 ; ret  ; 
0x0019b29f: add eax, 0x0A057F03 ; ret  ; 
0x0018fec7: add eax, 0x0A069503 ; ret  ; 
0x00173fcb: add eax, 0x0A06D703 ; ret  ; 
0x00173d97: add eax, 0x0A080803 ; ret  ; 
0x00174a2f: add eax, 0x0A081803 ; ret  ; 
0x0013fcd6: add eax, 0x0B ; ret  ; 
0x001011ea: add eax, 0x0C ; ret  ; 
0x0013fd30: add eax, 0x0D ; ret  ; 
0x0013fd34: add eax, 0x0E ; ret  ; 
0x0013fcef: add eax, 0x0F ; ret  ; 
0x0003d024: add eax, 0x1CC48300 ; ret  ; 
0x000a7d23: add eax, 0x291FF8C1 ; ret  ; 
0x0018b741: add eax, 0x509C0002 ; jmp dword [esi] ; 
0x0018b75d: add eax, 0x50B00002 ; call esp ; 
0x0000374f: add eax, 0x572808A8 ; call dword [esi+0x6F] ; 
0x000f22aa: add eax, 0x5B08C483 ; ret  ; 
0x000816b9: add eax, 0x5B5F0000 ; ret  ; 
0x00083fe1: add eax, 0x5F0C428D ; ret  ; 
0x0008e3e4: add eax, 0x5F5BF889 ; ret  ; 
0x0001791d: add eax, 0x65000000 ; call dword [0x00000010] ; 
0x000d79c4: add eax, 0x67 ; call dword [eax-0x73] ; 
0x0010d0fc: add eax, 0x8100012A ; ret  ; 
0x000ccbfc: add eax, 0x8100052F ; ret  ; 
0x00020c73: add eax, 0x837E7400 ; ret  ; 
0x000e94cd: add eax, 0x89000000 ; call dword [0x00000010] ; 
0x000417f6: add eax, 0x89000000 ; retn 0x858B ; 
0x0006dbd4: add eax, 0x8900768D ; retn 0xD285 ; 
0x00022ba5: add eax, 0x89127420 ; retn 0x20BD ; 
0x0012e360: add eax, 0x8B1C035F ; jmp ebx ; 
0x00167335: add eax, 0xD5240002 ; jmp dword [ebp+eax+0x02] ; 
0x0016733c: add eax, 0xD5640002 ; call dword [ebp+eax-0x2A5BFFFE] ; 
0x000e87a6: add eax, 0xEB000000 ; ret  ; 
0x001141fc: add eax, 0xFFFE92E9 ; call dword [eax+0x6A] ; 
0x00114624: add eax, 0xFFFF14E9 ; jmp dword [esi-0x70] ; 
0x001160c8: add eax, 0xFFFF42E9 ; jmp dword [esi-0x70] ; 
0x000fb67a: add eax, 0xFFFF6CE9 ; call dword [ebp+0x57] ; 
0x00018990: add eax, dword [0x00000000] ; ret  ; 
0x0015854c: add eax, dword [0x06C9FFF0] ; jmp dword [ebp-0x7D000FFA] ; 
0x0004fc95: add eax, dword [eax+ebx*4-0x0005C308] ; jmp eax ; 
0x0004f95f: add eax, dword [eax+ebx*4-0x0005C458] ; jmp eax ; 
0x0004f7b2: add eax, dword [eax+ebx*4-0x0005C5A8] ; jmp eax ; 
0x0007796b: add eax, dword [eax+ecx*4-0x0005B230] ; jmp eax ; 
0x000c4f8e: add eax, dword [eax+edi-0x00059740] ; jmp eax ; 
0x00110d83: add eax, dword [eax+edx*4-0x00056F3C] ; jmp eax ; 
0x001104a3: add eax, dword [eax+edx*4-0x00056F7C] ; jmp eax ; 
0x0010daa5: add eax, dword [eax+edx*4-0x000573A0] ; jmp eax ; 
0x000a47ee: add eax, dword [eax+edx*4-0x0005A96C] ; jmp eax ; 
0x00055fcf: add eax, dword [eax+esi*4-0x0005BE5C] ; jmp eax ; 
0x00055dd7: add eax, dword [eax+esi*4-0x0005BFAC] ; jmp eax ; 
0x0016880e: add eax, dword [eax] ; ret  ; 
0x000a0657: add eax, dword [ebp+0x5BD475DB] ; ret  ; 
0x00029ceb: add eax, dword [ebp+ecx*4-0x00061180] ; jmp eax ; 
0x00043ab2: add eax, dword [ebp-0x00000488] ; jmp eax ; 
0x0004d8f7: add eax, dword [ebp-0x0000103C] ; jmp eax ; 
0x00173827: add eax, dword [ebx+0x0A460204] ; ret  ; 
0x0018aef3: add eax, dword [ebx+0x0A860204] ; ret  ; 
0x0011d1a9: add eax, dword [ebx+0x5E5B10C4] ; ret  ; 
0x0005e625: add eax, dword [ebx+0x5E5B14C4] ; ret  ; 
0x0016b828: add eax, dword [ecx+eax+0x0A] ; ret  ; 
0x0009a699: add eax, dword [ecx] ; ret  ; 
0x00027d07: add eax, dword [ecx] ; retn 0x8503 ; 
0x00027c1f: add eax, dword [ecx] ; retn 0xD001 ; 
0x00158b64: add eax, dword [edi-0x0F] ; call dword [ebx+0x48] ; 
0x0019bab9: add eax, dword [edx+0x0C0E5F04] ; retn 0x0E41 ; 
0x00177f67: add eax, dword [esi+0x02058304] ; ret  ; 
0x0003d3e0: add eax, dword [esp] ; ret  ; 
0x000b213b: add eax, ebp ; jmp eax ; 
0x00071cf9: add eax, ebx ; jmp eax ; 
0x000d1d6f: add eax, ecx ; jmp eax ; 
0x00044be2: add eax, ecx ; ret  ; 
0x000907c6: add eax, edi ; jmp eax ; 
0x000900c3: add eax, edx ; ret  ; 
0x001943ae: add ebp, dword [eax+0x0A] ; ret  ; 
0x00178c7e: add ebp, dword [ebx+0x0A] ; ret  ; 
0x0006dcbf: add ebp, dword [ecx] ; ret  ; 
0x00077aea: add ebp, dword [ecx] ; retn 0x0489 ; 
0x000a0e8e: add ebp, dword [ecx] ; retn 0x048D ; 
0x0010814d: add ebp, dword [ecx] ; retn 0x828D ; 
0x0007bfb1: add ebp, dword [ecx] ; retn 0xD089 ; 
0x000bbcda: add ebp, dword [ecx] ; retn 0xDA01 ; 
0x00020aff: add ebp, dword [ecx] ; retn 0xEAC1 ; 
0x000c75cc: add ebp, dword [ecx] ; retn 0xF201 ; 
0x000798d1: add ebp, dword [ecx] ; retn 0xFA83 ; 
0x001a88ea: add ebp, dword [edi+0x0A] ; ret  ; 
0x0017faca: add ebp, dword [esi+0x0A] ; ret  ; 
0x001837db: add ebp, dword [esi+ecx+0x08] ; ret  ; 
0x00022c6c: add ebp, ebx ; jmp ebp ; 
0x001984a9: add ebp, esi ; call dword [eax+eax+0x00] ; 
0x0019847d: add ebp, esi ; call dword [edx+0x00] ; 
0x001984e9: add ebp, esi ; jmp dword [ecx+eax+0x41000000] ; 
0x001654d1: add ebp, esp ; jmp eax ; 
0x0003fe62: add ebx, 0x34 ; call dword [edx+eax*4] ; 
0x0016f4d2: add ebx, dword [eax+0x0A] ; ret  ; 
0x000ac49c: add ebx, dword [ebx+0x5E] ; ret  ; 
0x00109d95: add ebx, dword [ebx+ecx*4-0x00058458] ; jmp ebx ; 
0x00128d6e: add ebx, dword [ebx+ecx*4] ; jmp ebx ; 
0x00127b9a: add ebx, dword [ebx+edi*4] ; jmp ebx ; 
0x0007770e: add ebx, dword [ebx+esi*4-0x0005B250] ; jmp ebx ; 
0x00157b48: add ebx, dword [ebx-0x11] ; call dword [ebx] ; 
0x0017c374: add ebx, dword [ecx+eax+0x43140E0A] ; ret  ; 
0x00197986: add ebx, dword [edi+0x0A] ; ret  ; 
0x0018a07e: add ebx, dword [edx+0x0A] ; ret  ; 
0x001ab5c2: add ebx, dword [esi+0x0A] ; ret  ; 
0x00075995: add ebx, dword [esi+0x5F] ; ret  ; 
0x001834ba: add ebx, dword [esi+ecx+0x08] ; ret  ; 
0x0016336c: add ebx, dword [esp+edi*8] ; jmp dword [eax-0x3F0003E5] ; 
0x000559df: add ebx, ecx ; jmp ebx ; 
0x0010b1ec: add ebx, edi ; call dword [eax-0x73] ; 
0x000a72e3: add ebx, edi ; jmp ebx ; 
0x0005c61d: add ebx, edx ; jmp ebx ; 
0x0018e1b0: add ecx, dword [eax+0x05] ; ret  ; 
0x00075992: add ecx, dword [ebp+0x5F5E0346] ; ret  ; 
0x0008bb19: add ecx, dword [ebx+0x5E082444] ; ret  ; 
0x00074cd3: add ecx, dword [ebx+0x5F082444] ; ret  ; 
0x000645de: add ecx, dword [ebx-0x0000D77E] ; jmp dword [ebp-0x75] ; 
0x00091199: add ecx, dword [ecx+0x5E5B084A] ; ret  ; 
0x0007dc76: add ecx, dword [ecx+0x5E5BFD58] ; ret  ; 
0x000877e9: add ecx, dword [ecx+ebx*4] ; jmp ecx ; 
0x000876c2: add ecx, dword [ecx+edx*4] ; jmp ecx ; 
0x0007fcb6: add ecx, dword [ecx-0x2F76FCBE] ; ret  ; 
0x00042fba: add ecx, dword [ecx] ; retn 0xB60F ; 
0x0016d8a1: add ecx, dword [edx] ; ret  ; 
0x000a925a: add ecx, eax ; jmp ecx ; 
0x000c6424: add ecx, ebp ; jmp ecx ; 
0x00019232: add ecx, ebx ; jmp ecx ; 
0x000e34d4: add ecx, ebx ; retn 0xCAD8 ; 
0x001694b9: add ecx, edi ; jmp dword [eax] ; 
0x000bab36: add ecx, edi ; jmp ecx ; 
0x0017f942: add edi, dword [ecx+0x0A] ; ret  ; 
0x0019af76: add edi, dword [ecx+eax+0x0A] ; ret  ; 
0x0001d17f: add edi, dword [ecx] ; ret  ; 
0x00090842: add edi, dword [edi+eax*4-0x0005ACDC] ; jmp edi ; 
0x000907fa: add edi, dword [edi+ecx*4-0x0005AD1C] ; jmp edi ; 
0x000259fc: add edi, dword [edi+ecx*4-0x000611C0] ; jmp edi ; 
0x0017fa4a: add edi, dword [edx+0x0A] ; ret  ; 
0x00113b1d: add edi, ebx ; call dword [eax-0x73] ; 
0x0011006d: add edi, ebx ; jmp edi ; 
0x000b89cb: add edi, ecx ; jmp edi ; 
0x001694c8: add edi, ecx ; jmp esp ; 
0x001a933d: add edi, esi ; call dword [ebp+0x00] ; 
0x00168149: add edi, esi ; jmp dword [eax] ; 
0x001a9385: add edi, esi ; jmp dword [ecx+0x04] ; 
0x0002c5cf: add edi, esi ; retn 0x0000 ; 
0x000df02f: add edx, 0x000D2FD1 ; call dword [0x00000010] ; 
0x0010300a: add edx, 0x01 ; call dword [0x00000010] ; 
0x0006b7e9: add edx, dword [eax+eax+0x53510000] ; call dword [eax+0x18] ; 
0x0004a590: add edx, dword [ebx+eax*4-0x0005CA40] ; jmp edx ; 
0x00114b21: add edx, dword [ebx-0x77] ; ret  ; 
0x00040487: add edx, dword [ecx+eax*4-0x0005CE40] ; jmp edx ; 
0x00174a7e: add edx, dword [ecx+eax+0x0A] ; ret  ; 
0x0011f9b4: add edx, dword [edx+eax*4-0x00056DFC] ; jmp edx ; 
0x0007dc22: add edx, dword [edx+ecx*4-0x0005B1C8] ; jmp edx ; 
0x0007db62: add edx, dword [edx+ecx*4-0x0005B1EC] ; jmp edx ; 
0x0007da60: add edx, dword [edx+ecx*4-0x0005B210] ; jmp edx ; 
0x00183454: add edx, dword [esi+ecx+0x08] ; ret  ; 
0x00029f07: add edx, ebp ; jmp edx ; 
0x000b2890: add edx, ebx ; jmp edx ; 
0x00124e92: add edx, ecx ; jmp ebx ; 
0x0004f6fd: add edx, ecx ; jmp edx ; 
0x000c6992: add edx, edi ; jmp edx ; 
0x000c71ba: add edx, esi ; jmp edx ; 
0x001919ae: add esi, dword [eax+0x0A] ; ret  ; 
0x000ffdc1: add esi, dword [eax+ebp*2-0x7D] ; retn 0x8303 ; 
0x00173222: add esi, dword [ebx+0x0A] ; ret  ; 
0x001a36ea: add esi, dword [ecx+0x0A] ; ret  ; 
0x00069824: add esi, dword [ecx] ; jmp dword [0x00000808] ; 
0x0017752a: add esi, dword [edx+0x0A] ; ret  ; 
0x001733ce: add esi, dword [esi+0x0A] ; ret  ; 
0x0007e0ad: add esi, dword [esi+ebx-0x7D] ; retn 0x0F01 ; 
0x001582e9: add esi, eax ; call dword [ecx+0x03] ; 
0x0015831d: add esi, eax ; call ebp ; 
0x00158309: add esi, eax ; jmp dword [ebx-0x52000FFD] ; 
0x001582d9: add esi, eax ; jmp dword [ebx] ; 
0x001582f1: add esi, eax ; jmp dword [edi+0x03] ; 
0x00198671: add esi, ebp ; call dword [eax+eax+0x41000000] ; 
0x00167b31: add esi, ebp ; call dword [ebx+esi*2+0x02] ; 
0x00167b21: add esi, ebp ; call dword [ebx+esi*2] ; 
0x0019872d: add esi, ebp ; jmp dword [ebp+0x00000000] ; 
0x001986cd: add esi, ebp ; jmp dword [edi] ; 
0x00166c39: add esi, ecx ; jmp dword [edx+ecx*4+0x03D40001] ; 
0x00076c52: add esi, ecx ; jmp ebx ; 
0x00168179: add esi, edi ; jmp dword [edx+ecx*8+0x02] ; 
0x0019fb8d: add esi, esi ; call dword [eax+eax+0x41000000] ; 
0x0019fc41: add esi, esi ; call dword [ebx] ; 
0x000c423a: add esi, esi ; ret  ; 
0x000f0171: add esi, esi ; retn 0x0F04 ; 
0x0004a35b: add esi, esi ; retn 0x0F40 ; 
0x000f462e: add esi, esi ; retn 0x7503 ; 
0x00076991: add esp, 0x00000100 ; ret  ; 
0x0003e89b: add esp, 0x04 ; jmp eax ; 
0x0002b5ea: add esp, 0x04 ; ret  ; 
0x0002b3e5: add esp, 0x08 ; ret  ; 
0x0003ec02: add esp, 0x0C ; ret  ; 
0x000ca1bc: add esp, 0x10 ; ret  ; 
0x000d8868: add esp, 0x14 ; ret  ; 
0x000acc44: add esp, 0x18 ; ret  ; 
0x0011cef1: add esp, 0x1C ; rep ret  ; 
0x00018780: add esp, 0x1C ; ret  ; 
0x00018e35: add esp, 0x24 ; ret  ; 
0x0002e0ea: add esp, 0x2C ; ret  ; 
0x000d501f: add esp, 0x3C ; ret  ; 
0x00112e20: add esp, 0x4C ; ret  ; 
0x0005b972: add esp, 0x6C ; ret  ; 
0x00197aba: add esp, dword [eax+0x0A] ; ret  ; 
0x0018fce6: add esp, dword [edx+0x0A] ; ret  ; 
0x001836a9: add esp, dword [esi+ecx+0x08] ; ret  ; 
0x00165451: add esp, ebp ; jmp dword [eax+0x6400008E] ; 
0x00165439: add esp, ebp ; jmp dword [esi+ecx*4+0x00] ; 
0x00190101: add esp, esi ; call esp ; 
0x000e9966: add word [edx+eax*2], 0x0001 ; ret  ; 
0x001633b1: and ah, bh ; call dword [ebx+0x20] ; 
0x00163575: and ah, bh ; jmp dword [eax+0x20] ; 
0x00163579: and ah, bh ; jmp dword [eax+0x45FFFC20] ; 
0x00163535: and ah, bh ; jmp dword [ebp+0x20] ; 
0x00163538: and ah, bh ; jmp dword [ebp-0x4F0003E0] ; 
0x0018ca90: and ah, bh ; jmp dword [ecx+0x00000000] ; 
0x00165551: and ah, ch ; jmp dword [esp+edx*4+0x00] ; 
0x0002b26b: and al, 0x04 ; ret  ; 
0x0001838c: and al, 0x08 ; call dword [0x00000010] ; 
0x0002531d: and al, 0x08 ; ret  ; 
0x000d6d75: and al, 0x09 ; retn 0xBB75 ; 
0x000d4f5f: and al, 0x0C ; call dword [0x00000010] ; 
0x00074590: and al, 0x0C ; call dword [edx] ; 
0x000ad3bf: and al, 0x0C ; call eax ; 
0x0006d40f: and al, 0x0C ; call edx ; 
0x0002a8b6: and al, 0x10 ; call dword [0x00000010] ; 
0x0011cabe: and al, 0x10 ; call dword [eax+0x00000200] ; 
0x0006ef2a: and al, 0x10 ; call eax ; 
0x000fe4ee: and al, 0x10 ; call ebx ; 
0x000fe36d: and al, 0x10 ; call edi ; 
0x000d6a28: and al, 0x14 ; call dword [0x00000010] ; 
0x0011178d: and al, 0x14 ; call dword [eax+0x10] ; 
0x00074784: and al, 0x14 ; call dword [ebx+0x20] ; 
0x0011a472: and al, 0x14 ; call dword [ebx-0x00000CDC] ; 
0x000fdd08: and al, 0x14 ; call dword [esp+0x3C] ; 
0x001096d6: and al, 0x14 ; call eax ; 
0x000e7155: and al, 0x18 ; call dword [0x00000010] ; 
0x0011cea9: and al, 0x18 ; call dword [eax+0x000001EC] ; 
0x0006da8c: and al, 0x18 ; call dword [eax] ; 
0x0011a4d2: and al, 0x18 ; call dword [ebx-0x00000CDC] ; 
0x0006c49c: and al, 0x18 ; call dword [esi+0x0000009C] ; 
0x00021ec7: and al, 0x18 ; call eax ; 
0x0002d66f: and al, 0x18 ; call edi ; 
0x000f4395: and al, 0x1C ; call dword [0x00000010] ; 
0x0011cfb5: and al, 0x1C ; call dword [eax+0x000001FC] ; 
0x0011a681: and al, 0x1C ; call dword [eax+0x04] ; 
0x0011a965: and al, 0x1C ; call dword [eax+0x0C] ; 
0x0010f77e: and al, 0x1C ; call dword [eax+0x10] ; 
0x0006d3ca: and al, 0x1C ; call dword [eax] ; 
0x000fe3bb: and al, 0x1C ; call dword [esp+0x40] ; 
0x00018908: and al, 0x1C ; call eax ; 
0x00189c9c: and al, 0x1F ; call dword [edx+0x00] ; 
0x000deae0: and al, 0x20 ; call dword [0x00000010] ; 
0x0006ef6a: and al, 0x20 ; call eax ; 
0x00121663: and al, 0x21 ; retn 0xC483 ; 
0x001673f0: and al, 0x22 ; call dword [esp+edx+0x46540002] ; 
0x000d58e4: and al, 0x24 ; call dword [0x00000010] ; 
0x00062f1b: and al, 0x24 ; call dword [edx+0x00000098] ; 
0x000ee933: and al, 0x24 ; call eax ; 
0x0002d63b: and al, 0x24 ; call edi ; 
0x00069a4e: and al, 0x28 ; call dword [0x00000010] ; 
0x0006c60e: and al, 0x28 ; call dword [ebp+0x0000009C] ; 
0x000be02e: and al, 0x29 ; ret  ; 
0x0001d355: and al, 0x29 ; retn 0x038B ; 
0x000f4ba9: and al, 0x29 ; retn 0xD089 ; 
0x0006f441: and al, 0x29 ; retn 0xF001 ; 
0x000e70bd: and al, 0x2C ; call dword [0x00000010] ; 
0x0010a2a9: and al, 0x2C ; call dword [eax+0x18] ; 
0x00108f16: and al, 0x2C ; call dword [eax] ; 
0x0002d53f: and al, 0x2C ; call dword [esp+0x40] ; 
0x000adb23: and al, 0x30 ; call dword [0x00000010] ; 
0x0006edbe: and al, 0x30 ; call dword [esi] ; 
0x000debb0: and al, 0x34 ; call dword [0x00000010] ; 
0x0009ed3c: and al, 0x38 ; call ebx ; 
0x0007516c: and al, 0x39 ; retn 0x840F ; 
0x000e0330: and al, 0x3C ; call dword [0x00000010] ; 
0x0010f846: and al, 0x3C ; call dword [eax+0x14] ; 
0x000e41af: and al, 0x3C ; call dword [esp+0x48] ; 
0x0001d815: and al, 0x3C ; call eax ; 
0x0001bc36: and al, 0x3C ; call ebp ; 
0x0001bcc2: and al, 0x3C ; call edi ; 
0x0001c442: and al, 0x3C ; call esi ; 
0x000de6e9: and al, 0x40 ; call dword [0x00000010] ; 
0x001666a8: and al, 0x40 ; call dword [esp+ecx*2+0x01] ; 
0x0001c060: and al, 0x40 ; call ebp ; 
0x0001be08: and al, 0x40 ; call edi ; 
0x0001d003: and al, 0x44 ; call eax ; 
0x0001c880: and al, 0x44 ; call ebp ; 
0x0001d59f: and al, 0x44 ; call ebx ; 
0x0001c638: and al, 0x44 ; call edi ; 
0x0001cdd8: and al, 0x48 ; call edi ; 
0x0018b4dc: and al, 0x4B ; call dword [ecx+0x00] ; 
0x000dcede: and al, 0x4C ; call dword [0x00000010] ; 
0x0010fa5d: and al, 0x4C ; call dword [eax+0x10] ; 
0x00073e75: and al, 0x4C ; call eax ; 
0x0001f438: and al, 0x4C ; call edi ; 
0x0001f6c1: and al, 0x4C ; call esi ; 
0x0001cac8: and al, 0x50 ; call edi ; 
0x0001f060: and al, 0x50 ; call esi ; 
0x00044798: and al, 0x52 ; call eax ; 
0x0002d9e3: and al, 0x56 ; call edi ; 
0x0001e060: and al, 0x58 ; call edi ; 
0x0001e3e8: and al, 0x58 ; call esi ; 
0x0002402f: and al, 0x5B ; ret  ; 
0x000f8713: and al, 0x5C ; call dword [esp+0x38] ; 
0x000ae3fa: and al, 0x5C ; call dword [esp+0x3C] ; 
0x00106a8b: and al, 0x60 ; call dword [esp+0x60] ; 
0x000d58e5: and al, 0x65 ; call dword [0x00000010] ; 
0x000a18f3: and al, 0x69 ; retn 0x0190 ; 
0x00018631: and al, 0x70 ; call dword [esp+0x70] ; 
0x000185c1: and al, 0x70 ; call dword [esp+0x7C] ; 
0x000d5046: and al, 0x74 ; call dword [0x00000010] ; 
0x00166908: and al, 0x77 ; jmp dword [eax] ; 
0x000d507b: and al, 0x78 ; call dword [0x00000010] ; 
0x00166920: and al, 0x78 ; call esp ; 
0x00166960: and al, 0x7E ; jmp dword [eax+ebp*2+0x7FD40001] ; 
0x000253a8: and al, 0x81 ; ret  ; 
0x0002413a: and al, 0x81 ; retn 0x0100 ; 
0x000487e2: and al, 0x83 ; ret  ; 
0x0002a6f2: and al, 0x83 ; retn 0x0101 ; 
0x00022cb3: and al, 0x83 ; retn 0x3901 ; 
0x00022be4: and al, 0x83 ; retn 0x831C ; 
0x000cac21: and al, 0x83 ; retn 0x8901 ; 
0x000ee9e3: and al, 0x83 ; retn 0xF601 ; 
0x00063d00: and al, 0x89 ; ret  ; 
0x00021bf0: and al, 0x89 ; retn 0x01BE ; 
0x0002b889: and al, 0x89 ; retn 0xE281 ; 
0x00167568: and al, 0xBC ; jmp dword [ecx+esi] ; 
0x00184afc: and al, 0xC0 ; jmp dword [edi] ; 
0x0010b922: and al, 0xD1 ; ret  ; 
0x00167318: and al, 0xD4 ; jmp dword [esp+eax-0x2B9BFFFE] ; 
0x00167338: and al, 0xD5 ; jmp dword [ebp+eax+0x02] ; 
0x000ffe17: and al, 0xE8 ; ret  ; 
0x000caf17: and al, 0xEB ; retn 0xB68D ; 
0x00166580: and al, 0xF0 ; jmp dword [esp+edi+0x25A40001] ; 
0x00166db9: and al, 0xF1 ; jmp dword [eax+0x24000194] ; 
0x0018a06d: and al, 0xF2 ; jmp dword [edi] ; 
0x00157075: and al, 0xF3 ; call dword [eax-0x4F000CDC] ; 
0x0015707d: and al, 0xF3 ; call eax ; 
0x0015706d: and al, 0xF3 ; jmp dword [eax+0x24] ; 
0x00157081: and al, 0xF3 ; jmp eax ; 
0x000f45d1: and al, 0xF4 ; call dword [edx-0x01] ; 
0x000d57a8: and al, 0xF6 ; ret  ; 
0x00168321: and al, 0xF7 ; jmp dword [ecx+ebx*8+0x02] ; 
0x00169699: and al, 0xF9 ; call dword [ecx+eax*4] ; 
0x00163949: and al, 0xFC ; call dword [0x2544FFFC] ; 
0x00163a45: and al, 0xFC ; call eax ; 
0x00163a05: and al, 0xFC ; call ebp ; 
0x001637bd: and al, 0xFC ; jmp dword [eax+0x21] ; 
0x001637f5: and al, 0xFC ; jmp dword [eax+0x24] ; 
0x001637f9: and al, 0xFC ; jmp dword [eax+0x45FFFC24] ; 
0x00163a41: and al, 0xFC ; jmp dword [eax-0x2F0003DC] ; 
0x0016377d: and al, 0xFC ; jmp dword [ebp+0x21] ; 
0x001637b5: and al, 0xFC ; jmp dword [ebp+0x24] ; 
0x001637b8: and al, 0xFC ; jmp dword [ebp+0x60FFFC24] ; 
0x00163a01: and al, 0xFC ; jmp dword [ebp-0x2A0003DC] ; 
0x00163888: and al, 0xFC ; jmp dword [ebx] ; 
0x00163945: and al, 0xFC ; jmp esp ; 
0x00116cca: and al, 0xFFFFFFF0 ; jmp dword [esi-0x70] ; 
0x00168ba9: and al, bh ; jmp eax ; 
0x000a5fa7: and al, ch ; ret  ; 
0x00166559: and al, dh ; call dword [eax+0x3B] ; 
0x001637d1: and bh, ah ; call dword [eax+0x22] ; 
0x00163791: and bh, ah ; call dword [ebp+0x22] ; 
0x0016361d: and bh, ah ; call dword [ebx] ; 
0x001636d4: and bh, ah ; call dword [edx+0x22C4FFFC] ; 
0x00163619: and bh, ah ; call ebx ; 
0x001637a1: and bh, ah ; jmp dword [0x65FFFC23] ; 
0x001637e0: and bh, ah ; jmp dword [eax] ; 
0x00163615: and bh, ah ; jmp dword [ebx-0x2C0003DE] ; 
0x001636d1: and bh, ah ; jmp dword [edx-0x04] ; 
0x00067cf5: and bh, cl ; ret  ; 
0x001aa3e5: and bh, dh ; call eax ; 
0x001aa399: and bh, dh ; jmp dword [edi+0x00] ; 
0x000ca05b: and bh, dh ; ret  ; 
0x00066818: and bl, bh ; jmp dword [esi-0x70] ; 
0x00156ffd: and bl, dh ; call dword [eax+0x20] ; 
0x00157009: and bl, dh ; call eax ; 
0x00157005: and bl, dh ; jmp dword [eax-0x2F000CE0] ; 
0x0015708c: and byte [0x2540FFF3], ah ; jmp dword [eax+0x25] ; 
0x000e89bf: and byte [eax+0x00000159], bh ; call dword [0x00000010] ; 
0x0019c4ea: and byte [eax+0x0A], ah ; ret  ; 
0x0019cba6: and byte [eax+0x0A], ch ; ret  ; 
0x000745f1: and byte [eax+0x52], dl ; call dword [esp+0x4C] ; 
0x000e9e93: and byte [eax+0x7C], 0xFFFFFFF3 ; call dword [eax+0x6A] ; 
0x000e52df: and byte [eax+edi*8], 0xFFFFFFFA ; call dword [eax-0x73] ; 
0x00164380: and byte [eax-0x04], bh ; jmp eax ; 
0x001a15f0: and byte [eax-0x0A], dl ; jmp dword [eax+0x00000001] ; 
0x00067b8b: and byte [eax-0x15], bl ; call dword [eax-0x73] ; 
0x000a2083: and byte [eax-0x6AF0D205], al ; ret  ; 
0x0004f7cd: and byte [eax-0x7BF09305], al ; retn 0x002B ; 
0x000a127d: and byte [ebp+0x505C2444], cl ; call dword [esp+0x000000E4] ; 
0x00111035: and byte [ebp+0x50], dl ; call dword [ecx+0x04] ; 
0x00108d12: and byte [ebp+0x74C689C0], al ; ret  ; 
0x00106537: and byte [ebp-0x00033F55], cl ; jmp dword [esi-0x70] ; 
0x0001c167: and byte [ebp-0x04F51F79], cl ; call dword [eax+0x68] ; 
0x0001c18a: and byte [ebp-0x04F51F79], cl ; call dword [eax-0x73] ; 
0x0001deb0: and byte [ebp-0x04F63F7D], cl ; call dword [eax+0x68] ; 
0x0001d97b: and byte [ebp-0x04F63F7D], cl ; call dword [eax-0x73] ; 
0x001640c4: and byte [ebp-0x04], dh ; call eax ; 
0x0009f587: and byte [ebp-0x0511BF7D], cl ; call dword [eax-0x73] ; 
0x0001dd4b: and byte [ebp-0x052FCF7D], cl ; call dword [eax-0x73] ; 
0x000ee40d: and byte [ebp-0x0540287D], cl ; call dword [eax-0x01] ; 
0x000ad379: and byte [ebp-0x0551B17D], cl ; call dword [eax+0x57] ; 
0x000e5997: and byte [ebp-0x3DBBF040], al ; ret  ; 
0x000cd8d3: and byte [ebp-0x7CFFD98C], cl ; ret  ; 
0x001793de: and byte [ebx+0x0A], dh ; ret  ; 
0x0011e528: and byte [ebx+0x390C2454], cl ; retn 0xA773 ; 
0x00075168: and byte [ebx+0x39242444], cl ; retn 0x840F ; 
0x0010866f: and byte [ebx+0x50], dl ; call dword [edx+0x08] ; 
0x0005e4aa: and byte [ebx+0x5E5B04C4], al ; ret  ; 
0x000ef8dd: and byte [ebx+0x5E5B14C4], al ; ret  ; 
0x000d58e1: and byte [ebx+0x6524244C], cl ; call dword [0x00000010] ; 
0x000e8e5b: and byte [ebx+0x6524247C], cl ; call dword [0x00000010] ; 
0x000e70ba: and byte [ebx+0x652C247C], cl ; call dword [0x00000010] ; 
0x0018ce40: and byte [ebx+esi*8], al ; call dword [edi] ; 
0x00156eb4: and byte [ebx+esi*8], cl ; call dword [eax+0x0C] ; 
0x000785bd: and byte [ebx-0x0000777D], cl ; jmp dword [ebp-0x75] ; 
0x0017d750: and byte [ebx-0x04], ah ; jmp dword [edi+0x00] ; 
0x0017d6e0: and byte [ebx-0x11], dh ; call ebx ; 
0x00144444: and byte [ebx-0x1A], dh ; jmp dword [eax] ; 
0x00163818: and byte [ebx], 0xFFFFFFFC ; jmp dword [edx+0x3FFFFC23] ; 
0x00157040: and byte [ebx], ah ; call dword [eax+0x23] ; 
0x0002f46c: and byte [ecx+0x5F5E5BF0], cl ; ret  ; 
0x000d3382: and byte [ecx+edx-0x7D], dh ; ret  ; 
0x00036e98: and byte [ecx-0x16CFDBBC], cl ; ret  ; 
0x000a4e81: and byte [ecx-0x7CEC8B30], cl ; ret  ; 
0x0008fd05: and byte [ecx], al ; retn 0x167C ; 
0x00079acf: and byte [ecx], bh ; ret  ; 
0x0005eceb: and byte [ecx], ch ; retn 0x07F6 ; 
0x0006a25e: and byte [ecx], ch ; retn 0x5052 ; 
0x0011badb: and byte [ecx], cl ; ret  ; 
0x00175ad2: and byte [edi+0x0A], ah ; ret  ; 
0x0019c402: and byte [edi+0x0A], bh ; ret  ; 
0x00108521: and byte [edi+0x50], dl ; call dword [edx+0x04] ; 
0x0010dea7: and byte [edi+0x50], dl ; call dword [edx+0x08] ; 
0x0007e4f7: and byte [edi+0x5E], bl ; ret  ; 
0x00060637: and byte [edi+0x6A], dl ; call dword [edi+0x56] ; 
0x000d0f26: and byte [edi+edx-0x7D], dh ; ret  ; 
0x000406b7: and byte [edi-0x18], dl ; retn 0x01EE ; 
0x001570f4: and byte [edi], 0xFFFFFFF3 ; call dword [eax-0x5F000CD9] ; 
0x001570d8: and byte [edi], 0xFFFFFFF3 ; jmp dword [eax-0x3F000CD9] ; 
0x0017829e: and byte [edx+0x0A], ah ; ret  ; 
0x0012ed29: and byte [edx+0x6B], 0xFFFFFFFC ; jmp dword [esi-0x70] ; 
0x00167fac: and byte [edx+eax-0x09426C00], dh ; jmp dword [eax-0x4C] ; 
0x00022ba6: and byte [edx+edx-0x77], dh ; retn 0x20BD ; 
0x000caa5a: and byte [edx-0x50], 0xFFFFFFFA ; call dword [eax-0x18] ; 
0x0019e7b7: and byte [edx], al ; retn 0x0E0A ; 
0x00176082: and byte [esi+0x0A], dh ; ret  ; 
0x0010dcbd: and byte [esi+0x50], dl ; call dword [edx+0x04] ; 
0x000e5487: and byte [esi+esi*4-0x7D], dh ; ret  ; 
0x0013de5e: and byte [esi-0x01], 0xFFFFFFFF ; jmp dword [esi+0x0F] ; 
0x001645b0: and byte [esi-0x592F0004], 0xFFFFFFFC ; jmp dword [eax] ; 
0x00163afc: and byte [esi], 0xFFFFFFFC ; jmp dword [ebx+0x27] ; 
0x001637f4: and byte [esp+edi*8], ah ; jmp dword [eax+0x24] ; 
0x00191e70: and byte [esp+esi*8], bh ; call dword [ecx+0x00] ; 
0x00003abe: and cl, ah ; ret  ; 
0x00169669: and cl, bh ; jmp dword [eax+0x7E] ; 
0x00041fd2: and cl, ch ; ret  ; 
0x0003e26b: and cl, ch ; retn 0xFFFE ; 
0x00166d59: and cl, dh ; call dword [eax-0x6D] ; 
0x001aa621: and dh, bh ; jmp dword [ecx] ; 
0x00157031: and dh, bl ; call dword [eax-0x3F000CDE] ; 
0x001673f1: and dh, bl ; call dword [esp+edx+0x46540002] ; 
0x0015702d: and dh, bl ; jmp dword [eax+0x22] ; 
0x0015703c: and dh, bl ; jmp dword [eax] ; 
0x00113655: and dh, cl ; call dword [eax-0x73] ; 
0x00166d91: and dh, cl ; call dword [eax] ; 
0x00164b88: and dl, 0xFFFFFFFC ; call dword [edx] ; 
0x000f689c: and dl, dh ; call dword [eax+0x57E58955] ; 
0x00189e01: and dl, dh ; jmp dword [edi+0x00] ; 
0x00163894: and dword [0x25B3FFFC], 0xFFFFFFFC ; jmp ebx ; 
0x00110068: and dword [eax+0x01FFFA8C], 0xFFFFFFDF ; jmp edi ; 
0x000a0b47: and dword [eax+0x0B], 0xFFFFFFFB ; call dword [eax+0x57] ; 
0x000b35cb: and dword [eax+esi*8], 0xFFFFFFFA ; call dword [eax+0x68] ; 
0x00102e64: and dword [eax-0x02], 0xFFFFFFFA ; call dword [esi+0x52] ; 
0x000ddf3d: and dword [eax-0x09], 0xFFFFFFFA ; call dword [eax-0x73] ; 
0x000cd316: and dword [eax-0x0C], 0xFFFFFFFA ; call dword [eax-0x18] ; 
0x0001b272: and dword [eax-0x32], 0xFFFFFFFA ; call dword [eax-0x73] ; 
0x000e6bf2: and dword [eax-0x43], 0xFFFFFFFA ; call dword [edi+0x57] ; 
0x00067cf4: and dword [eax], 0xFFFFFFCF ; ret  ; 
0x00154a5c: and dword [eax], edx ; jmp dword [edi] ; 
0x000b0889: and dword [ebp-0x51], 0xFFFFFFFA ; call dword [eax+0x6A] ; 
0x0011a494: and dword [ebx+esi*8], 0xFFFFFFFF ; call dword [esi-0x01] ; 
0x000c9bdd: and dword [ecx-0x4F], 0xFFFFFFFA ; call dword [eax-0x18] ; 
0x0007dcdf: and dword [ecx], edi ; ret  ; 
0x001057c9: and dword [edi+eax*8], 0xFFFFFFFA ; call dword [eax+0x6A] ; 
0x00103dfe: and dword [edi+eax*8], 0xFFFFFFFA ; call dword [eax-0x18] ; 
0x000e65a6: and dword [edx-0x46], 0xFFFFFFFA ; call dword [eax-0x01] ; 
0x000ae236: and dword [edx-0x52], 0xFFFFFFFA ; call dword [eax-0x18] ; 
0x0013948b: and dword [esi-0x0B], ebp ; call dword [eax+0x1024448B] ; 
0x000fa046: and dword [esi-0x3D], 0xFFFFFFFA ; call dword [eax-0x18] ; 
0x000e6790: and dword [esi-0x45], 0xFFFFFFFA ; call dword [eax-0x01] ; 
0x00163aec: and dword [esi], 0xFFFFFFFC ; jmp dword [eax] ; 
0x00163638: and dword [esp+edi*8], 0xFFFFFFFF ; ret  ; 
0x0002b51a: and eax, 0x00000200 ; ret  ; 
0x00066fd6: and eax, 0x00000804 ; ret  ; 
0x000de357: and eax, 0x0000100F ; ret  ; 
0x000f791a: and eax, 0x00FFFFFF ; ret  ; 
0x000250c2: and eax, 0x01 ; ret  ; 
0x0018d779: and eax, 0x1E540002 ; call dword [ebx+0x00000001] ; 
0x0015708d: and eax, 0x2540FFF3 ; jmp dword [eax+0x25] ; 
0x00157095: and eax, 0x2580FFF3 ; jmp dword [eax-0x3F000CDB] ; 
0x0015709d: and eax, 0x25C0FFF3 ; call eax ; 
0x001570a5: and eax, 0x25F0FFF3 ; call dword [eax] ; 
0x0007110a: and eax, 0x3908428B ; retn 0xE675 ; 
0x0002c15b: and eax, 0x65000000 ; call dword [0x00000010] ; 
0x000e793b: and eax, 0x65000001 ; call dword [0x00000010] ; 
0x00025134: and eax, 0x7F ; ret  ; 
0x000f81dc: and eax, 0x81000279 ; ret  ; 
0x000af1dc: and eax, 0x81000709 ; ret  ; 
0x000312fa: and eax, 0x83000002 ; retn 0x3901 ; 
0x00090db4: and eax, 0x8300768D ; ret  ; 
0x000a97e6: and eax, 0x8384458B ; ret  ; 
0x0005bb02: and eax, 0x89FFFFFF ; retn 0xF4E9 ; 
0x0016748d: and eax, 0x98040002 ; call dword [esi+0x02] ; 
0x0002531b: and eax, dword [esp+0x08] ; ret  ; 
0x0002b7f6: and eax, ecx ; ret  ; 
0x00168be9: and eax, edi ; call eax ; 
0x0002b1f6: and eax, edx ; ret  ; 
0x00158cd0: and ebp, dword [esi-0x0F] ; jmp dword [ebx] ; 
0x00199959: and ebp, esi ; call dword [ecx+0x00000004] ; 
0x00157019: and ebx, esi ; call dword [eax-0x4F000CDF] ; 
0x00157021: and ebx, esi ; call eax ; 
0x00157015: and ebx, esi ; jmp dword [eax+0x21] ; 
0x0009170c: and ecx, dword [ebp-0x0513B77D] ; call dword [eax-0x73] ; 
0x00028bbe: and ecx, dword [ebp-0x18977F7D] ; call dword [eax+0x6A] ; 
0x00166d69: and ecx, esi ; call dword [ebx+edx*4+0x21C40001] ; 
0x00166d61: and ecx, esi ; jmp dword [ebx+edx*4+0x01] ; 
0x00150fa9: and edi, 0xE78182FF ; jmp dword [esi] ; 
0x000f5cc5: and edi, dword [eax+0x00000003] ; call dword [0x00000010] ; 
0x000f5e15: and edi, dword [eax+0x00000055] ; call dword [0x00000010] ; 
0x000d3fc4: and edi, dword [eax+0x000000B4] ; call dword [0x00000010] ; 
0x000d4064: and edi, dword [eax+0x000000B5] ; call dword [0x00000010] ; 
0x000df334: and edi, dword [eax+0x0000014D] ; call dword [0x00000010] ; 
0x000df494: and edi, dword [eax+0x0000014E] ; call dword [0x00000010] ; 
0x000e8924: and edi, dword [eax+0x00000151] ; call dword [0x00000010] ; 
0x00168c01: and edi, eax ; jmp dword [edx+ebp+0x23540003] ; 
0x0009f6d9: and edi, edi ; jmp dword [esi-0x70] ; 
0x00163871: and edi, esp ; call dword [eax+0x23] ; 
0x00163879: and edi, esp ; call dword [eax-0x6C0003DD] ; 
0x00163861: and edi, esp ; call dword [ebx+0x23] ; 
0x00163869: and edi, esp ; call dword [ebx+0x30FFFC23] ; 
0x0016387d: and edi, esp ; call dword [ebx-0x3C0003DC] ; 
0x00163850: and edi, esp ; call dword [esi+0x23] ; 
0x00163859: and edi, esp ; call dword [esi+0x33FFFC23] ; 
0x001637b1: and edi, esp ; jmp dword [0x65FFFC24] ; 
0x001637e5: and edi, esp ; jmp dword [eax+0x23] ; 
0x001637e9: and edi, esp ; jmp dword [eax-0x1F0003DD] ; 
0x001637f1: and edi, esp ; jmp dword [eax] ; 
0x001637a5: and edi, esp ; jmp dword [ebp+0x23] ; 
0x00163809: and edi, esp ; jmp dword [ebp+0x42FFFC23] ; 
0x001637a8: and edi, esp ; jmp dword [ebp-0x1A0003DD] ; 
0x00163811: and edi, esp ; jmp dword [edx+0x23] ; 
0x00163819: and edi, esp ; jmp dword [edx+0x3FFFFC23] ; 
0x001637ed: and edi, esp ; jmp eax ; 
0x001637ad: and edi, esp ; jmp ebp ; 
0x000f678c: and edx, esi ; call dword [eax+0x57E58955] ; 
0x00189ef1: and edx, esi ; jmp dword [edx+0x00000001] ; 
0x00157041: and esi, ebx ; call dword [eax+0x23] ; 
0x00157051: and esi, ebx ; call dword [eax] ; 
0x0018d9c1: and esi, ebx ; jmp dword [esi] ; 
0x0015704d: and esi, ebx ; jmp eax ; 
0x00189f69: and esi, edx ; jmp dword [edi+0x00] ; 
0x001637c1: and esp, edi ; call dword [eax-0x3F0003DF] ; 
0x00163780: and esp, edi ; call dword [ebp-0x3A0003DF] ; 
0x00163609: and esp, edi ; call dword [ebx] ; 
0x001636c5: and esp, edi ; call esp ; 
0x0016378d: and esp, edi ; jmp dword [0x55FFFC22] ; 
0x001637cc: and esp, edi ; jmp dword [eax] ; 
0x001636c1: and esp, edi ; jmp dword [ecx+0x21D4FFFC] ; 
0x00163605: and esp, edi ; jmp ebx ; 
0x00169031: arpl ax, di ; call dword [eax] ; 
0x000e4a2d: arpl ax, di ; call dword [ebp+0x57] ; 
0x0019e755: arpl ax, di ; jmp dword [esi] ; 
0x00165bf9: arpl bp, bp ; call dword [edx+ebx*8] ; 
0x0018e4c5: arpl bx, si ; jmp dword [eax+0x00000001] ; 
0x00166f21: arpl cx, si ; call dword [eax-0x5E] ; 
0x00157aa1: arpl di, bp ; call dword [ebx] ; 
0x00157aa9: arpl di, bp ; jmp dword [edi+0x62] ; 
0x00165f11: arpl di, bp ; jmp eax ; 
0x001a2719: arpl si, si ; jmp ebx ; 
0x00165611: arpl sp, bp ; call eax ; 
0x0017d751: arpl sp, di ; jmp dword [edi+0x00] ; 
0x000a031c: arpl word [edi+0x5E], bx ; ret  ; 
0x00179120: arpl word [edx], cx ; ret  ; 
0x0010a76a: bound eax, dword [edx-0x0E] ; jmp dword [esi-0x70] ; 
0x0012ed2a: bound ebp, dword [ebx-0x04] ; jmp dword [esi-0x70] ; 
0x00157ab5: bound ebp, dword [edi] ; call dword [ebx] ; 
0x001655f9: bound ebp, dword [esp] ; jmp dword [eax-0x61] ; 
0x000aae11: bound ecx, dword [ebx-0x00009363] ; call dword [esi-0x01] ; 
0x00176843: bound ecx, dword [edx] ; ret  ; 
0x00187ce9: bound edi, dword [ebx] ; call dword [ecx+0x00000003] ; 
0x0017b741: bound edi, dword [edx] ; call dword [ebp+0x00000000] ; 
0x00164115: bound edi, dword [esp] ; jmp eax ; 
0x00163d0c: bound edx, dword [edi-0x04] ; call dword [edx+0x55] ; 
0x00167701: bound esi, dword [esp] ; call dword [ecx+ecx*2] ; 
0x001522e1: bound esp, dword [eax] ; jmp dword [ecx-0x69] ; 
0x000003ca: bound esp, dword [edx] ; retn 0x0224 ; 
0x000f78f4: bswap eax ; ret  ; 
0x0016f07b: call dword [0x00000000] ; 
0x00184876: call dword [0x00000003] ; 
0x001a8903: call dword [0x00000004] ; 
0x000178cb: call dword [0x00000010] ; 
0x0018c692: call dword [0x00000016] ; 
0x00168b5b: call dword [0x0BE40003] ; 
0x00036732: call dword [0x0F408F0F] ; 
0x001572e3: call dword [0x15FFEDE9] ; 
0x0016394b: call dword [0x2544FFFC] ; 
0x001665f2: call dword [0x2DA40001+eax*2] ; 
0x0016e5e7: call dword [0x41000000+edx] ; 
0x00163507: call dword [0x45FFFC1E] ; 
0x00169e7b: call dword [0x59C40003] ; 
0x00165fbb: call dword [0x71A40001+eax] ; 
0x001568fb: call dword [0x80FFEAAF] ; 
0x000369d2: call dword [0x848B647F] ; 
0x00157f1b: call dword [0x9DFFEF8B] ; 
0x0016330b: call dword [0xB2FFFC1C] ; 
0x0016726a: call dword [0xC0D40001+edi*8] ; 
0x00037046: call dword [0xC5897F7E] ; 
0x001572eb: call dword [0xD0FFEDE9] ; 
0x0016b02b: call dword [0xD4440002+ebp] ; 
0x0016927b: call dword [0xE0940003] ; 
0x0016a413: call dword [0xEBD40004] ; 
0x000d76dc: call dword [bp+si+0x56] ; 
0x00166811: call dword [bx+si+0x5A] ; 
0x000d79c6: call dword [bx+si-0x73] ; 
0x0016b6d7: call dword [eax+0x00000000] ; 
0x0016bfa7: call dword [eax+0x00000003] ; 
0x00018691: call dword [eax+0x000001E0] ; 
0x0011ceab: call dword [eax+0x000001EC] ; 
0x0011cfb7: call dword [eax+0x000001FC] ; 
0x0011cac0: call dword [eax+0x00000200] ; 
0x0011cb0c: call dword [eax+0x000007FC] ; 
0x000ca8de: call dword [eax+0x000023BD] ; 
0x000ca8ee: call dword [eax+0x00002BBD] ; 
0x000677fe: call dword [eax+0x000045C6] ; 
0x00112b8e: call dword [eax+0x0000C3BB] ; 
0x000cfade: call dword [eax+0x00017F80] ; 
0x0005c8be: call dword [eax+0x000990B9] ; 
0x00019a7a: call dword [eax+0x0026748D] ; 
0x000197b7: call dword [eax+0x0026B48D] ; 
0x0011f14e: call dword [eax+0x0098838D] ; 
0x0016452f: call dword [eax+0x00FFFCA4] ; 
0x0017aa87: call dword [eax+0x00] ; 
0x000d484e: call dword [eax+0x012045F6] ; 
0x0001ab3e: call dword [eax+0x01B95755] ; 
0x0006845e: call dword [eax+0x020203F7] ; 
0x000f762e: call dword [eax+0x0284D4E8] ; 
0x000ea2cd: call dword [eax+0x035834E8] ; 
0x00167f0b: call dword [eax+0x040002A8] ; 
0x00168ccb: call dword [eax+0x0400032D] ; 
0x00169bfb: call dword [eax+0x040003C3] ; 
0x0016a76b: call dword [eax+0x04000443] ; 
0x0016a8c3: call dword [eax+0x04000451] ; 
0x0006e37e: call dword [eax+0x0424448B] ; 
0x00078cce: call dword [eax+0x04245C8B] ; 
0x0011e89d: call dword [eax+0x044A8953] ; 
0x0011d91e: call dword [eax+0x04FE6C8D] ; 
0x000644b0: call dword [eax+0x04] ; 
0x0010c79e: call dword [eax+0x051E04C7] ; 
0x00168743: call dword [eax+0x05] ; 
0x0009fe5e: call dword [eax+0x06760F66] ; 
0x0001e6be: call dword [eax+0x06BDD089] ; 
0x000ac3be: call dword [eax+0x0824448B] ; 
0x00075f6e: call dword [eax+0x08244C89] ; 
0x0011bc7e: call dword [eax+0x08244C8B] ; 
0x0007476e: call dword [eax+0x0824548B] ; 
0x0006e33e: call dword [eax+0x08247403] ; 
0x000f5d6e: call dword [eax+0x08EC8353] ; 
0x0005dac5: call dword [eax+0x08] ; 
0x0005e9ed: call dword [eax+0x09] ; 
0x00156e9a: call dword [eax+0x0B] ; 
0x000933ae: call dword [eax+0x0C24448B] ; 
0x000bb61e: call dword [eax+0x0C245C8B] ; 
0x0005d5be: call dword [eax+0x0C46B60F] ; 
0x001163ee: call dword [eax+0x0C6D83F0] ; 
0x0013442e: call dword [eax+0x0C6F0F66] ; 
0x001179ee: call dword [eax+0x0C6F83F0] ; 
0x0006239c: call dword [eax+0x0C] ; 
0x0014498b: call dword [eax+0x0D] ; 
0x000e2fee: call dword [eax+0x0EE85356] ; 
0x0002edbe: call dword [eax+0x0F0D44E8] ; 
0x0009fa6e: call dword [eax+0x0F0FE580] ; 
0x00045dbe: call dword [eax+0x0F10758B] ; 
0x000d2e3e: call dword [eax+0x0F40FA80] ; 
0x0009ff0e: call dword [eax+0x0F6F0FF3] ; 
0x0005c8ee: call dword [eax+0x0FFFF883] ; 
0x0004de21: call dword [eax+0x0F] ; 
0x0009932e: call dword [eax+0x10244439] ; 
0x0013948e: call dword [eax+0x1024448B] ; 
0x00068d3e: call dword [eax+0x1024548B] ; 
0x0015b223: call dword [eax+0x10FFF6DA] ; 
0x00164c33: call dword [eax+0x10FFFCE1] ; 
0x0005e013: call dword [eax+0x10] ; 
0x0002e9ee: call dword [eax+0x110FE853] ; 
0x00156f62: call dword [eax+0x11] ; 
0x00156f82: call dword [eax+0x12] ; 
0x00166452: call dword [eax+0x14000132] ; 
0x0016afb3: call dword [eax+0x140001F4] ; 
0x00168ab3: call dword [eax+0x14000320] ; 
0x00029e2e: call dword [eax+0x14247C83] ; 
0x000a217e: call dword [eax+0x14EC8353] ; 
0x00062772: call dword [eax+0x14] ; 
0x000ca8fe: call dword [eax+0x1824448D] ; 
0x0005fade: call dword [eax+0x18246C8B] ; 
0x00062a31: call dword [eax+0x18] ; 
0x000c4d8e: call dword [eax+0x1C2444C7] ; 
0x000d7fee: call dword [eax+0x1C24748B] ; 
0x0004066a: call dword [eax+0x1C] ; 
0x00155cfb: call dword [eax+0x1E] ; 
0x001635f3: call dword [eax+0x1F] ; 
0x00144997: call dword [eax+0x20FFE70D] ; 
0x0016456f: call dword [eax+0x20FFFCA1] ; 
0x00164727: call dword [eax+0x20FFFCAE] ; 
0x001648d7: call dword [eax+0x20FFFCBA] ; 
0x00164a63: call dword [eax+0x20FFFCDD] ; 
0x00164d13: call dword [eax+0x20FFFCE8] ; 
0x00069026: call dword [eax+0x20] ; 
0x001637d3: call dword [eax+0x22] ; 
0x00157042: call dword [eax+0x23] ; 
0x00166283: call dword [eax+0x2400011F] ; 
0x001663c3: call dword [eax+0x2400012D] ; 
0x00167b8b: call dword [eax+0x24000276] ; 
0x000a5fee: call dword [eax+0x2444B60F] ; 
0x0005fee9: call dword [eax+0x24] ; 
0x00168b9b: call dword [eax+0x26000328] ; 
0x001570b1: call dword [eax+0x26] ; 
0x000b93ae: call dword [eax+0x28047B83] ; 
0x00157126: call dword [eax+0x28] ; 
0x00163ceb: call dword [eax+0x29] ; 
0x0006864e: call dword [eax+0x2B08468B] ; 
0x0006085e: call dword [eax+0x2B2C738B] ; 
0x00079c3e: call dword [eax+0x2C245C8B] ; 
0x00060297: call dword [eax+0x2C] ; 
0x00068ace: call dword [eax+0x2EE85356] ; 
0x00157767: call dword [eax+0x2F] ; 
0x0005d46e: call dword [eax+0x3024448B] ; 
0x0009195e: call dword [eax+0x3024548B] ; 
0x0005decc: call dword [eax+0x30] ; 
0x00031bde: call dword [eax+0x3100458B] ; 
0x0011d4b5: call dword [eax+0x31] ; 
0x00166ee3: call dword [eax+0x3400019F] ; 
0x000d7eae: call dword [eax+0x3424448B] ; 
0x00060439: call dword [eax+0x34] ; 
0x001593eb: call dword [eax+0x35FFF1FF] ; 
0x0009c18e: call dword [eax+0x396FE853] ; 
0x001664fa: call dword [eax+0x39] ; 
0x0016a6bb: call dword [eax+0x3A] ; 
0x0004808e: call dword [eax+0x3B14478B] ; 
0x000ef66e: call dword [eax+0x3B1C458B] ; 
0x0016655a: call dword [eax+0x3B] ; 
0x0015b0ff: call dword [eax+0x3CFFF5ED] ; 
0x000683e1: call dword [eax+0x3C] ; 
0x00167672: call dword [eax+0x3D] ; 
0x001219be: call dword [eax+0x3EE85356] ; 
0x00031dde: call dword [eax+0x4024748B] ; 
0x001640f3: call dword [eax+0x40FFFC74] ; 
0x00164b33: call dword [eax+0x40FFFCDE] ; 
0x00063adf: call dword [eax+0x40] ; 
0x0015872e: call dword [eax+0x42FFF06E] ; 
0x0010b7de: call dword [eax+0x431FE853] ; 
0x0016a763: call dword [eax+0x43] ; 
0x00167103: call dword [eax+0x440001C7] ; 
0x0016a293: call dword [eax+0x44000417] ; 
0x0016a573: call dword [eax+0x44000432] ; 
0x0006991f: call dword [eax+0x44] ; 
0x0006412e: call dword [eax+0x4646BE0F] ; 
0x0007aace: call dword [eax+0x488DC001] ; 
0x0005d8f4: call dword [eax+0x48] ; 
0x0016a82b: call dword [eax+0x49] ; 
0x00163ea3: call dword [eax+0x4A] ; 
0x000a3b5e: call dword [eax+0x4C8BDA89] ; 
0x001690b3: call dword [eax+0x4D] ; 
0x000c49be: call dword [eax+0x4E8B108B] ; 
0x0011244e: call dword [eax+0x4F2444C6] ; 
0x001568df: call dword [eax+0x50FFEAB0] ; 
0x00164cff: call dword [eax+0x50FFFCE3] ; 
0x00164efb: call dword [eax+0x50FFFD81] ; 
0x000444a6: call dword [eax+0x50] ; 
0x000435d2: call dword [eax+0x51] ; 
0x0002af4e: call dword [eax+0x520CEC83] ; 
0x000266af: call dword [eax+0x52] ; 
0x0001cd0e: call dword [eax+0x53565755] ; 
0x00069c6f: call dword [eax+0x53] ; 
0x00166aba: call dword [eax+0x5400017B] ; 
0x001689d3: call dword [eax+0x54000318] ; 
0x0006cf8e: call dword [eax+0x5508EC83] ; 
0x0011652e: call dword [eax+0x550CEC83] ; 
0x0002a3bb: call dword [eax+0x55] ; 
0x000288fc: call dword [eax+0x56] ; 
0x000aad2e: call dword [eax+0x5704EC83] ; 
0x000f538d: call dword [eax+0x57E58955] ; 
0x000177a8: call dword [eax+0x57] ; 
0x00169193: call dword [eax+0x58] ; 
0x001667e9: call dword [eax+0x59] ; 
0x00156ddb: call dword [eax+0x5A] ; 
0x00077a3e: call dword [eax+0x5B1C6B89] ; 
0x00166832: call dword [eax+0x5B] ; 
0x0010978e: call dword [eax+0x5C24848B] ; 
0x00164103: call dword [eax+0x5D] ; 
0x00157b23: call dword [eax+0x5E] ; 
0x00165793: call dword [eax+0x640000A7] ; 
0x001662e3: call dword [eax+0x64000122] ; 
0x0016859b: call dword [eax+0x640002FA] ; 
0x0006a33e: call dword [eax+0x6520C883] ; 
0x0005ec4e: call dword [eax+0x65E0458B] ; 
0x00157a93: call dword [eax+0x65] ; 
0x0016ac53: call dword [eax+0x66] ; 
0x0001937e: call dword [eax+0x677FE853] ; 
0x001553f3: call dword [eax+0x67FFFFFF] ; 
0x0001c575: call dword [eax+0x68] ; 
0x000ee31e: call dword [eax+0x6A08EC83] ; 
0x000fcace: call dword [eax+0x6A10EC83] ; 
0x00028bc4: call dword [eax+0x6A] ; 
0x00020dce: call dword [eax+0x72047939] ; 
0x00166b0a: call dword [eax+0x7400017F] ; 
0x00166f93: call dword [eax+0x740001A4] ; 
0x0016afd3: call dword [eax+0x740001F7] ; 
0x00168a6b: call dword [eax+0x7400031E] ; 
0x0016913b: call dword [eax+0x74000354] ; 
0x0016a863: call dword [eax+0x7400044A] ; 
0x00119a1e: call dword [eax+0x7401EB83] ; 
0x00158cef: call dword [eax+0x74] ; 
0x00071d03: call dword [eax+0x77] ; 
0x00156de3: call dword [eax+0x78FFEC5A] ; 
0x001641f7: call dword [eax+0x78] ; 
0x001641eb: call dword [eax+0x79] ; 
0x00156e0f: call dword [eax+0x7AFFECBA] ; 
0x00157b13: call dword [eax+0x7AFFEF5F] ; 
0x000bb9de: call dword [eax+0x7B80C031] ; 
0x00166ab2: call dword [eax+0x7B] ; 
0x000688fe: call dword [eax+0x7C390A7C] ; 
0x000d525e: call dword [eax+0x7C835356] ; 
0x00164edf: call dword [eax+0x7D] ; 
0x000ca69e: call dword [eax+0x7E8D108B] ; 
0x0011e97e: call dword [eax+0x7EE85356] ; 
0x001652a3: call dword [eax+0x7F] ; 
0x001652b3: call dword [eax+eax*4+0x00] ; 
0x00169bb3: call dword [eax+eax*8+0x03] ; 
0x0000c628: call dword [eax+eax+0x00] ; 
0x000026a1: call dword [eax+eax+0x3ADFD42E] ; 
0x00173aa7: call dword [eax+eax+0x41000000] ; 
0x0006208a: call dword [eax+eax] ; 
0x0016695a: call dword [eax+ebp*2+0x01] ; 
0x00169343: call dword [eax+ebp*2-0x185BFFFD] ; 
0x0016998b: call dword [eax+ebp*4] ; 
0x0016affb: call dword [eax+ebp*8-0x4F0BFFFF] ; 
0x00163bcf: call dword [eax+ebp] ; 
0x00163df7: call dword [eax+ebx*2] ; 
0x00169da3: call dword [eax+ebx*8+0x40340003] ; 
0x00155a0b: call dword [eax+ebx*8] ; 
0x000471d3: call dword [eax+ecx*4] ; 
0x001641a3: call dword [eax+edi*2] ; 
0x001659db: call dword [eax+edi*4-0x58BC0000] ; 
0x0016854b: call dword [eax+edi*8] ; 
0x001690eb: call dword [eax+edx*2] ; 
0x00165223: call dword [eax+esi*2+0x00] ; 
0x00169a73: call dword [eax+esi*4+0x03] ; 
0x00164c97: call dword [eax+esi*8-0x04] ; 
0x0006c73e: call dword [eax-0x00000048] ; 
0x0006e38e: call dword [eax-0x000F1418] ; 
0x0005cb7e: call dword [eax-0x0041A9A9] ; 
0x000f2d5e: call dword [eax-0x0083427D] ; 
0x0001b86e: call dword [eax-0x00C5B373] ; 
0x000f5a6e: call dword [eax-0x00D77C75] ; 
0x000dac0e: call dword [eax-0x00D77F75] ; 
0x0003184e: call dword [eax-0x00E7137D] ; 
0x000228fe: call dword [eax-0x00F3137D] ; 
0x00071a4e: call dword [eax-0x00F7137D] ; 
0x000e45de: call dword [eax-0x01F39E80] ; 
0x00021899: call dword [eax-0x01] ; 
0x0005cb5e: call dword [eax-0x021B6275] ; 
0x0005c6ee: call dword [eax-0x021B7A75] ; 
0x0015814f: call dword [eax-0x02] ; 
0x00052e2e: call dword [eax-0x04277A75] ; 
0x0004240e: call dword [eax-0x044B4275] ; 
0x0005591e: call dword [eax-0x04DF7275] ; 
0x00058d3e: call dword [eax-0x04EB6277] ; 
0x00052d3e: call dword [eax-0x055F7A3A] ; 
0x00050e4e: call dword [eax-0x056B427D] ; 
0x0005d07e: call dword [eax-0x05762F77] ; 
0x001685bb: call dword [eax-0x05] ; 
0x00018cce: call dword [eax-0x08FB137D] ; 
0x00165e8b: call dword [eax-0x08] ; 
0x0016a0d3: call dword [eax-0x0BFFFC00] ; 
0x00169f2b: call dword [eax-0x0BFFFC15] ; 
0x00164b0b: call dword [eax-0x0F000320] ; 
0x00164b6f: call dword [eax-0x0F00032B] ; 
0x00164b4f: call dword [eax-0x0F000336] ; 
0x00156827: call dword [eax-0x0F001550] ; 
0x0011f32e: call dword [eax-0x0F208418] ; 
0x00164d6f: call dword [eax-0x0F] ; 
0x00150ea3: call dword [eax-0x11001883] ; 
0x0004ae4e: call dword [eax-0x113E0D77] ; 
0x00155a57: call dword [eax-0x12] ; 
0x000cfc2e: call dword [eax-0x137C3877] ; 
0x000bf2de: call dword [eax-0x137C3EFF] ; 
0x000c7359: call dword [eax-0x15] ; 
0x000ceb5e: call dword [eax-0x1673A275] ; 
0x00063eee: call dword [eax-0x16A7B975] ; 
0x00034b7e: call dword [eax-0x16FB8175] ; 
0x000ebe8e: call dword [eax-0x16FE9573] ; 
0x00071ace: call dword [eax-0x17762DCF] ; 
0x000acb6e: call dword [eax-0x17ACA9A9] ; 
0x001593cb: call dword [eax-0x18000E01] ; 
0x0001776a: call dword [eax-0x18] ; 
0x0006145e: call dword [eax-0x196017AD] ; 
0x00164d03: call dword [eax-0x1A] ; 
0x000ff71e: call dword [eax-0x1BDB7B75] ; 
0x0016b173: call dword [eax-0x1BFFFBC5] ; 
0x0016862b: call dword [eax-0x1BFFFD02] ; 
0x00167ee3: call dword [eax-0x1BFFFD59] ; 
0x001669a2: call dword [eax-0x1BFFFE94] ; 
0x0011e5e1: call dword [eax-0x1B] ; 
0x0016457f: call dword [eax-0x1D00035A] ; 
0x0007169e: call dword [eax-0x1D7E0577] ; 
0x00164c27: call dword [eax-0x1E] ; 
0x00164833: call dword [eax-0x1F00033F] ; 
0x0016476f: call dword [eax-0x1F00034C] ; 
0x00164677: call dword [eax-0x1F00034D] ; 
0x00164113: call dword [eax-0x1F00039E] ; 
0x00163eb3: call dword [eax-0x1F0003B1] ; 
0x001569eb: call dword [eax-0x1F00154E] ; 
0x0015681f: call dword [eax-0x1F001550] ; 
0x0001e59e: call dword [eax-0x1F7C2F77] ; 
0x0015ac9f: call dword [eax-0x1F] ; 
0x001593e3: call dword [eax-0x21000E01] ; 
0x00169de3: call dword [eax-0x22] ; 
0x00165c33: call dword [eax-0x24] ; 
0x00165c23: call dword [eax-0x25] ; 
0x0015b207: call dword [eax-0x26] ; 
0x000e233e: call dword [eax-0x284017AD] ; 
0x000b9a4e: call dword [eax-0x284B7275] ; 
0x000b987e: call dword [eax-0x28577A75] ; 
0x00106b0e: call dword [eax-0x2876A9A9] ; 
0x00164b77: call dword [eax-0x28] ; 
0x0016a88b: call dword [eax-0x2BFFFBB4] ; 
0x00167da3: call dword [eax-0x2BFFFD6C] ; 
0x0016793b: call dword [eax-0x2BFFFD9D] ; 
0x001682eb: call dword [eax-0x2C] ; 
0x0011fa4e: call dword [eax-0x2DCE1777] ; 
0x0015685f: call dword [eax-0x2F001550] ; 
0x0015b177: call dword [eax-0x2F] ; 
0x000c286e: call dword [eax-0x3076A8AB] ; 
0x000bcc0e: call dword [eax-0x3276A8AB] ; 
0x00164b57: call dword [eax-0x33] ; 
0x0010b1ce: call dword [eax-0x35F27C73] ; 
0x00156be3: call dword [eax-0x3700154B] ; 
0x00169c5b: call dword [eax-0x37] ; 
0x00092fbe: call dword [eax-0x38FBA175] ; 
0x000e120e: call dword [eax-0x39A3FD3A] ; 
0x000e121e: call dword [eax-0x39A3FE3A] ; 
0x000e11fe: call dword [eax-0x39A3FF3A] ; 
0x00169c3b: call dword [eax-0x39] ; 
0x0001b8be: call dword [eax-0x3A76A8AB] ; 
0x0016aea3: call dword [eax-0x3BFFFE40] ; 
0x00166a7a: call dword [eax-0x3BFFFE87] ; 
0x00165bbb: call dword [eax-0x3BFFFF2A] ; 
0x001654b3: call dword [eax-0x3BFFFF71] ; 
0x00165393: call dword [eax-0x3BFFFF75] ; 
0x001651f3: call dword [eax-0x3BFFFF92] ; 
0x000d276e: call dword [eax-0x3C763F7B] ; 
0x0016804b: call dword [eax-0x3C] ; 
0x00164c3b: call dword [eax-0x3D00031E] ; 
0x0003ce7e: call dword [eax-0x3DF61577] ; 
0x001649b7: call dword [eax-0x3D] ; 
0x00163cef: call dword [eax-0x3F0003D7] ; 
0x00163cdb: call dword [eax-0x3F0003D8] ; 
0x00163a57: call dword [eax-0x3F0003DB] ; 
0x001637c3: call dword [eax-0x3F0003DF] ; 
0x00163567: call dword [eax-0x3F0003E1] ; 
0x00157032: call dword [eax-0x3F000CDE] ; 
0x00165b33: call dword [eax-0x3F] ; 
0x000c351e: call dword [eax-0x40FEE375] ; 
0x000abdae: call dword [eax-0x42F3137D] ; 
0x00156e3f: call dword [eax-0x44] ; 
0x00156cb3: call dword [eax-0x47001403] ; 
0x001659eb: call dword [eax-0x47] ; 
0x00111d5e: call dword [eax-0x48] ; 
0x00169b1b: call dword [eax-0x4A] ; 
0x000ddd7e: call dword [eax-0x4B854473] ; 
0x00169703: call dword [eax-0x4BFFFC7D] ; 
0x0016857b: call dword [eax-0x4BFFFD07] ; 
0x0016af0b: call dword [eax-0x4BFFFE4E] ; 
0x00156adf: call dword [eax-0x4B] ; 
0x000d845e: call dword [eax-0x4C7D7973] ; 
0x001570b9: call dword [eax-0x4F000CDA] ; 
0x00157076: call dword [eax-0x4F000CDC] ; 
0x0015701a: call dword [eax-0x4F000CDF] ; 
0x00156fe6: call dword [eax-0x4F000CE1] ; 
0x00156f6a: call dword [eax-0x4F000CEF] ; 
0x00156f4a: call dword [eax-0x4F000CF0] ; 
0x00156ea2: call dword [eax-0x4F000CF5] ; 
0x00156e82: call dword [eax-0x4F000CF6] ; 
0x00156873: call dword [eax-0x4F001550] ; 
0x001568cf: call dword [eax-0x4F001551] ; 
0x000b223e: call dword [eax-0x50246273] ; 
0x001568e3: call dword [eax-0x51] ; 
0x0015679f: call dword [eax-0x53] ; 
0x0007414e: call dword [eax-0x544D7873] ; 
0x00164717: call dword [eax-0x54] ; 
0x0015ac8f: call dword [eax-0x57000A45] ; 
0x001657fb: call dword [eax-0x57] ; 
0x0011037e: call dword [eax-0x5A143FCF] ; 
0x0016462f: call dword [eax-0x5A] ; 
0x0016a31b: call dword [eax-0x5BFFFBE3] ; 
0x00166cd3: call dword [eax-0x5BFFFE70] ; 
0x00165973: call dword [eax-0x5BFFFF4B] ; 
0x00164537: call dword [eax-0x5B] ; 
0x00166f83: call dword [eax-0x5C] ; 
0x00166f23: call dword [eax-0x5E] ; 
0x0015b0b7: call dword [eax-0x5F000A1B] ; 
0x001570f6: call dword [eax-0x5F000CD9] ; 
0x00156fba: call dword [eax-0x5F000CEE] ; 
0x00158953: call dword [eax-0x5F000EBB] ; 
0x00156e17: call dword [eax-0x5F001345] ; 
0x0015689f: call dword [eax-0x5F001550] ; 
0x00165683: call dword [eax-0x5F] ; 
0x0016455f: call dword [eax-0x61] ; 
0x0001a85e: call dword [eax-0x68140F77] ; 
0x0005cb2e: call dword [eax-0x688D7F73] ; 
0x0016a38b: call dword [eax-0x6BFFFBE0] ; 
0x00167e83: call dword [eax-0x6BFFFD5B] ; 
0x0016387b: call dword [eax-0x6C0003DD] ; 
0x00166d5b: call dword [eax-0x6D] ; 
0x0010696e: call dword [eax-0x6E7017AD] ; 
0x001642b7: call dword [eax-0x6E] ; 
0x0015b217: call dword [eax-0x6F000926] ; 
0x001593d3: call dword [eax-0x6F000E01] ; 
0x00156837: call dword [eax-0x6F001550] ; 
0x00150e97: call dword [eax-0x6F001883] ; 
0x00144993: call dword [eax-0x6F0018F4] ; 
0x001182be: call dword [eax-0x725F8A75] ; 
0x000f747d: call dword [eax-0x72F3137D] ; 
0x00165433: call dword [eax-0x72] ; 
0x00017a50: call dword [eax-0x73] ; 
0x00077c2e: call dword [eax-0x7407BE73] ; 
0x0011833e: call dword [eax-0x7423BA75] ; 
0x0007c36e: call dword [eax-0x745BAA75] ; 
0x000f1c3e: call dword [eax-0x74ACA9A9] ; 
0x000bc3de: call dword [eax-0x74D7A577] ; 
0x0003e22e: call dword [eax-0x74F3137D] ; 
0x000466de: call dword [eax-0x74F7B275] ; 
0x0005f17e: call dword [eax-0x74FBA075] ; 
0x00034bbe: call dword [eax-0x74FBB975] ; 
0x000186cc: call dword [eax-0x75] ; 
0x0003092e: call dword [eax-0x761150F1] ; 
0x00118a8e: call dword [eax-0x76B33B7D] ; 
0x0005ce7e: call dword [eax-0x76FE9073] ; 
0x0001ae6d: call dword [eax-0x77] ; 
0x000ff2ee: call dword [eax-0x7A33B275] ; 
0x0010de2e: call dword [eax-0x7AF7B475] ; 
0x000a4f7e: call dword [eax-0x7BF02D7C] ; 
0x00079e0e: call dword [eax-0x7BF449F1] ; 
0x001635fb: call dword [eax-0x7C0003E1] ; 
0x0005318e: call dword [eax-0x7C2AAC73] ; 
0x000ab71e: call dword [eax-0x7C3C76AD] ; 
0x0006583e: call dword [eax-0x7CB7A975] ; 
0x00071ce4: call dword [eax-0x7CF7397D] ; 
0x00164eff: call dword [eax-0x7E] ; 
0x001449a7: call dword [eax-0x7F0018F4] ; 
0x000f7b8e: call dword [eax-0x7FC7157D] ; 
0x00166b3a: call dword [eax-0x7F] ; 
0x00007c7d: call dword [eax] ; 
0x0017b743: call dword [ebp+0x00000000] ; 
0x0018c6c6: call dword [ebp+0x00000006] ; 
0x0006c5d9: call dword [ebp+0x00000098] ; 
0x0006c610: call dword [ebp+0x0000009C] ; 
0x0002ee49: call dword [ebp+0x000007F8] ; 
0x0002ee75: call dword [ebp+0x000007FC] ; 
0x001703cb: call dword [ebp+0x00] ; 
0x001749e7: call dword [ebp+0x01] ; 
0x0015845a: call dword [ebp+0x02] ; 
0x0016928b: call dword [ebp+0x03] ; 
0x001727c3: call dword [ebp+0x04] ; 
0x000b3420: call dword [ebp+0x08] ; 
0x000648b7: call dword [ebp+0x10] ; 
0x00064961: call dword [ebp+0x18] ; 
0x00163793: call dword [ebp+0x22] ; 
0x00163a83: call dword [ebp+0x26] ; 
0x00163cab: call dword [ebp+0x29] ; 
0x00163a8b: call dword [ebp+0x32FFFC26] ; 
0x00001fe7: call dword [ebp+0x41] ; 
0x0005b5c5: call dword [ebp+0x56] ; 
0x00018d2f: call dword [ebp+0x57] ; 
0x00157d4b: call dword [ebp+0x58] ; 
0x0018e19b: call dword [ebp+eax+0x00] ; 
0x00167342: call dword [ebp+eax-0x2A5BFFFE] ; 
0x00167ab3: call dword [ebp+ebp*2-0x339BFFFE] ; 
0x00166ec3: call dword [ebp+ebx*4+0x49740001] ; 
0x00164a33: call dword [ebp+ebx*8-0x04] ; 
0x0016624b: call dword [ebp+ebx+0x01] ; 
0x0016727a: call dword [ebp+edi*8+0x01] ; 
0x001642eb: call dword [ebp+edx*4-0x04] ; 
0x00164077: call dword [ebp+esi*2-0x04] ; 
0x0016479b: call dword [ebp+esi*4-0x4B810004] ; 
0x000d95fa: call dword [ebp-0x00000088] ; 
0x000d702e: call dword [ebp-0x01] ; 
0x00068034: call dword [ebp-0x18] ; 
0x00158392: call dword [ebp-0x1A000FFA] ; 
0x00157e9b: call dword [ebp-0x37001075] ; 
0x00163caf: call dword [ebp-0x3A0003D7] ; 
0x00163c9b: call dword [ebp-0x3A0003D8] ; 
0x00163a17: call dword [ebp-0x3A0003DB] ; 
0x00163783: call dword [ebp-0x3A0003DF] ; 
0x00163527: call dword [ebp-0x3A0003E1] ; 
0x0003fbdf: call dword [ebp-0x77] ; 
0x000d83a7: call dword [ebp-0x80] ; 
0x0016bdd7: call dword [ebx+0x00000000] ; 
0x0018d77e: call dword [ebx+0x00000001] ; 
0x0016cc7f: call dword [ebx+0x00000008] ; 
0x0018fe3a: call dword [ebx+0x0000001D] ; 
0x00062e8c: call dword [ebx+0x0000009C] ; 
0x0011d524: call dword [ebx+0x000001E4] ; 
0x0011d5f4: call dword [ebx+0x000001E8] ; 
0x0011d222: call dword [ebx+0x000001F0] ; 
0x0007347c: call dword [ebx+0x000018F0] ; 
0x000f7840: call dword [ebx+0x0000292C] ; 
0x0016f8ab: call dword [ebx+0x00] ; 
0x0016efab: call dword [ebx+0x01] ; 
0x0018a98e: call dword [ebx+0x02] ; 
0x00158232: call dword [ebx+0x05] ; 
0x0010af53: call dword [ebx+0x08] ; 
0x00109201: call dword [ebx+0x0C] ; 
0x00040835: call dword [ebx+0x0F] ; 
0x00063b47: call dword [ebx+0x10] ; 
0x00109baf: call dword [ebx+0x14] ; 
0x000640d9: call dword [ebx+0x18] ; 
0x000746ad: call dword [ebx+0x1C] ; 
0x0016339f: call dword [ebx+0x1F] ; 
0x00074786: call dword [ebx+0x20] ; 
0x00163863: call dword [ebx+0x23] ; 
0x0016388f: call dword [ebx+0x25] ; 
0x001638a3: call dword [ebx+0x26] ; 
0x001638b3: call dword [ebx+0x27] ; 
0x00163b13: call dword [ebx+0x28] ; 
0x00163b3b: call dword [ebx+0x2A] ; 
0x001635eb: call dword [ebx+0x30FFFC1F] ; 
0x0016386b: call dword [ebx+0x30FFFC23] ; 
0x001585ea: call dword [ebx+0x32FFF06A] ; 
0x001650db: call dword [ebx+0x37A40000] ; 
0x00150e47: call dword [ebx+0x3A] ; 
0x00158aaf: call dword [ebx+0x48] ; 
0x0002e47e: call dword [ebx+0x50] ; 
0x001149cb: call dword [ebx+0x56] ; 
0x000bb68e: call dword [ebx+0x57] ; 
0x00032cdd: call dword [ebx+0x6A] ; 
0x0015809b: call dword [ebx+0x74] ; 
0x001531e0: call dword [ebx+0x7C] ; 
0x00168fdb: call dword [ebx+eax*2+0x5EB40003] ; 
0x001696eb: call dword [ebx+eax*4+0x03] ; 
0x00183f5a: call dword [ebx+eax+0x03000000] ; 
0x001686d3: call dword [ebx+eax+0x03] ; 
0x0017ee93: call dword [ebx+eax] ; 
0x001661fb: call dword [ebx+ebx+0x01] ; 
0x0016538b: call dword [ebx+ecx*4+0x00] ; 
0x001687fb: call dword [ebx+ecx] ; 
0x001695f3: call dword [ebx+edi*2+0x03] ; 
0x00166742: call dword [ebx+edx*2+0x5A840001] ; 
0x00166d6b: call dword [ebx+edx*4+0x21C40001] ; 
0x00167b33: call dword [ebx+esi*2+0x02] ; 
0x00163fe3: call dword [ebx+esi*2+0x7424FFFC] ; 
0x00167b23: call dword [ebx+esi*2] ; 
0x0010a245: call dword [ebx+esi*4-0x00000260] ; 
0x00169aeb: call dword [ebx+esi*4-0x23CBFFFD] ; 
0x00165923: call dword [ebx+esi*4-0x63DC0000] ; 
0x00168deb: call dword [ebx+esi+0x03] ; 
0x0011bea6: call dword [ebx-0x00000CC4] ; 
0x0011a5b0: call dword [ebx-0x00000CCC] ; 
0x0011a568: call dword [ebx-0x00000CD0] ; 
0x0011a508: call dword [ebx-0x00000CD4] ; 
0x0011a4a4: call dword [ebx-0x00000CD8] ; 
0x0011a43f: call dword [ebx-0x00000CDC] ; 
0x0004b7f9: call dword [ebx-0x01] ; 
0x00155a5b: call dword [ebx-0x05] ; 
0x000dd881: call dword [ebx-0x11] ; 
0x000188df: call dword [ebx-0x18] ; 
0x001638b7: call dword [ebx-0x2C0003D9] ; 
0x001638a7: call dword [ebx-0x2C0003DA] ; 
0x00163b03: call dword [ebx-0x3C0003D9] ; 
0x0016387f: call dword [ebx-0x3C0003DC] ; 
0x0016338f: call dword [ebx-0x3C0003E2] ; 
0x00066702: call dword [ebx-0x3C7EFFF5] ; 
0x0011c19a: call dword [ebx-0x42] ; 
0x000e8d38: call dword [ebx-0x45] ; 
0x0015836a: call dword [ebx-0x62000FFC] ; 
0x0003f1a1: call dword [ebx-0x73] ; 
0x00025397: call dword [ebx-0x75] ; 
0x0002f363: call dword [ebx-0x77] ; 
0x00052673: call dword [ebx-0x78] ; 
0x0003fe60: call dword [ebx-0x7D] ; 
0x0000368e: call dword [ebx] ; 
0x0017a197: call dword [ecx+0x00000000] ; 
0x0019a0eb: call dword [ecx+0x00000002] ; 
0x00187ceb: call dword [ecx+0x00000003] ; 
0x0019995b: call dword [ecx+0x00000004] ; 
0x00173fb7: call dword [ecx+0x00000023] ; 
0x00157d1f: call dword [ecx+0x00FFEF53] ; 
0x0006433d: call dword [ecx+0x00] ; 
0x00157d53: call dword [ecx+0x01FFEF53] ; 
0x0017c493: call dword [ecx+0x01] ; 
0x00167e1b: call dword [ecx+0x02] ; 
0x001582ea: call dword [ecx+0x03] ; 
0x00111038: call dword [ecx+0x04] ; 
0x001577e3: call dword [ecx+0x08FFEF29] ; 
0x0011d164: call dword [ecx+0x08] ; 
0x0010f65c: call dword [ecx+0x0C] ; 
0x00157cab: call dword [ecx+0x17FFEF53] ; 
0x0010a078: call dword [ecx+0x18] ; 
0x0003f7ff: call dword [ecx+0x1C] ; 
0x0018c2fa: call dword [ecx+0x1D] ; 
0x00157d3f: call dword [ecx+0x28FFEF53] ; 
0x00063566: call dword [ecx+0x38] ; 
0x001577ef: call dword [ecx+0x3AFFEF40] ; 
0x00063c70: call dword [ecx+0x40] ; 
0x00157cb7: call dword [ecx+0x43FFEF53] ; 
0x000505f3: call dword [ecx+0x50] ; 
0x00169e1b: call dword [ecx+0x51C40003] ; 
0x0004443a: call dword [ecx+0x51] ; 
0x00023c38: call dword [ecx+0x52] ; 
0x00044169: call dword [ecx+0x56] ; 
0x00046e50: call dword [ecx+0x6A] ; 
0x00001beb: call dword [ecx+0x77] ; 
0x0016969b: call dword [ecx+eax*4] ; 
0x0016484f: call dword [ecx+eax*8] ; 
0x001591b9: call dword [ecx+eax+0x01A6FF98] ; 
0x00175eef: call dword [ecx+eax+0x77040000] ; 
0x000e261d: call dword [ecx+eax] ; 
0x0016937b: call dword [ecx+ebp*2-0x165BFFFD] ; 
0x00165803: call dword [ecx+ebp*4+0x7A940000] ; 
0x00167f23: call dword [ecx+ebp*4] ; 
0x001674d2: call dword [ecx+ebp] ; 
0x001691b3: call dword [ecx+ebx*2+0x03] ; 
0x00163deb: call dword [ecx+ebx*2-0x04] ; 
0x0016986b: call dword [ecx+ebx*4+0x66540003] ; 
0x0016a2b3: call dword [ecx+ebx-0x297BFFFC] ; 
0x000dda2a: call dword [ecx+ebx-0x7AF0FEFE] ; 
0x00167703: call dword [ecx+ecx*2] ; 
0x000628ed: call dword [ecx+ecx*4] ; 
0x00158123: call dword [ecx+edi*2] ; 
0x001659fb: call dword [ecx+edi*4-0x567C0000] ; 
0x001690fb: call dword [ecx+edx*2+0x03] ; 
0x00167d7b: call dword [ecx+edx*4-0x185BFFFE] ; 
0x000402f1: call dword [ecx+edx*4] ; 
0x001688cb: call dword [ecx+edx] ; 
0x00167f9b: call dword [ecx+esi*4+0x02] ; 
0x001684b3: call dword [ecx+esi*8+0x02] ; 
0x00164d93: call dword [ecx+esi*8-0x0E1B0004] ; 
0x0002278d: call dword [ecx-0x01] ; 
0x0015805b: call dword [ecx-0x06001083] ; 
0x00051990: call dword [ecx-0x18] ; 
0x00157cbf: call dword [ecx-0x1D0010AD] ; 
0x00157d37: call dword [ecx-0x1F0010AD] ; 
0x0015771b: call dword [ecx-0x350010D6] ; 
0x00157d13: call dword [ecx-0x540010AD] ; 
0x00159191: call dword [ecx-0x56000A00] ; 
0x00152acd: call dword [ecx-0x66] ; 
0x00157b7f: call dword [ecx-0x6E0010AD] ; 
0x00108f06: call dword [ecx-0x73] ; 
0x00157eb3: call dword [ecx-0x75] ; 
0x00157c7b: call dword [ecx-0x770010AD] ; 
0x00041f01: call dword [ecx-0x77] ; 
0x000572f9: call dword [ecx-0x7D] ; 
0x0000311b: call dword [ecx] ; 
0x00172a9b: call dword [edi+0x00000000] ; 
0x0019f12b: call dword [edi+0x00000001] ; 
0x0011cf8b: call dword [edi+0x000001F0] ; 
0x0011cb60: call dword [edi+0x000007F8] ; 
0x000f4530: call dword [edi+0x00002918] ; 
0x000f453d: call dword [edi+0x0000291C] ; 
0x000f450a: call dword [edi+0x00002920] ; 
0x0016bb27: call dword [edi+0x00] ; 
0x00173b53: call dword [edi+0x02] ; 
0x00021e5a: call dword [edi+0x03] ; 
0x00064219: call dword [edi+0x04] ; 
0x0018c452: call dword [edi+0x08] ; 
0x00156da3: call dword [edi+0x0BFFF1FF] ; 
0x000633eb: call dword [edi+0x0C] ; 
0x0006337f: call dword [edi+0x10] ; 
0x0006418c: call dword [edi+0x18] ; 
0x000b3dc9: call dword [edi+0x20] ; 
0x001577cb: call dword [edi+0x2B] ; 
0x00054844: call dword [edi+0x39] ; 
0x00153d0f: call dword [edi+0x4656EE7E] ; 
0x00056662: call dword [edi+0x50] ; 
0x000d68b8: call dword [edi+0x51] ; 
0x00028b59: call dword [edi+0x52] ; 
0x00028098: call dword [edi+0x53] ; 
0x0015618b: call dword [edi+0x55] ; 
0x0002448d: call dword [edi+0x56] ; 
0x00043e7e: call dword [edi+0x57] ; 
0x000652ae: call dword [edi+0x68] ; 
0x00033a21: call dword [edi+0x6A] ; 
0x001588c7: call dword [edi+0x71FFF12F] ; 
0x0016663a: call dword [edi+eax*2+0x01] ; 
0x0016b1ab: call dword [edi+eax*4+0x01] ; 
0x00166bd2: call dword [edi+eax*4-0x034BFFFF] ; 
0x00169743: call dword [edi+eax*4] ; 
0x00183f23: call dword [edi+eax+0x03000000] ; 
0x0016848b: call dword [edi+ebp*8+0x7E040002] ; 
0x0016aa43: call dword [edi+ebx*2+0x04] ; 
0x0016aa53: call dword [edi+ebx*2-0x66ABFFFC] ; 
0x00167df3: call dword [edi+ebx*4] ; 
0x00164ab7: call dword [edi+ebx*8-0x04] ; 
0x0016345b: call dword [edi+ebx] ; 
0x0016a8ab: call dword [edi+ecx*2] ; 
0x0016549b: call dword [edi+ecx*4+0x00] ; 
0x00165b8b: call dword [edi+ecx*8+0x00] ; 
0x0016ae3b: call dword [edi+ecx*8] ; 
0x00168f53: call dword [edi+edi+0x55840003] ; 
0x0016a97b: call dword [edi+edx*2+0x04] ; 
0x000725b6: call dword [edi+esi*2] ; 
0x00023698: call dword [edi-0x01] ; 
0x00163bbf: call dword [edi-0x04] ; 
0x000a6bb1: call dword [edi-0x17] ; 
0x0002437a: call dword [edi-0x18] ; 
0x001582a2: call dword [edi-0x5E000FFE] ; 
0x0010d56d: call dword [edi-0x749A0001] ; 
0x0005f394: call dword [edi-0x75] ; 
0x0016702b: call dword [edi-0x76BBFFFF] ; 
0x0004e25a: call dword [edi-0x77] ; 
0x00157caf: call dword [edi] ; 
0x0017625f: call dword [edx+0x00000000] ; 
0x0019d46f: call dword [edx+0x00000001] ; 
0x0019de47: call dword [edx+0x00000002] ; 
0x001845ab: call dword [edx+0x00000007] ; 
0x00155533: call dword [edx+0x00000014] ; 
0x00062f1d: call dword [edx+0x00000098] ; 
0x00062f5e: call dword [edx+0x0000009C] ; 
0x0011cf36: call dword [edx+0x000001F8] ; 
0x0011a802: call dword [edx+0x00] ; 
0x0018b816: call dword [edx+0x01] ; 
0x00169233: call dword [edx+0x03] ; 
0x00108524: call dword [edx+0x04] ; 
0x00108672: call dword [edx+0x08] ; 
0x00063825: call dword [edx+0x0C] ; 
0x00108875: call dword [edx+0x10] ; 
0x00111acd: call dword [edx+0x14] ; 
0x001649db: call dword [edx+0x18FFFCDE] ; 
0x000629cb: call dword [edx+0x18] ; 
0x00042a54: call dword [edx+0x1C] ; 
0x0006b33b: call dword [edx+0x20] ; 
0x001636d7: call dword [edx+0x22C4FFFC] ; 
0x00163ec7: call dword [edx+0x22FFFC5B] ; 
0x001643c7: call dword [edx+0x22FFFC97] ; 
0x0006b4e1: call dword [edx+0x24] ; 
0x00163a93: call dword [edx+0x26] ; 
0x00163a9b: call dword [edx+0x2FFFFC26] ; 
0x00067dea: call dword [edx+0x30] ; 
0x001650bb: call dword [edx+0x37040000] ; 
0x000692aa: call dword [edx+0x38] ; 
0x0005dd76: call dword [edx+0x40] ; 
0x00163cff: call dword [edx+0x42FFFC55] ; 
0x001641ff: call dword [edx+0x42FFFC91] ; 
0x000228be: call dword [edx+0x50] ; 
0x0005b13b: call dword [edx+0x51] ; 
0x0001778e: call dword [edx+0x52] ; 
0x00163d0f: call dword [edx+0x55] ; 
0x000d76dd: call dword [edx+0x56] ; 
0x0010cd73: call dword [edx+0x57] ; 
0x0004171a: call dword [edx+0x6A] ; 
0x0016414f: call dword [edx+0x77] ; 
0x0003fe65: call dword [edx+eax*4] ; 
0x00165b53: call dword [edx+eax*8-0x2E7C0000] ; 
0x001a769f: call dword [edx+eax+0x41000000] ; 
0x00165833: call dword [edx+ebp*4+0x00] ; 
0x00163f33: call dword [edx+ebx*2+0x5B24FFFC] ; 
0x00163f1f: call dword [edx+ebx*2-0x04] ; 
0x00163f2f: call dword [edx+ebx*2] ; 
0x00166e5b: call dword [edx+ebx*4] ; 
0x00169dbb: call dword [edx+ebx*8+0x03] ; 
0x00165bfb: call dword [edx+ebx*8] ; 
0x00168a0b: call dword [edx+ebx-0x0EEBFFFD] ; 
0x0016a1a3: call dword [edx+ecx-0x4C0BFFFC] ; 
0x00164e07: call dword [edx+edi*2-0x03] ; 
0x00166a92: call dword [edx+edi*2] ; 
0x00155c73: call dword [edx+edi*8-0x17] ; 
0x00165ec3: call dword [edx+edi*8] ; 
0x00158c13: call dword [edx+edx*2+0x4F1CFFF1] ; 
0x00166d23: call dword [edx+edx*4+0x1F940001] ; 
0x0016a21b: call dword [edx+edx+0x04] ; 
0x001975a7: call dword [edx+edx] ; 
0x0000378e: call dword [edx+esi*8+0x3F] ; 
0x0016a56b: call dword [edx+esi+0x04] ; 
0x0001868f: call dword [edx-0x01] ; 
0x00164cbf: call dword [edx-0x0D000311] ; 
0x00164d4b: call dword [edx-0x0E] ; 
0x00019c60: call dword [edx-0x15970006] ; 
0x000236c5: call dword [edx-0x18] ; 
0x00164907: call dword [edx-0x1D00033D] ; 
0x00164487: call dword [edx-0x1D00035B] ; 
0x001649c7: call dword [edx-0x22] ; 
0x0004f5ad: call dword [edx-0x3F] ; 
0x00143280: call dword [edx-0x46970006] ; 
0x00164747: call dword [edx-0x4B] ; 
0x00164643: call dword [edx-0x4D] ; 
0x0016460b: call dword [edx-0x59] ; 
0x0016420f: call dword [edx-0x6F] ; 
0x00164ccb: call dword [edx-0x73000310] ; 
0x000179c0: call dword [edx-0x73] ; 
0x000d8395: call dword [edx-0x75] ; 
0x00028c83: call dword [edx-0x77] ; 
0x000a9b09: call dword [edx-0x7D] ; 
0x00074592: call dword [edx] ; 
0x0017072f: call dword [esi+0x00000000] ; 
0x00177b47: call dword [esi+0x00000001] ; 
0x00062d31: call dword [esi+0x00000098] ; 
0x00062d5e: call dword [esi+0x0000009C] ; 
0x0011d004: call dword [esi+0x000001E4] ; 
0x0011d4b9: call dword [esi+0x000001E8] ; 
0x0011d1a2: call dword [esi+0x000001F0] ; 
0x0011c987: call dword [esi+0x000007F8] ; 
0x000f78be: call dword [esi+0x00002930] ; 
0x0016cf47: call dword [esi+0x00] ; 
0x00175e03: call dword [esi+0x01] ; 
0x00167492: call dword [esi+0x02] ; 
0x001692d3: call dword [esi+0x03] ; 
0x0016451f: call dword [esi+0x06FFFCA4] ; 
0x0015819a: call dword [esi+0x07] ; 
0x000eee96: call dword [esi+0x14] ; 
0x001635d3: call dword [esi+0x1F] ; 
0x0010acff: call dword [esi+0x20] ; 
0x00163853: call dword [esi+0x23] ; 
0x000d799b: call dword [esi+0x24] ; 
0x0015481b: call dword [esi+0x30] ; 
0x001635db: call dword [esi+0x33FFFC1F] ; 
0x0016385b: call dword [esi+0x33FFFC23] ; 
0x00068441: call dword [esi+0x40] ; 
0x0004b048: call dword [esi+0x50] ; 
0x000436a1: call dword [esi+0x51] ; 
0x00102e68: call dword [esi+0x52] ; 
0x00018040: call dword [esi+0x53] ; 
0x000d6ff1: call dword [esi+0x55] ; 
0x000d6be6: call dword [esi+0x56] ; 
0x000b1d6e: call dword [esi+0x57] ; 
0x00157a23: call dword [esi+0x66] ; 
0x0004352d: call dword [esi+0x68] ; 
0x00023048: call dword [esi+0x6A] ; 
0x00003754: call dword [esi+0x6F] ; 
0x0016413f: call dword [esi+0x77] ; 
0x0016a7c3: call dword [esi+eax*2+0x04] ; 
0x0016afa3: call dword [esi+eax*8+0x01] ; 
0x0018e752: call dword [esi+eax+0x41000000] ; 
0x00167182: call dword [esi+ebp*8+0x01] ; 
0x00169f8b: call dword [esi+ebp*8+0x71F40003] ; 
0x0016a4f3: call dword [esi+ebp+0x00740004] ; 
0x001668b2: call dword [esi+ebx*2] ; 
0x001698bb: call dword [esi+ebx*4+0x03] ; 
0x00169deb: call dword [esi+ebx*8+0x4BA40003] ; 
0x00164a9f: call dword [esi+ebx*8-0x04] ; 
0x0016344b: call dword [esi+ebx-0x04] ; 
0x0016541b: call dword [esi+ecx*4] ; 
0x00169cab: call dword [esi+ecx*8+0x03] ; 
0x0016823b: call dword [esi+ecx*8+0x0BA40002] ; 
0x00165f2b: call dword [esi+edi*8] ; 
0x0016768a: call dword [esi+edi+0x02] ; 
0x0016a953: call dword [esi+edx*2] ; 
0x00166e0b: call dword [esi+edx*4+0x01] ; 
0x0016441f: call dword [esi+edx*4-0x04] ; 
0x00164433: call dword [esi+edx*4-0x68DB0004] ; 
0x0016442f: call dword [esi+edx*4] ; 
0x001664b2: call dword [esi+esi+0x01] ; 
0x00023289: call dword [esi-0x01] ; 
0x00164d5f: call dword [esi-0x0F] ; 
0x0004475c: call dword [esi-0x18] ; 
0x00164823: call dword [esi-0x1900033F] ; 
0x0016475f: call dword [esi-0x1900034C] ; 
0x00164667: call dword [esi-0x1900034D] ; 
0x001692e3: call dword [esi-0x1BCBFFFD] ; 
0x0016635b: call dword [esi-0x1F0BFFFF] ; 
0x00158c5b: call dword [esi-0x33000EB7] ; 
0x0016ac5b: call dword [esi-0x366BFFFF] ; 
0x001649a7: call dword [esi-0x3D] ; 
0x0016799b: call dword [esi-0x4C3BFFFE] ; 
0x0016461f: call dword [esi-0x5A] ; 
0x00164527: call dword [esi-0x5B] ; 
0x00022fde: call dword [esi-0x73] ; 
0x0004d200: call dword [esi-0x75] ; 
0x0004dc7e: call dword [esi-0x77] ; 
0x000420ce: call dword [esi] ; 
0x0010853d: call dword [esp+0x00000088] ; 
0x0010df00: call dword [esp+0x00000090] ; 
0x000a1283: call dword [esp+0x000000E4] ; 
0x00111051: call dword [esp+0x00000118] ; 
0x00109902: call dword [esp+0x00002964] ; 
0x00109a08: call dword [esp+0x0000296C] ; 
0x00108495: call dword [esp+0x24] ; 
0x00106c0e: call dword [esp+0x2C] ; 
0x00115272: call dword [esp+0x30] ; 
0x000f8715: call dword [esp+0x38] ; 
0x000ae3fc: call dword [esp+0x3C] ; 
0x0002d541: call dword [esp+0x40] ; 
0x000e41b1: call dword [esp+0x48] ; 
0x000745f4: call dword [esp+0x4C] ; 
0x000e4772: call dword [esp+0x50] ; 
0x00106a8d: call dword [esp+0x60] ; 
0x00018633: call dword [esp+0x70] ; 
0x000185c3: call dword [esp+0x7C] ; 
0x00167cb3: call dword [esp+eax*4] ; 
0x00165fab: call dword [esp+eax+0x70640001] ; 
0x00168723: call dword [esp+eax-0x502BFFFD] ; 
0x00167302: call dword [esp+eax] ; 
0x00167a7b: call dword [esp+ebp*2+0x02] ; 
0x001670c3: call dword [esp+ebp*4+0x01] ; 
0x001670d3: call dword [esp+ebp*4-0x6EEBFFFF] ; 
0x0016a48b: call dword [esp+ebp] ; 
0x00166213: call dword [esp+ebx] ; 
0x001666aa: call dword [esp+ecx*2+0x01] ; 
0x0016a883: call dword [esp+ecx*2+0x04] ; 
0x00166c8b: call dword [esp+ecx*4+0x09A40001] ; 
0x00166083: call dword [esp+ecx+0x01] ; 
0x00155ec7: call dword [esp+edi-0x16] ; 
0x00167853: call dword [esp+edx*2+0x02] ; 
0x0016a903: call dword [esp+edx*2+0x77A40004] ; 
0x001642f7: call dword [esp+edx*4] ; 
0x00169d4b: call dword [esp+edx*8+0x34340003] ; 
0x001673f2: call dword [esp+edx+0x46540002] ; 
0x0016895b: call dword [esp+edx-0x216BFFFD] ; 
0x0016a243: call dword [esp+edx-0x329BFFFC] ; 
0x00166492: call dword [esp+esi+0x0FE40001] ; 
0x0016794b: call dword [esp-0x502BFFFE] ; 
0x00168b1b: call dword [esp] ; 
0x0001865e: call eax ; 
0x0001bc38: call ebp ; 
0x0001d5a1: call ebx ; 
0x00008f67: call ecx ; 
0x00019c30: call edi ; 
0x00022354: call edx ; 
0x000199be: call esi ; 
0x000f978d: call esp ; 
0x001591b8: cdq  ; call dword [ecx+eax+0x01A6FF98] ; 
0x0018c4a1: cdq  ; call dword [edi+0x08] ; 
0x000877eb: cdq  ; jmp ecx ; 
0x0002b0e0: clc  ; call dword [0x00000010] ; 
0x00168b5a: clc  ; call dword [0x0BE40003] ; 
0x0016927a: clc  ; call dword [0xE0940003] ; 
0x00096249: clc  ; call dword [eax+0x0026748D] ; 
0x00168cca: clc  ; call dword [eax+0x0400032D] ; 
0x00168ab2: clc  ; call dword [eax+0x14000320] ; 
0x00168b9a: clc  ; call dword [eax+0x26000328] ; 
0x0009c18d: clc  ; call dword [eax+0x396FE853] ; 
0x000a3b5d: clc  ; call dword [eax+0x4C8BDA89] ; 
0x001690b2: clc  ; call dword [eax+0x4D] ; 
0x00169152: clc  ; call dword [eax+0x56] ; 
0x00169192: clc  ; call dword [eax+0x58] ; 
0x0016913a: clc  ; call dword [eax+0x74000354] ; 
0x00169342: clc  ; call dword [eax+ebp*2-0x185BFFFD] ; 
0x00168b7a: clc  ; call dword [eax+ebp] ; 
0x001690ea: clc  ; call dword [eax+edx*2] ; 
0x00168c59: clc  ; call dword [eax] ; 
0x0016928a: clc  ; call dword [ebp+0x03] ; 
0x000e4a2e: clc  ; call dword [ebp+0x57] ; 
0x0009d13e: clc  ; call dword [ebp-0x18] ; 
0x00168fda: clc  ; call dword [ebx+eax*2+0x5EB40003] ; 
0x00168dea: clc  ; call dword [ebx+esi+0x03] ; 
0x0009967e: clc  ; call dword [ebx-0x18] ; 
0x0016937a: clc  ; call dword [ecx+ebp*2-0x165BFFFD] ; 
0x001691b2: clc  ; call dword [ecx+ebx*2+0x03] ; 
0x001690fa: clc  ; call dword [ecx+edx*2+0x03] ; 
0x001a1cba: clc  ; call dword [ecx] ; 
0x00194d6e: clc  ; call dword [edi+0x00000000] ; 
0x00169312: clc  ; call dword [edi+0x03] ; 
0x00168f52: clc  ; call dword [edi+edi+0x55840003] ; 
0x00169302: clc  ; call dword [edi] ; 
0x00169232: clc  ; call dword [edx+0x03] ; 
0x001692d2: clc  ; call dword [esi+0x03] ; 
0x001692e2: clc  ; call dword [esi-0x1BCBFFFD] ; 
0x001692c2: clc  ; call dword [esi] ; 
0x00168b1a: clc  ; call dword [esp] ; 
0x00168bea: clc  ; call eax ; 
0x00168b4a: clc  ; call esp ; 
0x00168c79: clc  ; jmp dword [eax+0x2C] ; 
0x00168cba: clc  ; jmp dword [eax+0x2D] ; 
0x00168d9a: clc  ; jmp dword [eax+0x31] ; 
0x00168ef2: clc  ; jmp dword [eax+0x3C] ; 
0x001693ea: clc  ; jmp dword [eax+0x6C] ; 
0x0016919a: clc  ; jmp dword [eax+0x74000358] ; 
0x00168d79: clc  ; jmp dword [eax+esi+0x2E840003] ; 
0x00168d5a: clc  ; jmp dword [eax+esi] ; 
0x001692a2: clc  ; jmp dword [eax-0x1BFFFC9B] ; 
0x001690e2: clc  ; jmp dword [eax-0x3BFFFCB1] ; 
0x00168c42: clc  ; jmp dword [eax-0x3BFFFCD5] ; 
0x00168caa: clc  ; jmp dword [eax] ; 
0x00168cd2: clc  ; jmp dword [ebp+ebp+0x29340003] ; 
0x000eab99: clc  ; jmp dword [ebp-0x75] ; 
0x001691da: clc  ; jmp dword [ebx+ebx*2-0x57ABFFFD] ; 
0x00168eca: clc  ; jmp dword [ebx+edi] ; 
0x0016907a: clc  ; jmp dword [ecx+ecx*2] ; 
0x00168e6a: clc  ; jmp dword [edi+esi+0x03] ; 
0x00168aea: clc  ; jmp dword [edx+0x03] ; 
0x00168c02: clc  ; jmp dword [edx+ebp+0x23540003] ; 
0x001691c2: clc  ; jmp dword [edx+ebx*2] ; 
0x001a1736: clc  ; jmp dword [edx] ; 
0x00169040: clc  ; jmp dword [esi+eax*2+0x64C40003] ; 
0x00097fec: clc  ; jmp dword [esi-0x70] ; 
0x00199b5e: clc  ; jmp dword [esi] ; 
0x00168b2a: clc  ; jmp dword [esp+0x03] ; 
0x00168b3a: clc  ; jmp dword [esp+0x0B040003] ; 
0x00168c61: clc  ; jmp dword [esp+ebp] ; 
0x000907c7: clc  ; jmp eax ; 
0x00168b0a: clc  ; jmp esp ; 
0x00002c21: clc  ; rep ret  ; 
0x0016803c: clc  ; ret  ; 
0x0016af6c: clc  ; retn 0x0001 ; 
0x0016394a: cld  ; call dword [0x2544FFFC] ; 
0x00163506: cld  ; call dword [0x45FFFC1E] ; 
0x0016330a: cld  ; call dword [0xB2FFFC1C] ; 
0x0016452e: cld  ; call dword [eax+0x00FFFCA4] ; 
0x000ac3bd: cld  ; call dword [eax+0x0824448B] ; 
0x00164c32: cld  ; call dword [eax+0x10FFFCE1] ; 
0x001635f2: cld  ; call dword [eax+0x1F] ; 
0x0016456e: cld  ; call dword [eax+0x20FFFCA1] ; 
0x00164726: cld  ; call dword [eax+0x20FFFCAE] ; 
0x001648d6: cld  ; call dword [eax+0x20FFFCBA] ; 
0x00164a62: cld  ; call dword [eax+0x20FFFCDD] ; 
0x00164d12: cld  ; call dword [eax+0x20FFFCE8] ; 
0x001637d2: cld  ; call dword [eax+0x22] ; 
0x00163872: cld  ; call dword [eax+0x23] ; 
0x00163cea: cld  ; call dword [eax+0x29] ; 
0x001640f2: cld  ; call dword [eax+0x40FFFC74] ; 
0x00164b32: cld  ; call dword [eax+0x40FFFCDE] ; 
0x00163ea2: cld  ; call dword [eax+0x4A] ; 
0x00164cfd: cld  ; call dword [eax+0x50FFFCE3] ; 
0x000ac3dd: cld  ; call dword [eax+0x53565755] ; 
0x00163db6: cld  ; call dword [eax+0x56] ; 
0x00164102: cld  ; call dword [eax+0x5D] ; 
0x0016403a: cld  ; call dword [eax+0x74] ; 
0x001641f6: cld  ; call dword [eax+0x78] ; 
0x001641ea: cld  ; call dword [eax+0x79] ; 
0x00163bce: cld  ; call dword [eax+ebp] ; 
0x00163df6: cld  ; call dword [eax+ebx*2] ; 
0x001641a2: cld  ; call dword [eax+edi*2] ; 
0x00164c95: cld  ; call dword [eax+esi*8-0x04] ; 
0x00164b0a: cld  ; call dword [eax-0x0F000320] ; 
0x00164b6e: cld  ; call dword [eax-0x0F00032B] ; 
0x00164b4e: cld  ; call dword [eax-0x0F000336] ; 
0x00164d6d: cld  ; call dword [eax-0x0F] ; 
0x000acb6d: cld  ; call dword [eax-0x17ACA9A9] ; 
0x00164d02: cld  ; call dword [eax-0x1A] ; 
0x0016457e: cld  ; call dword [eax-0x1D00035A] ; 
0x00164c26: cld  ; call dword [eax-0x1E] ; 
0x00164832: cld  ; call dword [eax-0x1F00033F] ; 
0x0016476e: cld  ; call dword [eax-0x1F00034C] ; 
0x00164676: cld  ; call dword [eax-0x1F00034D] ; 
0x00164112: cld  ; call dword [eax-0x1F00039E] ; 
0x00163eb2: cld  ; call dword [eax-0x1F0003B1] ; 
0x00164c1e: cld  ; call dword [eax-0x1F] ; 
0x00164b76: cld  ; call dword [eax-0x28] ; 
0x00164b56: cld  ; call dword [eax-0x33] ; 
0x0016aea2: cld  ; call dword [eax-0x3BFFFE40] ; 
0x00164c3a: cld  ; call dword [eax-0x3D00031E] ; 
0x001649b6: cld  ; call dword [eax-0x3D] ; 
0x00163cee: cld  ; call dword [eax-0x3F0003D7] ; 
0x00163cda: cld  ; call dword [eax-0x3F0003D8] ; 
0x00163a56: cld  ; call dword [eax-0x3F0003DB] ; 
0x001637c2: cld  ; call dword [eax-0x3F0003DF] ; 
0x00163566: cld  ; call dword [eax-0x3F0003E1] ; 
0x001648c6: cld  ; call dword [eax-0x48] ; 
0x0016af0a: cld  ; call dword [eax-0x4BFFFE4E] ; 
0x00164716: cld  ; call dword [eax-0x54] ; 
0x0016462e: cld  ; call dword [eax-0x5A] ; 
0x00164536: cld  ; call dword [eax-0x5B] ; 
0x0016455e: cld  ; call dword [eax-0x61] ; 
0x0016387a: cld  ; call dword [eax-0x6C0003DD] ; 
0x001642b6: cld  ; call dword [eax-0x6E] ; 
0x001635fa: cld  ; call dword [eax-0x7C0003E1] ; 
0x0016346e: cld  ; call dword [eax] ; 
0x00163792: cld  ; call dword [ebp+0x22] ; 
0x00163a81: cld  ; call dword [ebp+0x26] ; 
0x00163caa: cld  ; call dword [ebp+0x29] ; 
0x00163a89: cld  ; call dword [ebp+0x32FFFC26] ; 
0x00164a32: cld  ; call dword [ebp+ebx*8-0x04] ; 
0x001642ea: cld  ; call dword [ebp+edx*4-0x04] ; 
0x00164076: cld  ; call dword [ebp+esi*2-0x04] ; 
0x0016479a: cld  ; call dword [ebp+esi*4-0x4B810004] ; 
0x00163cae: cld  ; call dword [ebp-0x3A0003D7] ; 
0x00163c9a: cld  ; call dword [ebp-0x3A0003D8] ; 
0x00163a16: cld  ; call dword [ebp-0x3A0003DB] ; 
0x00163782: cld  ; call dword [ebp-0x3A0003DF] ; 
0x00163526: cld  ; call dword [ebp-0x3A0003E1] ; 
0x0016339e: cld  ; call dword [ebx+0x1F] ; 
0x001633b2: cld  ; call dword [ebx+0x20] ; 
0x00163862: cld  ; call dword [ebx+0x23] ; 
0x0016388e: cld  ; call dword [ebx+0x25] ; 
0x001638a1: cld  ; call dword [ebx+0x26] ; 
0x001638b2: cld  ; call dword [ebx+0x27] ; 
0x00163b12: cld  ; call dword [ebx+0x28] ; 
0x00163b3a: cld  ; call dword [ebx+0x2A] ; 
0x001635ea: cld  ; call dword [ebx+0x30FFFC1F] ; 
0x0016386a: cld  ; call dword [ebx+0x30FFFC23] ; 
0x00163fe2: cld  ; call dword [ebx+esi*2+0x7424FFFC] ; 
0x001638b6: cld  ; call dword [ebx-0x2C0003D9] ; 
0x001638a5: cld  ; call dword [ebx-0x2C0003DA] ; 
0x00163b02: cld  ; call dword [ebx-0x3C0003D9] ; 
0x0016387e: cld  ; call dword [ebx-0x3C0003DC] ; 
0x0016338e: cld  ; call dword [ebx-0x3C0003E2] ; 
0x0016360a: cld  ; call dword [ebx] ; 
0x0016484e: cld  ; call dword [ecx+eax*8] ; 
0x00163dea: cld  ; call dword [ecx+ebx*2-0x04] ; 
0x00164d92: cld  ; call dword [ecx+esi*8-0x0E1B0004] ; 
0x00164ab6: cld  ; call dword [edi+ebx*8-0x04] ; 
0x0016345a: cld  ; call dword [edi+ebx] ; 
0x000b39bd: cld  ; call dword [edi-0x01] ; 
0x00163bbe: cld  ; call dword [edi-0x04] ; 
0x001645d6: cld  ; call dword [edi] ; 
0x001649da: cld  ; call dword [edx+0x18FFFCDE] ; 
0x001636d6: cld  ; call dword [edx+0x22C4FFFC] ; 
0x00163ec6: cld  ; call dword [edx+0x22FFFC5B] ; 
0x001643c6: cld  ; call dword [edx+0x22FFFC97] ; 
0x00163a91: cld  ; call dword [edx+0x26] ; 
0x00163a99: cld  ; call dword [edx+0x2FFFFC26] ; 
0x00163cfe: cld  ; call dword [edx+0x42FFFC55] ; 
0x001641fe: cld  ; call dword [edx+0x42FFFC91] ; 
0x00163d0e: cld  ; call dword [edx+0x55] ; 
0x0016414e: cld  ; call dword [edx+0x77] ; 
0x00163f32: cld  ; call dword [edx+ebx*2+0x5B24FFFC] ; 
0x00163f1e: cld  ; call dword [edx+ebx*2-0x04] ; 
0x00163f2e: cld  ; call dword [edx+ebx*2] ; 
0x00164cbd: cld  ; call dword [edx-0x0D000311] ; 
0x00164d49: cld  ; call dword [edx-0x0E] ; 
0x00164906: cld  ; call dword [edx-0x1D00033D] ; 
0x00164486: cld  ; call dword [edx-0x1D00035B] ; 
0x001649c6: cld  ; call dword [edx-0x22] ; 
0x00164746: cld  ; call dword [edx-0x4B] ; 
0x00164642: cld  ; call dword [edx-0x4D] ; 
0x0016460a: cld  ; call dword [edx-0x59] ; 
0x0016420e: cld  ; call dword [edx-0x6F] ; 
0x00164cc9: cld  ; call dword [edx-0x73000310] ; 
0x0016331a: cld  ; call dword [edx] ; 
0x0016451e: cld  ; call dword [esi+0x06FFFCA4] ; 
0x001635d2: cld  ; call dword [esi+0x1F] ; 
0x00163852: cld  ; call dword [esi+0x23] ; 
0x001635da: cld  ; call dword [esi+0x33FFFC1F] ; 
0x0016385a: cld  ; call dword [esi+0x33FFFC23] ; 
0x0016413e: cld  ; call dword [esi+0x77] ; 
0x00164a9e: cld  ; call dword [esi+ebx*8-0x04] ; 
0x0016344a: cld  ; call dword [esi+ebx-0x04] ; 
0x0016441e: cld  ; call dword [esi+edx*4-0x04] ; 
0x00164432: cld  ; call dword [esi+edx*4-0x68DB0004] ; 
0x0016442e: cld  ; call dword [esi+edx*4] ; 
0x00164d5d: cld  ; call dword [esi-0x0F] ; 
0x00164822: cld  ; call dword [esi-0x1900033F] ; 
0x0016475e: cld  ; call dword [esi-0x1900034C] ; 
0x00164666: cld  ; call dword [esi-0x1900034D] ; 
0x001649a6: cld  ; call dword [esi-0x3D] ; 
0x0016461e: cld  ; call dword [esi-0x5A] ; 
0x00164526: cld  ; call dword [esi-0x5B] ; 
0x0016395e: cld  ; call dword [esi] ; 
0x001642f6: cld  ; call dword [esp+edx*4] ; 
0x00163556: cld  ; call eax ; 
0x00163302: cld  ; call ebp ; 
0x0016337e: cld  ; call ebx ; 
0x00163312: cld  ; call edx ; 
0x001644aa: cld  ; call esi ; 
0x0016346a: cld  ; call esp ; 
0x0016378e: cld  ; jmp dword [0x55FFFC22] ; 
0x00163ca6: cld  ; jmp dword [0x55FFFC29] ; 
0x001637a2: cld  ; jmp dword [0x65FFFC23] ; 
0x001637b2: cld  ; jmp dword [0x65FFFC24] ; 
0x001644d2: cld  ; jmp dword [0xA574FFFC] ; 
0x001640ca: cld  ; jmp dword [eax+0x00FFFC76] ; 
0x0016438a: cld  ; jmp dword [eax+0x00FFFC7D] ; 
0x001643aa: cld  ; jmp dword [eax+0x00FFFC88] ; 
0x00163f7a: cld  ; jmp dword [eax+0x12FFFC5B] ; 
0x00163562: cld  ; jmp dword [eax+0x1F] ; 
0x00163576: cld  ; jmp dword [eax+0x20] ; 
0x001637be: cld  ; jmp dword [eax+0x21] ; 
0x001649ba: cld  ; jmp dword [eax+0x22FFFCC3] ; 
0x001637e6: cld  ; jmp dword [eax+0x23] ; 
0x001637f6: cld  ; jmp dword [eax+0x24] ; 
0x00163a52: cld  ; jmp dword [eax+0x25] ; 
0x00163af5: cld  ; jmp dword [eax+0x26] ; 
0x00163cd6: cld  ; jmp dword [eax+0x28] ; 
0x00163da6: cld  ; jmp dword [eax+0x30FFFC56] ; 
0x0016402e: cld  ; jmp dword [eax+0x30FFFC72] ; 
0x001642a6: cld  ; jmp dword [eax+0x30FFFC92] ; 
0x00164552: cld  ; jmp dword [eax+0x30FFFC9D] ; 
0x0016470a: cld  ; jmp dword [eax+0x30FFFCAA] ; 
0x00164d36: cld  ; jmp dword [eax+0x30FFFCED] ; 
0x0016357a: cld  ; jmp dword [eax+0x45FFFC20] ; 
0x001637fa: cld  ; jmp dword [eax+0x45FFFC24] ; 
0x00163e96: cld  ; jmp dword [eax+0x46] ; 
0x001640fe: cld  ; jmp dword [eax+0x50FFFC5A] ; 
0x001641e6: cld  ; jmp dword [eax+0x50FFFC78] ; 
0x00163d9e: cld  ; jmp dword [eax+0x55] ; 
0x00163f66: cld  ; jmp dword [eax+0x5B] ; 
0x001640e6: cld  ; jmp dword [eax+0x60FFFC75] ; 
0x0016453e: cld  ; jmp dword [eax+0x60FFFC98] ; 
0x00164b26: cld  ; jmp dword [eax+0x60FFFCDF] ; 
0x00164136: cld  ; jmp dword [eax+0x6E] ; 
0x00163e62: cld  ; jmp dword [eax+0x70FFFC57] ; 
0x00164362: cld  ; jmp dword [eax+0x70FFFC93] ; 
0x001640be: cld  ; jmp dword [eax+0x74] ; 
0x001640ea: cld  ; jmp dword [eax+0x76] ; 
0x0016aeaa: cld  ; jmp dword [eax+eax*8+0x10440001] ; 
0x00163bda: cld  ; jmp dword [eax+ebp+0x28D4FFFC] ; 
0x001641b6: cld  ; jmp dword [eax+edi*2-0x04] ; 
0x00164c99: cld  ; jmp dword [eax+esi*8-0x10610004] ; 
0x0016473e: cld  ; jmp dword [eax-0x0D00034C] ; 
0x00164d72: cld  ; jmp dword [eax-0x0F00030F] ; 
0x001648fa: cld  ; jmp dword [eax-0x0F000341] ; 
0x00164632: cld  ; jmp dword [eax-0x0F00035A] ; 
0x00164106: cld  ; jmp dword [eax-0x0F0003A2] ; 
0x00163ea6: cld  ; jmp dword [eax-0x0F0003B5] ; 
0x00164d3e: cld  ; jmp dword [eax-0x0F] ; 
0x00164c75: cld  ; jmp dword [eax-0x10] ; 
0x00164d26: cld  ; jmp dword [eax-0x15] ; 
0x001637ea: cld  ; jmp dword [eax-0x1F0003DD] ; 
0x00164b2a: cld  ; jmp dword [eax-0x20] ; 
0x00164a7a: cld  ; jmp dword [eax-0x22] ; 
0x0016447a: cld  ; jmp dword [eax-0x2D000369] ; 
0x00163cc6: cld  ; jmp dword [eax-0x2F0003D9] ; 
0x00163a42: cld  ; jmp dword [eax-0x2F0003DC] ; 
0x00163552: cld  ; jmp dword [eax-0x2F0003E2] ; 
0x0016336e: cld  ; jmp dword [eax-0x3F0003E5] ; 
0x001648b2: cld  ; jmp dword [eax-0x3F] ; 
0x001648ea: cld  ; jmp dword [eax-0x43] ; 
0x001647ee: cld  ; jmp dword [eax-0x4C] ; 
0x001646f6: cld  ; jmp dword [eax-0x4D] ; 
0x0016473a: cld  ; jmp dword [eax-0x4F] ; 
0x0016453a: cld  ; jmp dword [eax-0x5F00035B] ; 
0x0016402a: cld  ; jmp dword [eax-0x5F00038C] ; 
0x00164542: cld  ; jmp dword [eax-0x65] ; 
0x00164466: cld  ; jmp dword [eax-0x69] ; 
0x0016429e: cld  ; jmp dword [eax-0x6F] ; 
0x0016477a: cld  ; jmp dword [eax-0x7500034B] ; 
0x001643b2: cld  ; jmp dword [eax-0x75] ; 
0x00164212: cld  ; jmp dword [eax-0x7D00036F] ; 
0x00163d12: cld  ; jmp dword [eax-0x7D0003AB] ; 
0x00164346: cld  ; jmp dword [eax-0x7F00036C] ; 
0x00163e46: cld  ; jmp dword [eax-0x7F0003A8] ; 
0x00164392: cld  ; jmp dword [eax-0x80] ; 
0x001637ce: cld  ; jmp dword [eax] ; 
0x001744d6: cld  ; jmp dword [ebp+0x00] ; 
0x00163522: cld  ; jmp dword [ebp+0x1F] ; 
0x00163536: cld  ; jmp dword [ebp+0x20] ; 
0x0016377e: cld  ; jmp dword [ebp+0x21] ; 
0x001637a6: cld  ; jmp dword [ebp+0x23] ; 
0x001637b6: cld  ; jmp dword [ebp+0x24] ; 
0x00163956: cld  ; jmp dword [ebp+0x25D4FFFC] ; 
0x00163a12: cld  ; jmp dword [ebp+0x25] ; 
0x00163c96: cld  ; jmp dword [ebp+0x28] ; 
0x0016358a: cld  ; jmp dword [ebp+0x42FFFC1F] ; 
0x0016380a: cld  ; jmp dword [ebp+0x42FFFC23] ; 
0x001637ba: cld  ; jmp dword [ebp+0x60FFFC24] ; 
0x00164a22: cld  ; jmp dword [ebp+ebx*8-0x21CB0004] ; 
0x001637aa: cld  ; jmp dword [ebp-0x1A0003DD] ; 
0x00163c86: cld  ; jmp dword [ebp-0x2A0003D9] ; 
0x00163a02: cld  ; jmp dword [ebp-0x2A0003DC] ; 
0x00163512: cld  ; jmp dword [ebp-0x2A0003E2] ; 
0x0016353a: cld  ; jmp dword [ebp-0x4F0003E0] ; 
0x0016338a: cld  ; jmp dword [ebx+0x1E] ; 
0x00163ae5: cld  ; jmp dword [ebx+0x26] ; 
0x00163afd: cld  ; jmp dword [ebx+0x27] ; 
0x00164952: cld  ; jmp dword [ebx+eax*8] ; 
0x00163f36: cld  ; jmp dword [ebx+ebx*2] ; 
0x00163616: cld  ; jmp dword [ebx-0x2C0003DE] ; 
0x0016335e: cld  ; jmp dword [ebx-0x3C0003E5] ; 
0x0016339a: cld  ; jmp dword [ebx] ; 
0x0018ca91: cld  ; jmp dword [ecx+0x00000000] ; 
0x001636c2: cld  ; jmp dword [ecx+0x21D4FFFC] ; 
0x00163bee: cld  ; jmp dword [ecx+ebp+0x29D4FFFC] ; 
0x00163bea: cld  ; jmp dword [ecx+ebp-0x04] ; 
0x001641aa: cld  ; jmp dword [ecx+edi*2-0x04] ; 
0x00164bde: cld  ; jmp dword [ecx-0x04] ; 
0x00164bf2: cld  ; jmp dword [ecx-0x1DDB0004] ; 
0x0011b7be: cld  ; jmp dword [ecx] ; 
0x0017d752: cld  ; jmp dword [edi+0x00] ; 
0x00164c8d: cld  ; jmp dword [edi+ebp*8-0x0FFB0004] ; 
0x00163466: cld  ; jmp dword [edi+ebx+0x1FD4FFFC] ; 
0x00164436: cld  ; jmp dword [edi+edx*4] ; 
0x001645da: cld  ; jmp dword [edi-0x04] ; 
0x001644fe: cld  ; jmp dword [edx+0x12FFFCA4] ; 
0x00163592: cld  ; jmp dword [edx+0x1F] ; 
0x00163812: cld  ; jmp dword [edx+0x23] ; 
0x0016359a: cld  ; jmp dword [edx+0x3FFFFC1F] ; 
0x0016381a: cld  ; jmp dword [edx+0x3FFFFC23] ; 
0x00163d0a: cld  ; jmp dword [edx+0x57] ; 
0x0016485a: cld  ; jmp dword [edx+eax*8] ; 
0x00164276: cld  ; jmp dword [edx+edx*4-0x04] ; 
0x00164262: cld  ; jmp dword [edx+edx*4] ; 
0x001636d2: cld  ; jmp dword [edx-0x04] ; 
0x00164802: cld  ; jmp dword [edx-0x0D00033F] ; 
0x00164646: cld  ; jmp dword [edx-0x0D00034D] ; 
0x00164bfa: cld  ; jmp dword [edx-0x1EA50004] ; 
0x00164986: cld  ; jmp dword [edx-0x3D] ; 
0x001645fe: cld  ; jmp dword [edx-0x5A] ; 
0x00164506: cld  ; jmp dword [edx-0x5B] ; 
0x0016420a: cld  ; jmp dword [edx-0x6D] ; 
0x00163eca: cld  ; jmp dword [edx] ; 
0x0015918c: cld  ; jmp dword [esi+0x00] ; 
0x00163ad5: cld  ; jmp dword [esi+0x26] ; 
0x00164ab2: cld  ; jmp dword [esi+ebx*8-0x20AB0004] ; 
0x00163446: cld  ; jmp dword [esi+ebx] ; 
0x00163d76: cld  ; jmp dword [esi+edx*2-0x04] ; 
0x00163d62: cld  ; jmp dword [esi+edx*2] ; 
0x00164d62: cld  ; jmp dword [esi-0x0900030F] ; 
0x00164622: cld  ; jmp dword [esi-0x0900035A] ; 
0x00164c65: cld  ; jmp dword [esi-0x10] ; 
0x0016334e: cld  ; jmp dword [esi-0x390003E5] ; 
0x001648a2: cld  ; jmp dword [esi-0x3F] ; 
0x001647de: cld  ; jmp dword [esi-0x4C] ; 
0x001646e6: cld  ; jmp dword [esi-0x4D] ; 
0x001649aa: cld  ; jmp dword [esi-0x4F00033D] ; 
0x0016476a: cld  ; jmp dword [esi-0x6F00034B] ; 
0x0016452a: cld  ; jmp dword [esi-0x6F00035B] ; 
0x0005d8b4: cld  ; jmp dword [esi-0x70] ; 
0x00163acd: cld  ; jmp dword [esi] ; 
0x00164072: cld  ; jmp dword [esp+esi*2+0x7554FFFC] ; 
0x00163ffa: cld  ; jmp dword [esp+esi*2-0x04] ; 
0x00163fe6: cld  ; jmp dword [esp+esi*2] ; 
0x00163376: cld  ; jmp eax ; 
0x00163502: cld  ; jmp ebp ; 
0x00163366: cld  ; jmp ebx ; 
0x00164152: cld  ; jmp edx ; 
0x00163356: cld  ; jmp esi ; 
0x00163456: cld  ; jmp esp ; 
0x00151a4a: cld  ; ret  ; 
0x000f8f95: cld  ; retn 0xFFFA ; 
0x00023126: cli  ; call dword [0x00000010] ; 
0x00169e7a: cli  ; call dword [0x59C40003] ; 
0x0016a412: cli  ; call dword [0xEBD40004] ; 
0x00067396: cli  ; call dword [eax+0x0026B48D] ; 
0x00169bfa: cli  ; call dword [eax+0x040003C3] ; 
0x0016a11a: cli  ; call dword [eax+0x04] ; 
0x0016a292: cli  ; call dword [eax+0x44000417] ; 
0x000e0455: cli  ; call dword [eax+0x50] ; 
0x000a206a: cli  ; call dword [eax+0x51] ; 
0x000266ae: cli  ; call dword [eax+0x52] ; 
0x00069c6e: cli  ; call dword [eax+0x53] ; 
0x0002a3ba: cli  ; call dword [eax+0x55] ; 
0x000288fb: cli  ; call dword [eax+0x56] ; 
0x000177a7: cli  ; call dword [eax+0x57] ; 
0x0003b395: cli  ; call dword [eax+0x68] ; 
0x0003cd0e: cli  ; call dword [eax+0x6A] ; 
0x00169bb2: cli  ; call dword [eax+eax*8+0x03] ; 
0x00169da0: cli  ; call dword [eax+ebx*8+0x40340003] ; 
0x00073dcd: cli  ; call dword [eax-0x01] ; 
0x0016a0d2: cli  ; call dword [eax-0x0BFFFC00] ; 
0x00169f29: cli  ; call dword [eax-0x0BFFFC15] ; 
0x00169f82: cli  ; call dword [eax-0x12] ; 
0x000c7358: cli  ; call dword [eax-0x15] ; 
0x00017769: cli  ; call dword [eax-0x18] ; 
0x00169de2: cli  ; call dword [eax-0x22] ; 
0x00169c5a: cli  ; call dword [eax-0x37] ; 
0x00169c3a: cli  ; call dword [eax-0x39] ; 
0x00169bf2: cli  ; call dword [eax-0x3D] ; 
0x0016a31a: cli  ; call dword [eax-0x5BFFFBE3] ; 
0x0016a38a: cli  ; call dword [eax-0x6BFFFBE0] ; 
0x00017a4f: cli  ; call dword [eax-0x73] ; 
0x000186cb: cli  ; call dword [eax-0x75] ; 
0x0001ae6c: cli  ; call dword [eax-0x77] ; 
0x00169bc2: cli  ; call dword [eax] ; 
0x0017b742: cli  ; call dword [ebp+0x00000000] ; 
0x0005b5c4: cli  ; call dword [ebp+0x56] ; 
0x000e03ab: cli  ; call dword [ebp+0x57] ; 
0x000d702d: cli  ; call dword [ebp-0x01] ; 
0x0002e47d: cli  ; call dword [ebx+0x50] ; 
0x00032d09: cli  ; call dword [ebx+0x6A] ; 
0x00105007: cli  ; call dword [ebx-0x18] ; 
0x0003f1a0: cli  ; call dword [ebx-0x73] ; 
0x000a32d7: cli  ; call dword [ecx+0x50] ; 
0x00169e1a: cli  ; call dword [ecx+0x51C40003] ; 
0x000e6455: cli  ; call dword [ecx+0x51] ; 
0x000af0e8: cli  ; call dword [ecx+0x52] ; 
0x00102e0f: cli  ; call dword [ecx+0x56] ; 
0x0007342e: cli  ; call dword [ecx+0x6A] ; 
0x0016a2b2: cli  ; call dword [ecx+ebx-0x297BFFFC] ; 
0x000cb6fc: cli  ; call dword [ecx-0x01] ; 
0x00159190: cli  ; call dword [ecx-0x56000A00] ; 
0x00180b2e: cli  ; call dword [ecx] ; 
0x00075bb1: cli  ; call dword [edi+0x50] ; 
0x0005b412: cli  ; call dword [edi+0x56] ; 
0x000e6368: cli  ; call dword [edi+0x57] ; 
0x001792ae: cli  ; call dword [edx+0x00000000] ; 
0x001845aa: cli  ; call dword [edx+0x00000007] ; 
0x000228bd: cli  ; call dword [edx+0x50] ; 
0x0006d2ec: cli  ; call dword [edx+0x51] ; 
0x0001778d: cli  ; call dword [edx+0x52] ; 
0x000cb94e: cli  ; call dword [edx+0x6A] ; 
0x00169dba: cli  ; call dword [edx+ebx*8+0x03] ; 
0x0016a1a2: cli  ; call dword [edx+ecx-0x4C0BFFFC] ; 
0x0016a21a: cli  ; call dword [edx+edx+0x04] ; 
0x0001868e: cli  ; call dword [edx-0x01] ; 
0x000179bf: cli  ; call dword [edx-0x73] ; 
0x0011d003: cli  ; call dword [esi+0x000001E4] ; 
0x00102e67: cli  ; call dword [esi+0x52] ; 
0x000d6ff0: cli  ; call dword [esi+0x55] ; 
0x000e63e3: cli  ; call dword [esi+0x56] ; 
0x00074480: cli  ; call dword [esi+0x6A] ; 
0x00169f8a: cli  ; call dword [esi+ebp*8+0x71F40003] ; 
0x0016a4f2: cli  ; call dword [esi+ebp+0x00740004] ; 
0x00169dea: cli  ; call dword [esi+ebx*8+0x4BA40003] ; 
0x00169caa: cli  ; call dword [esi+ecx*8+0x03] ; 
0x00095a97: cli  ; call dword [esi-0x01] ; 
0x0016a48a: cli  ; call dword [esp+ebp] ; 
0x00169d4a: cli  ; call dword [esp+edx*8+0x34340003] ; 
0x0016a242: cli  ; call dword [esp+edx-0x329BFFFC] ; 
0x00169d19: cli  ; call eax ; 
0x00169d5a: cli  ; call esp ; 
0x001a03ae: cli  ; jmp dword [0x00000000] ; 
0x0016a1d2: cli  ; jmp dword [0xBCD40004+ecx] ; 
0x0016a192: cli  ; jmp dword [eax+0x0A] ; 
0x0016a272: cli  ; jmp dword [eax+0x16] ; 
0x0016a2d2: cli  ; jmp dword [eax+0x1B] ; 
0x0016a3b2: cli  ; jmp dword [eax+0x21] ; 
0x0016a49a: cli  ; jmp dword [eax+0x2C] ; 
0x00169f0a: cli  ; jmp dword [eax+0x640003EA] ; 
0x0016a182: cli  ; jmp dword [eax+0x64000409] ; 
0x0016a0da: cli  ; jmp dword [eax+eax-0x614BFFFC] ; 
0x00169c4a: cli  ; jmp dword [eax+ecx*8] ; 
0x00169cca: cli  ; jmp dword [eax+edx*8] ; 
0x00169fba: cli  ; jmp dword [eax+esi*8+0x75640003] ; 
0x0016a032: cli  ; jmp dword [eax-0x08] ; 
0x0016a00a: cli  ; jmp dword [eax-0x0A] ; 
0x00169e42: cli  ; jmp dword [eax-0x0BFFFC1E] ; 
0x00169fca: cli  ; jmp dword [eax-0x0E] ; 
0x00169d8a: cli  ; jmp dword [eax] ; 
0x000e5884: cli  ; jmp dword [ebp-0x01] ; 
0x0011c083: cli  ; jmp dword [ebp-0x75] ; 
0x00169e62: cli  ; jmp dword [ebx+0x03] ; 
0x0016a1ba: cli  ; jmp dword [ebx+ecx+0x04] ; 
0x0013dd02: cli  ; jmp dword [esi+0x0F] ; 
0x00169e92: cli  ; jmp dword [esi+0x5B040003] ; 
0x000695ec: cli  ; jmp dword [esi-0x70] ; 
0x0016a122: cli  ; jmp dword [esp+eax+0x04] ; 
0x0016a1c2: cli  ; jmp dword [esp+ecx+0x04] ; 
0x00169ca2: cli  ; jmp eax ; 
0x00180012: cli  ; jmp ebp ; 
0x0018c9ad: cli  ; jmp edi ; 
0x000c6993: cli  ; jmp edx ; 
0x00169d82: cli  ; jmp esp ; 
0x00056372: cli  ; retn 0x0000 ; 
0x000a1725: cli  ; retn 0x0010 ; 
0x00143807: cli  ; retn 0xFFFD ; 
0x00198e0a: cmc  ; call dword [0x00000000] ; 
0x000d00d9: cmc  ; call dword [eax+0x0026748D] ; 
0x000c9be6: cmc  ; call dword [eax+0x0026B48D] ; 
0x00121d1d: cmc  ; call dword [eax+0x0824448B] ; 
0x00136f7d: cmc  ; call dword [eax+0x0C24448B] ; 
0x0013948d: cmc  ; call dword [eax+0x1024448B] ; 
0x00167b8a: cmc  ; call dword [eax+0x24000276] ; 
0x0015b0fe: cmc  ; call dword [eax+0x3CFFF5ED] ; 
0x0010e399: cmc  ; call dword [eax+0x55] ; 
0x00110b7a: cmc  ; call dword [eax+0x57] ; 
0x001984aa: cmc  ; call dword [eax+eax+0x00] ; 
0x00198672: cmc  ; call dword [eax+eax+0x41000000] ; 
0x00198f02: cmc  ; call dword [eax+eax] ; 
0x00121d3d: cmc  ; call dword [eax-0x00F3137D] ; 
0x0015b0e6: cmc  ; call dword [eax-0x12] ; 
0x0010d0a7: cmc  ; call dword [eax-0x18] ; 
0x0015b0aa: cmc  ; call dword [eax-0x1B] ; 
0x0015ac9e: cmc  ; call dword [eax-0x1F] ; 
0x00167da2: cmc  ; call dword [eax-0x2BFFFD6C] ; 
0x00111f36: cmc  ; call dword [eax-0x48] ; 
0x0015ac8e: cmc  ; call dword [eax-0x57000A45] ; 
0x0015b0b6: cmc  ; call dword [eax-0x5F000A1B] ; 
0x000ae185: cmc  ; call dword [eax-0x73] ; 
0x00167c9a: cmc  ; call dword [eax] ; 
0x0019a8fa: cmc  ; call dword [ebp+0x00000000] ; 
0x0019929e: cmc  ; call dword [ebp+0x00] ; 
0x00199d2a: cmc  ; call dword [ebx+0x00000000] ; 
0x0019a6f2: cmc  ; call dword [ebx+0x00] ; 
0x000cb95f: cmc  ; call dword [ebx+0x57] ; 
0x000d0ad9: cmc  ; call dword [ebx+0x6A] ; 
0x00167b32: cmc  ; call dword [ebx+esi*2+0x02] ; 
0x00167b22: cmc  ; call dword [ebx+esi*2] ; 
0x00136f94: cmc  ; call dword [ebx-0x18] ; 
0x0019a0ea: cmc  ; call dword [ecx+0x00000002] ; 
0x0019995a: cmc  ; call dword [ecx+0x00000004] ; 
0x0019ae6e: cmc  ; call dword [ecx+0x02] ; 
0x00112778: cmc  ; call dword [ecx+0x6A] ; 
0x00167d7a: cmc  ; call dword [ecx+edx*4-0x185BFFFE] ; 
0x00108f05: cmc  ; call dword [ecx-0x73] ; 
0x0019f12a: cmc  ; call dword [edi+0x00000001] ; 
0x0019f002: cmc  ; call dword [edi+0x00] ; 
0x0019d46e: cmc  ; call dword [edx+0x00000001] ; 
0x0019de46: cmc  ; call dword [edx+0x00000002] ; 
0x0019847e: cmc  ; call dword [edx+0x00] ; 
0x00108d5c: cmc  ; call dword [edx+0x6A] ; 
0x001093a6: cmc  ; call dword [edx-0x73] ; 
0x00111cf6: cmc  ; call dword [edx-0x75] ; 
0x00198df2: cmc  ; call dword [edx] ; 
0x0019aa0e: cmc  ; call dword [esi+0x00000000] ; 
0x00199fd5: cmc  ; call dword [esi+0x00000001] ; 
0x0019a5dd: cmc  ; call dword [esi+0x00] ; 
0x0019c942: cmc  ; call dword [esi] ; 
0x00167cb2: cmc  ; call dword [esp+eax*4] ; 
0x0015b0c2: cmc  ; call eax ; 
0x0019cf82: cmc  ; call ebp ; 
0x0019adba: cmc  ; call ecx ; 
0x00167cda: cmc  ; call esp ; 
0x0019baa6: cmc  ; jmp dword [0x00000000] ; 
0x0019b50a: cmc  ; jmp dword [0x41000000+ecx] ; 
0x00167c3a: cmc  ; jmp dword [eax+0x7F] ; 
0x0019b162: cmc  ; jmp dword [eax+eax+0x00] ; 
0x0019c1a2: cmc  ; jmp dword [eax+eax+0x41000000] ; 
0x0019c162: cmc  ; jmp dword [eax+eax] ; 
0x0015b0ea: cmc  ; jmp dword [eax-0x12] ; 
0x0015b0ae: cmc  ; jmp dword [eax-0x1B] ; 
0x00159bae: cmc  ; jmp dword [eax-0x37000A83] ; 
0x0015b0f6: cmc  ; jmp dword [eax-0x47000A12] ; 
0x0015b0ba: cmc  ; jmp dword [eax-0x4F000A1B] ; 
0x00167d32: cmc  ; jmp dword [eax-0x75] ; 
0x0015ac76: cmc  ; jmp dword [eax] ; 
0x0019872e: cmc  ; jmp dword [ebp+0x00000000] ; 
0x0019cc42: cmc  ; jmp dword [ebp+0x00] ; 
0x00167cd2: cmc  ; jmp dword [ebp+eax*4-0x5FBBFFFE] ; 
0x000cfa6f: cmc  ; jmp dword [ebp-0x7D] ; 
0x0019d9b2: cmc  ; jmp dword [ebx+0x00000000] ; 
0x00198e22: cmc  ; jmp dword [ebx] ; 
0x001984ea: cmc  ; jmp dword [ecx+eax+0x41000000] ; 
0x00167bc2: cmc  ; jmp dword [ecx+edi*2+0x02] ; 
0x00167bba: cmc  ; jmp dword [ecx+edi*2] ; 
0x00120ab2: cmc  ; jmp dword [ecx] ; 
0x001991e6: cmc  ; jmp dword [edi+0x00] ; 
0x001986ce: cmc  ; jmp dword [edi] ; 
0x0019db7e: cmc  ; jmp dword [edx+0x00000002] ; 
0x0019920a: cmc  ; jmp dword [edx+0x00] ; 
0x0019c4ce: cmc  ; jmp dword [esi+0x01] ; 
0x000c5f9c: cmc  ; jmp dword [esi-0x70] ; 
0x0019bd56: cmc  ; jmp dword [esi] ; 
0x00167cc2: cmc  ; jmp dword [esp+eax*4-0x622BFFFE] ; 
0x00167d42: cmc  ; jmp dword [esp+ecx*4] ; 
0x0015ac66: cmc  ; jmp eax ; 
0x0019c446: cmc  ; jmp ecx ; 
0x0019be16: cmc  ; jmp edx ; 
0x00167b72: cmc  ; jmp esp ; 
0x00074f51: cmovb eax, ecx ; ret  ; 
0x000e8aa7: cmovb eax, edx ; ret  ; 
0x00064b24: cmove eax, ecx ; ret  ; 
0x00079e59: cmove eax, edx ; rep ret  ; 
0x000e599a: cmove eax, edx ; ret  ; 
0x000cbe49: cmovnbe eax, edx ; ret  ; 
0x000e032d: cmovnbe esi, dword [esp+0x3C] ; call dword [0x00000010] ; 
0x000b1a3c: cmovne eax, edx ; ret  ; 
0x0001b99e: cmovs eax, edx ; ret  ; 
0x00150e45: cmp ah, bh ; call dword [ebx+0x3A] ; 
0x00150e5d: cmp ah, bh ; call dword [ecx] ; 
0x00150e41: cmp ah, bh ; jmp dword [eax+0x3A] ; 
0x001919d9: cmp ah, dh ; call dword [edi+0x00] ; 
0x00191a99: cmp ah, dh ; jmp dword [eax+eax] ; 
0x001918f5: cmp ah, dh ; jmp dword [ebp+0x00] ; 
0x00191931: cmp ah, dh ; jmp dword [esi] ; 
0x000dee60: cmp al, 0x01 ; retn 0x1389 ; 
0x000a0edd: cmp al, 0x01 ; retn 0xC26B ; 
0x000abde8: cmp al, 0x0A ; call dword [0x00000010] ; 
0x000ffb35: cmp al, 0x11 ; call dword [0x00000010] ; 
0x000dd2cc: cmp al, 0x24 ; call dword [0x00000010] ; 
0x00062d5c: cmp al, 0x24 ; call dword [esi+0x0000009C] ; 
0x00019d61: cmp al, 0x24 ; call esi ; 
0x0011fb16: cmp al, 0x24 ; ret  ; 
0x000378f3: cmp al, 0x24 ; retn 0xFFBF ; 
0x000a8796: cmp al, 0x29 ; ret  ; 
0x000f4aa6: cmp al, 0x29 ; retn 0x4489 ; 
0x000446df: cmp al, 0x29 ; retn 0xD285 ; 
0x00111068: cmp al, 0x55 ; call dword [eax+0x10] ; 
0x0011bea4: cmp al, 0x55 ; call dword [ebx-0x00000CC4] ; 
0x00091c42: cmp al, 0x55 ; call esi ; 
0x00091f12: cmp al, 0x56 ; call ebx ; 
0x000e0331: cmp al, 0x65 ; call dword [0x00000010] ; 
0x0010cb5f: cmp al, 0x89 ; retn 0x0A8B ; 
0x0003bdc1: cmp al, 0x89 ; retn 0x3880 ; 
0x0009b288: cmp al, 0xE8 ; ret  ; 
0x00165149: cmp al, 0xEB ; jmp dword [eax+0x04000066] ; 
0x00191e71: cmp al, 0xF4 ; call dword [ecx+0x00] ; 
0x00191f10: cmp al, 0xF4 ; jmp dword [eax+eax] ; 
0x00191e9d: cmp al, 0xF4 ; jmp dword [ebp+0x00] ; 
0x00191ef5: cmp al, 0xF4 ; jmp dword [esi] ; 
0x001ab1a5: cmp al, 0xF7 ; call dword [eax+eax+0x41000000] ; 
0x001ab151: cmp al, 0xF7 ; call dword [ebp+0x00000000] ; 
0x0018c874: cmp al, 0xF9 ; jmp dword [esi+0x00] ; 
0x000b39bc: cmp al, 0xFC ; call dword [edi-0x01] ; 
0x00168e39: cmp al, bh ; call eax ; 
0x000e1d44: cmp al, byte [eax-0x6AF0DC07] ; retn 0xC984 ; 
0x0003c581: cmp al, byte [ebp-0x76CF8B01] ; ret  ; 
0x00168e59: cmp bh, al ; call eax ; 
0x0016a731: cmp bh, bl ; jmp dword [ecx+eax*2+0x3E740004] ; 
0x000d0264: cmp bh, byte [ecx] ; ret  ; 
0x00169d81: cmp bh, dl ; jmp esp ; 
0x000440b9: cmp bl, 0xFFFFFFFF ; call dword [eax+0x52] ; 
0x000428ec: cmp bl, 0xFFFFFFFF ; call dword [esi+0x6A] ; 
0x0004050a: cmp bl, 0xFFFFFFFF ; jmp dword [esi-0x70] ; 
0x001650f9: cmp bl, ch ; jmp dword [esp+0x38F40000] ; 
0x0018dc9d: cmp bl, dh ; jmp dword [ecx+eax] ; 
0x0002a2d5: cmp byte [0x83000000], cl ; retn 0xC702 ; 
0x000695b5: cmp byte [eax+0x00000003], bh ; call dword [0x00000010] ; 
0x00022e33: cmp byte [eax+0x00000005], 0x00000065 ; call dword [0x00000010] ; 
0x0005f753: cmp byte [eax+0x00000006], bh ; call dword [0x00000010] ; 
0x0003b818: cmp byte [eax+0x0FFFFAC2], 0x00000045 ; ret  ; 
0x0003bdcc: cmp byte [eax+0x0FFFFAC2], 0x00000045 ; retn 0x4489 ; 
0x000cb94a: cmp byte [ebp-0x050CA37F], cl ; call dword [edx+0x6A] ; 
0x000e5681: cmp byte [ebp-0x054A4A7D], cl ; call dword [eax-0x18] ; 
0x00065529: cmp byte [ebp-0x0CFD8740], al ; ret  ; 
0x00076719: cmp byte [ebx+0x0114245C], cl ; ret  ; 
0x000f4ba5: cmp byte [ebx+0x29242454], cl ; retn 0xD089 ; 
0x000446db: cmp byte [ebx+0x293C2454], cl ; retn 0xD285 ; 
0x000e8be6: cmp byte [ebx+0x65402474], cl ; call dword [0x00000010] ; 
0x00059453: cmp byte [ebx-0x0004CB7B], cl ; jmp dword [edi+edi*2] ; 
0x000d18ff: cmp byte [ebx-0x6AF0FD05], al ; ret  ; 
0x0001dbcc: cmp byte [ebx-0x768BDB84], cl ; ret  ; 
0x000d7af1: cmp byte [ebx-0x76EFDBB4], cl ; retn 0x458D ; 
0x0006907f: cmp byte [ecx+0x65EA89F9], cl ; call dword [0x00000010] ; 
0x0003c7f0: cmp byte [ecx-0x76EFDBBC], cl ; ret  ; 
0x000db5c4: cmp byte [ecx-0x7BF0D78D], cl ; retn 0x0000 ; 
0x00116976: cmp byte [ecx], al ; ret  ; 
0x00127e42: cmp byte [edi+0x1C030003], 0xFFFFFF8B ; jmp ebx ; 
0x0015617c: cmp byte [edi-0x16], al ; call dword [esi] ; 
0x00001fc8: cmp byte [edi-0x19ADE7F3], dl ; ret  ; 
0x0013c6d8: cmp byte [edi], dl ; retn 0x2C73 ; 
0x0013d099: cmp byte [edi], dl ; retn 0x3273 ; 
0x0013c6c3: cmp byte [edi], dl ; retn 0x3E73 ; 
0x0013d07f: cmp byte [edi], dl ; retn 0x4C73 ; 
0x0013c6ae: cmp byte [edi], dl ; retn 0x5073 ; 
0x0013c699: cmp byte [edi], dl ; retn 0x6273 ; 
0x0013d065: cmp byte [edi], dl ; retn 0x6673 ; 
0x0013c034: cmp byte [edi], dl ; retn 0x830F ; 
0x00193600: cmp byte [edx+eax-0x0B8CF400], al ; jmp dword [edi+0x03] ; 
0x0006654b: cmp byte [edx-0x59], 0xFFFFFFFA ; call dword [eax-0x18] ; 
0x001648f4: cmp byte [esi-0x40EF0004], 0xFFFFFFFC ; jmp dword [eax-0x0F000341] ; 
0x00184000: cmp byte [esi-0x4123FFFF], cl ; call dword [ebx] ; 
0x0005b066: cmp byte [esi-0x66], 0xFFFFFFFA ; call dword [eax-0x18] ; 
0x0010117e: cmp ch, 0xFFFFFFFA ; call dword [eax-0x73] ; 
0x00018d2c: cmp ch, 0xFFFFFFFF ; call dword [ebp+0x57] ; 
0x0018f7d8: cmp ch, al ; jmp dword [eax] ; 
0x0015785d: cmp ch, bh ; call eax ; 
0x00165129: cmp ch, bl ; jmp dword [ebp+0x3A240000] ; 
0x0019a419: cmp ch, dh ; jmp eax ; 
0x000244a6: cmp cl, byte [ebp-0x052F137D] ; call dword [eax+0x57] ; 
0x000da42a: cmp cl, byte [ebx-0x0000D779] ; jmp dword [ebp-0x75] ; 
0x000da703: cmp cl, byte [ebx-0x0000D780] ; jmp dword [ebp-0x75] ; 
0x000eecd7: cmp dh, 0xFFFFFFFF ; call dword [eax+0x0026748D] ; 
0x0003e294: cmp dh, 0xFFFFFFFF ; call dword [eax+0x0026B48D] ; 
0x00031ddb: cmp dh, 0xFFFFFFFF ; call dword [eax+0x4024748B] ; 
0x000fcf88: cmp dh, 0xFFFFFFFF ; call dword [eax+0x51] ; 
0x000fc763: cmp dh, 0xFFFFFFFF ; call dword [esi-0x18] ; 
0x001ab039: cmp dh, bh ; call dword [0x00000000] ; 
0x001063d1: cmp dh, byte [eax+ebx-0x7D] ; retn 0x0F01 ; 
0x00026ad1: cmp dh, byte [eax+edx-0x7D] ; retn 0x8301 ; 
0x00166e49: cmp dh, cl ; call dword [eax] ; 
0x00045655: cmp dh, dh ; ret  ; 
0x0013f497: cmp dh, dh ; retn 0x7504 ; 
0x000c286b: cmp dl, 0xFFFFFFFF ; call dword [eax-0x3076A8AB] ; 
0x00002bd6: cmp dl, byte [edi] ; ret  ; 
0x00041180: cmp dword [di-0x00000464], 0xFFFFFFFF ; call dword [eax] ; 
0x0005d256: cmp dword [eax+0x01FFFA49], 0xFFFFFFDD ; jmp ebp ; 
0x00102bca: cmp dword [ecx+0x12], 0x950F0308 ; ret  ; 
0x000b3bbe: cmp dword [ecx], edi ; retn 0xC189 ; 
0x000ec0c6: cmp dword [edx-0x41], 0xFFFFFFFA ; call dword [eax-0x18] ; 
0x000e6a30: cmp dword [edx-0x44], 0xFFFFFFFA ; call dword [eax-0x01] ; 
0x000f078c: cmp dword [esi-0x40], 0xFFFFFFFA ; call dword [eax+0x56] ; 
0x000fc60d: cmp dword [esi-0x40], 0xFFFFFFFA ; call dword [eax+0x6A] ; 
0x000cb6f9: cmp dword [esi-0x40], 0xFFFFFFFA ; call dword [ecx-0x01] ; 
0x000cb7f9: cmp dword [esi-0x40], 0xFFFFFFFA ; call dword [edx-0x01] ; 
0x000c9bbe: cmp dword [esi-0x4F], 0xFFFFFFFA ; call dword [eax-0x18] ; 
0x0002ef04: cmp eax, 0x0476FF00 ; call eax ; 
0x0016659d: cmp eax, 0x28740001 ; call dword [eax] ; 
0x00081d40: cmp eax, 0x5BFFFFFF ; ret  ; 
0x000dfac7: cmp eax, 0x65000000 ; call dword [0x00000010] ; 
0x001075c4: cmp eax, 0x81000185 ; ret  ; 
0x000ffac4: cmp eax, 0x81000200 ; ret  ; 
0x00131ec4: cmp eax, 0x81FFFEDC ; ret  ; 
0x001313c4: cmp eax, 0x81FFFEE7 ; ret  ; 
0x0012aac4: cmp eax, 0x81FFFF50 ; ret  ; 
0x00128ac4: cmp eax, 0x81FFFF70 ; ret  ; 
0x001205c4: cmp eax, 0x81FFFFF5 ; ret  ; 
0x000bde9d: cmp eax, 0x83000003 ; retn 0xB880 ; 
0x00103b34: cmp eax, 0x83FFFFFF ; ret  ; 
0x0002ac0f: cmp eax, 0x89000003 ; retn 0x91EB ; 
0x00167675: cmp eax, 0xEB340002 ; jmp dword [esi+edi] ; 
0x000f2243: cmp eax, dword [ebp-0x76CE8B01] ; retn 0xF889 ; 
0x00158b10: cmp eax, dword [edi-0x0F] ; call dword [ebx+0x48] ; 
0x00198b41: cmp eax, dword [edx+ecx] ; ret  ; 
0x00164ebd: cmp ebp, 0xFD826AFF ; call dword [eax+0x79] ; 
0x00165119: cmp ebx, ebp ; call dword [eax+0x65] ; 
0x00165109: cmp ebx, ebp ; call dword [eax] ; 
0x00165111: cmp ebx, ebp ; jmp dword [0x39A40000] ; 
0x00166e40: cmp ecx, esi ; call eax ; 
0x00116954: cmp edi, 0xFFFFFFFF ; call dword [eax+0x0026B48D] ; 
0x000de575: cmp edi, dword [eax+0x00000036] ; call dword [0x00000010] ; 
0x00168e69: cmp edi, eax ; jmp dword [edi+esi+0x03] ; 
0x00169d89: cmp edi, edx ; jmp dword [eax] ; 
0x001ab01d: cmp edi, esi ; call dword [edx+0x00000000] ; 
0x001aafa5: cmp edi, esi ; jmp dword [edx] ; 
0x0012dc08: cmp edi, esi ; retn 0x0003 ; 
0x0005cb7b: cmp edx, 0xFFFFFFFF ; call dword [eax-0x0041A9A9] ; 
0x001a03ad: cmp edx, edi ; jmp dword [0x00000000] ; 
0x00075ce7: cmp esi, 0xFFFFFFFF ; call dword [eax+0x0026748D] ; 
0x00165e40: cmp esi, ebp ; jmp eax ; 
0x00101198: cmp esi, edx ; call dword [eax+0x0026748D] ; 
0x0018ad29: cmp esi, edx ; call ebx ; 
0x00191dfd: cmp esi, esp ; call dword [ecx+0x00] ; 
0x000468bb: cmp esp, 0x440FFF85 ; retn 0x4589 ; 
0x000ee32f: cmp esp, 0xFFFFFFFF ; call dword [eax+0x0026748D] ; 
0x00191c51: cmp esp, esi ; call dword [0x00000000] ; 
0x00191c65: cmp esp, esi ; jmp dword [eax+eax] ; 
0x00191d01: cmp esp, esi ; jmp dword [ebp+0x00] ; 
0x00191ce5: cmp esp, esi ; jmp dword [esi] ; 
0x00167181: cmpsb  ; call dword [esi+ebp*8+0x01] ; 
0x001649ac: cmpsb  ; ret  ; 
0x00003a4a: cmpsd  ; retn 0x49EC ; 
0x00167491: cwde  ; call dword [esi+0x02] ; 
0x001674a1: cwde  ; call eax ; 
0x001591bc: cwde  ; jmp dword [esi-0x410068FF] ; 
0x00003c89: cwde  ; ret  ; 
0x001570f5: daa  ; call dword [eax-0x5F000CD9] ; 
0x00157105: daa  ; call eax ; 
0x001570d1: daa  ; jmp dword [eax+0x27] ; 
0x001570d9: daa  ; jmp dword [eax-0x3F000CD9] ; 
0x001570f9: daa  ; jmp dword [eax-0x4F000CD9] ; 
0x001570e1: daa  ; jmp eax ; 
0x000d3c5d: das  ; ret  ; 
0x0002906d: das  ; retn 0x0004 ; 
0x0013650b: dec byte [ebp-0x7AF00487] ; retn 0x0006 ; 
0x0013acbb: dec byte [ebp-0x7AF00587] ; ret  ; 
0x001383bb: dec byte [ebp-0x7AF00687] ; ret  ; 
0x00134c7b: dec byte [ebp-0x7AF00687] ; retn 0x0007 ; 
0x00135a0b: dec byte [ebp-0x7AF00C87] ; retn 0x0011 ; 
0x001374bb: dec byte [ebp-0x7AF00D87] ; ret  ; 
0x0013447b: dec byte [ebp-0x7AF00D87] ; retn 0x000F ; 
0x00125508: dec byte [ebx+0x5B082444] ; ret  ; 
0x000cfe71: dec byte [ebx-0x0000CF4B] ; jmp dword [esi-0x77] ; 
0x000515c4: dec byte [ebx-0x00056F43] ; call dword [eax+0x0026748D] ; 
0x000b325f: dec dword [eax-0x0001B76B] ; call dword [esi-0x01] ; 
0x0015834f: dec dword [ebp+0x04] ; call dword [edi+0x04] ; 
0x0001e4db: dec dword [ebp+0x2D002674] ; retn 0x0000 ; 
0x000a7003: dec dword [ebp+0x39002674] ; ret  ; 
0x0008fdf2: dec dword [ebp+0x5F103844] ; ret  ; 
0x0016728a: dec dword [ebp+edi*8-0x3E5BFFFF] ; jmp dword [eax-0x5BFFFE03] ; 
0x000d8791: dec dword [ebp-0x00008F7B] ; call dword [eax-0x75] ; 
0x000d99f4: dec dword [ebp-0x0000977B] ; call dword [eax-0x75] ; 
0x000fcf85: dec dword [ebp-0x00017F7B] ; call dword [eax+0x51] ; 
0x00043527: dec dword [ebp-0x0003FF7B] ; call dword [esi+0x68] ; 
0x00040c1d: dec dword [ebp-0x00042B7B] ; call dword [eax+0x56] ; 
0x00040bb4: dec dword [ebp-0x00042F7B] ; call dword [eax+0x56] ; 
0x0004adb5: dec dword [ebp-0x00044F7B] ; call dword [eax+0x57] ; 
0x0004acaf: dec dword [ebp-0x0004537B] ; call dword [eax+0x57] ; 
0x00032cd7: dec dword [ebp-0x000BBF62] ; call dword [ebx+0x6A] ; 
0x0004e254: dec dword [ebp-0x000FE77B] ; call dword [edi-0x77] ; 
0x0004e373: dec dword [ebp-0x000FE77B] ; call dword [esi-0x77] ; 
0x0004e380: dec dword [ebp-0x000FEB7B] ; call dword [eax+0x52] ; 
0x0004e261: dec dword [ebp-0x000FEF7B] ; call dword [eax+0x52] ; 
0x0001cce6: dec dword [ebp-0x04F5DF7E] ; call dword [eax-0x73] ; 
0x0011bcfa: dec dword [ebp-0x04FACF7B] ; call dword [eax-0x73] ; 
0x0011b343: dec dword [ebp-0x04FB037A] ; call dword [eax-0x73] ; 
0x00107558: dec dword [ebp-0x04FFC77D] ; call dword [eax-0x73] ; 
0x000fe6a1: dec dword [ebp-0x0503537D] ; call dword [eax-0x73] ; 
0x000f742a: dec dword [ebp-0x05048F7D] ; call dword [eax-0x73] ; 
0x000ea2b2: dec dword [ebp-0x0506E779] ; call dword [eax-0x73] ; 
0x000e6007: dec dword [ebp-0x05079B7D] ; call dword [eax-0x73] ; 
0x000ddf3b: dec dword [ebp-0x05089F7D] ; call dword [eax-0x73] ; 
0x000d8161: dec dword [ebp-0x0508D77D] ; call dword [eax-0x73] ; 
0x000d69ce: dec dword [ebp-0x05091B7B] ; call dword [eax-0x73] ; 
0x000cfef4: dec dword [ebp-0x050ABB7A] ; call dword [eax-0x73] ; 
0x000cfce5: dec dword [ebp-0x050ABB7E] ; call dword [eax-0x73] ; 
0x000c77f4: dec dword [ebp-0x050E977A] ; call dword [eax-0x73] ; 
0x000c9514: dec dword [ebp-0x050EA77D] ; call dword [eax-0x73] ; 
0x000c9b8a: dec dword [ebp-0x050ED77D] ; call dword [eax-0x73] ; 
0x000c9ba9: dec dword [ebp-0x050EE77D] ; call dword [eax-0x73] ; 
0x000bc169: dec dword [ebp-0x050F577D] ; call dword [eax+0x68] ; 
0x000b81e5: dec dword [ebp-0x050FA379] ; call dword [eax-0x73] ; 
0x001239b5: dec dword [ebp-0x050FB379] ; call dword [eax-0x73] ; 
0x000b5e19: dec dword [ebp-0x050FC77D] ; call dword [eax+0x68] ; 
0x000b509d: dec dword [ebp-0x050FCF79] ; call dword [eax-0x73] ; 
0x000b35c9: dec dword [ebp-0x050FDB7D] ; call dword [eax+0x68] ; 
0x000a3161: dec dword [ebp-0x0510E77D] ; call dword [eax-0x73] ; 
0x000a3b01: dec dword [ebp-0x0510FB7D] ; call dword [eax-0x73] ; 
0x0009f688: dec dword [ebp-0x0511BF7D] ; call dword [eax-0x73] ; 
0x000994f2: dec dword [ebp-0x0513337F] ; call dword [eax-0x73] ; 
0x0009690b: dec dword [ebp-0x05134B7F] ; call dword [eax-0x73] ; 
0x00092282: dec dword [ebp-0x05135B79] ; call dword [eax-0x73] ; 
0x000917ca: dec dword [ebp-0x0513B77D] ; call dword [eax-0x73] ; 
0x0007e25f: dec dword [ebp-0x05148B79] ; call dword [eax-0x73] ; 
0x0007b5f0: dec dword [ebp-0x05153F70] ; call dword [edx-0x73] ; 
0x0006666a: dec dword [ebp-0x0522CF7D] ; call dword [eax-0x73] ; 
0x00064fda: dec dword [ebp-0x0523A37D] ; call dword [eax-0x73] ; 
0x0005d899: dec dword [ebp-0x0523D37D] ; call dword [eax-0x73] ; 
0x0005b051: dec dword [ebp-0x0528EF7E] ; call dword [eax-0x73] ; 
0x00059348: dec dword [ebp-0x0528EF7F] ; call dword [eax-0x73] ; 
0x00052819: dec dword [ebp-0x0529077F] ; call dword [eax-0x73] ; 
0x0004e823: dec dword [ebp-0x0529177D] ; call dword [eax+0x68] ; 
0x0004895c: dec dword [ebp-0x0529277B] ; call dword [eax-0x73] ; 
0x000443ca: dec dword [ebp-0x05298F7D] ; call dword [eax+0x68] ; 
0x00044185: dec dword [ebp-0x05298F7D] ; call dword [eax-0x73] ; 
0x00040bdc: dec dword [ebp-0x0529A379] ; call dword [eax+0x68] ; 
0x0003fee0: dec dword [ebp-0x0529A379] ; call dword [eax-0x73] ; 
0x0003b390: dec dword [ebp-0x052A737F] ; call dword [eax+0x68] ; 
0x00023d71: dec dword [ebp-0x052ED37F] ; call dword [eax-0x73] ; 
0x00022dd1: dec dword [ebp-0x052F037D] ; call dword [eax-0x73] ; 
0x00022af1: dec dword [ebp-0x052F237D] ; call dword [eax-0x73] ; 
0x00021a87: dec dword [ebp-0x052F377D] ; call dword [eax-0x73] ; 
0x0001b440: dec dword [ebp-0x05319F7D] ; call dword [eax-0x73] ; 
0x0001850b: dec dword [ebp-0x0532AF7D] ; call dword [eax-0x73] ; 
0x000ef9b0: dec dword [ebp-0x0540127D] ; call dword [ebp-0x01] ; 
0x000e94b3: dec dword [ebp-0x0540F37D] ; call dword [eax+0x52] ; 
0x000e8f6b: dec dword [ebp-0x05410C80] ; call dword [eax-0x18] ; 
0x000e6da0: dec dword [ebp-0x0541927D] ; call dword [edx+0x52] ; 
0x000e6d10: dec dword [ebp-0x0541E67D] ; call dword [ecx+0x51] ; 
0x000e6c80: dec dword [ebp-0x0542507D] ; call dword [esi+0x56] ; 
0x000e6bf0: dec dword [ebp-0x05429F7D] ; call dword [edi+0x57] ; 
0x000e6915: dec dword [ebp-0x0543EF7D] ; call dword [edx+0x52] ; 
0x000e68b8: dec dword [ebp-0x0544137D] ; call dword [ecx+0x51] ; 
0x000e6846: dec dword [ebp-0x05444C7D] ; call dword [esi+0x56] ; 
0x000e67e9: dec dword [ebp-0x0544737D] ; call dword [edi+0x57] ; 
0x000e64ca: dec dword [ebp-0x0545F67D] ; call dword [edx+0x52] ; 
0x000e6450: dec dword [ebp-0x05462A7D] ; call dword [ecx+0x51] ; 
0x000e63de: dec dword [ebp-0x05465F7D] ; call dword [esi+0x56] ; 
0x000e6363: dec dword [ebp-0x0546917D] ; call dword [edi+0x57] ; 
0x000e6022: dec dword [ebp-0x0548467D] ; call dword [edx+0x52] ; 
0x0005c8a9: dec dword [ebp-0x054B1280] ; call dword [eax+0x56] ; 
0x000e0450: dec dword [ebp-0x054B246D] ; call dword [eax+0x50] ; 
0x000c7353: dec dword [ebp-0x054F0772] ; call dword [eax-0x15] ; 
0x000c72f5: dec dword [ebp-0x054F1372] ; call dword [eax-0x75] ; 
0x0007e337: dec dword [ebp-0x0553BF7D] ; call dword [ebp+0x56] ; 
0x0006e602: dec dword [ebp-0x0557BB6A] ; call dword [eax-0x73] ; 
0x0006f8b0: dec dword [ebp-0x05580D69] ; call dword [eax-0x73] ; 
0x0006e74b: dec dword [ebp-0x05580D6A] ; call dword [eax-0x73] ; 
0x0005ca75: dec dword [ebp-0x05647380] ; call dword [eax+0x56] ; 
0x0005c953: dec dword [ebp-0x0564A67D] ; call dword [eax+0x6A] ; 
0x00025fae: dec dword [ebp-0x05688D72] ; call dword [eax-0x75] ; 
0x000cc7b2: dec dword [ebp-0x058F9F4A] ; call dword [eax+0x6A] ; 
0x0004bf33: dec dword [ebp-0x09FFD98C] ; retn 0x0F10 ; 
0x000e9e91: dec dword [ebp-0x0C839F80] ; call dword [eax+0x6A] ; 
0x00143dc3: dec dword [ebp-0x0CFFD98C] ; ret  ; 
0x000cfd8f: dec dword [ebp-0x0E527F80] ; call dword [eax+0x6A] ; 
0x000cf4b9: dec dword [ebp-0x0E61AF6E] ; call dword [edx+0x6A] ; 
0x0011bc63: dec dword [ebp-0x17FFD98C] ; ret  ; 
0x0002349b: dec dword [ebp-0x18EDFF7D] ; call dword [eax-0x73] ; 
0x000b2c14: dec dword [ebp-0x3FCEFF8A] ; ret  ; 
0x0015838b: dec dword [ebx+0x02] ; call ebp ; 
0x000ba059: dec dword [ebx+0x39048754] ; ret  ; 
0x001254e7: dec dword [ebx+0x5B082444] ; ret  ; 
0x0001803a: dec dword [ebx-0x00002B70] ; call dword [esi+0x53] ; 
0x0003b1cc: dec dword [ebx-0x0000877B] ; jmp dword [ebp-0x75] ; 
0x000ce05e: dec dword [ebx-0x00008B63] ; jmp dword [0x00002000] ; 
0x000d49b7: dec dword [ebx-0x0000BB7B] ; jmp dword [ebp-0x75] ; 
0x000b43ec: dec dword [ebx-0x0000BF7B] ; jmp dword [0x0000F000] ; 
0x00024427: dec dword [ebx-0x0000C77B] ; call dword [edi-0x18] ; 
0x000b752c: dec dword [ebx-0x0000C77B] ; jmp dword [0x0000F000] ; 
0x00024374: dec dword [ebx-0x0000CB63] ; call dword [edi-0x18] ; 
0x000d8631: dec dword [ebx-0x0000D742] ; jmp dword [ebp-0x5F] ; 
0x0010c7ab: dec dword [ebx-0x0000D74D] ; jmp dword [ebp-0x5F] ; 
0x0003abd8: dec dword [ebx-0x0000D762] ; jmp dword [ebp-0x75] ; 
0x000fb09f: dec dword [ebx-0x0000D765] ; jmp dword [ebp+0x03] ; 
0x0003b28e: dec dword [ebx-0x0000D76F] ; jmp dword [ebp-0x75] ; 
0x000fdf26: dec dword [ebx-0x0000D775] ; jmp dword [ebp+0x03] ; 
0x000db296: dec dword [ebx-0x0000D775] ; jmp dword [ebp-0x5F] ; 
0x0005bac4: dec dword [ebx-0x0000D779] ; jmp dword [ebp-0x75] ; 
0x0002c09f: dec dword [ebx-0x0000D77A] ; jmp dword [ebp-0x75] ; 
0x000b2781: dec dword [ebx-0x0000D77B] ; jmp dword [ebp-0x75] ; 
0x000fe244: dec dword [ebx-0x0000D77D] ; jmp dword [ebp+0x03] ; 
0x00021f53: dec dword [ebx-0x0000D77D] ; jmp dword [ebp-0x75] ; 
0x000aeb85: dec dword [ebx-0x0000D77E] ; jmp dword [ebp-0x75] ; 
0x0003b350: dec dword [ebx-0x0000D780] ; jmp dword [ebp-0x75] ; 
0x000ff4a3: dec dword [ebx-0x0000DF7D] ; jmp dword [ebp-0x75] ; 
0x000b6d4a: dec dword [ebx-0x00010B63] ; call dword [eax-0x77] ; 
0x000b4195: dec dword [ebx-0x00011F7B] ; call dword [edx+0x6A] ; 
0x00040d79: dec dword [ebx-0x00012F79] ; jmp dword [ebp-0x75] ; 
0x000b72d5: dec dword [ebx-0x00012F7B] ; call dword [edx+0x6A] ; 
0x000fc022: dec dword [ebx-0x00016F7B] ; jmp dword [esi-0x77] ; 
0x000fc52d: dec dword [ebx-0x00018F4B] ; jmp dword [esi-0x7D] ; 
0x000239a2: dec dword [ebx-0x0001DB73] ; jmp dword [ebx] ; 
0x000e946a: dec dword [ebx-0x0003C763] ; jmp dword [ebp-0x01] ; 
0x000e91fa: dec dword [ebx-0x0003CB73] ; jmp dword [ebp-0x01] ; 
0x0005483e: dec dword [ebx-0x00041F73] ; call dword [edi+0x39] ; 
0x0004039e: dec dword [ebx-0x0004477B] ; jmp dword [ebp-0x75] ; 
0x000421e8: dec dword [ebx-0x00044B4B] ; jmp dword [ebp-0x75] ; 
0x0004a24e: dec dword [ebx-0x0004677B] ; jmp dword [ebp-0x75] ; 
0x00049ce8: dec dword [ebx-0x00047773] ; call dword [ebx-0x7D] ; 
0x0004ae48: dec dword [ebx-0x00047B7B] ; call dword [eax-0x113E0D77] ; 
0x00057c79: dec dword [ebx-0x0004AB7B] ; jmp dword [ebp-0x75] ; 
0x00059053: dec dword [ebx-0x0004B343] ; jmp dword [0x00002000] ; 
0x000569b0: dec dword [ebx-0x0004C34B] ; jmp dword [0x00002100] ; 
0x00058e0b: dec dword [ebx-0x0004C363] ; call ecx ; 
0x00057ca2: dec dword [ebx-0x0004CB7B] ; jmp dword [0x00000080] ; 
0x00056e63: dec dword [ebx-0x0004CB7B] ; jmp dword [0x00002008] ; 
0x00056a71: dec dword [ebx-0x0004CF4B] ; call dword [edi-0x01] ; 
0x0005033e: dec dword [ebx-0x0005937B] ; jmp dword [0x00000080] ; 
0x00053468: dec dword [ebx-0x0005937B] ; jmp dword [0x00002000] ; 
0x0005096e: dec dword [ebx-0x0005937B] ; jmp dword [0x00002100] ; 
0x000504bb: dec dword [ebx-0x0005AF4B] ; jmp dword [0x00002100] ; 
0x0004caa4: dec dword [ebx-0x000FFB4B] ; jmp dword [ebp-0x75] ; 
0x000aa239: dec dword [ebx-0x6BF0F7BB] ; ret  ; 
0x0002de50: dec dword [ebx-0x76ACF1C4] ; ret  ; 
0x000c7ee9: dec dword [ebx-0x76CBDBA4] ; retn 0x448B ; 
0x000bb95a: dec dword [ebx-0x76CFDBB4] ; retn 0xFAC1 ; 
0x000a6b0d: dec dword [ebx-0x76DFDB84] ; ret  ; 
0x0007162d: dec dword [ebx-0x76E7DBB4] ; retn 0x8365 ; 
0x000259ed: dec dword [ebx-0x76F3DBB4] ; ret  ; 
0x000e5967: dec dword [ebx-0x76F3DBB4] ; retn 0x50E9 ; 
0x00020048: dec dword [ebx-0x7CCFDBA4] ; retn 0x8301 ; 
0x000369cc: dec dword [ebx-0x7CD7DB84] ; call dword [0x848B647F] ; 
0x0003993a: dec dword [ebx-0x7CD7DB84] ; jmp dword [eax] ; 
0x0002a0bb: dec dword [ebx-0x7CEFDBAC] ; retn 0x8902 ; 
0x000a3885: dec dword [ebx-0x7CF7DBAC] ; retn 0x3909 ; 
0x0015822f: dec dword [ecx+0x05] ; call dword [ebx+0x05] ; 
0x000529d9: dec dword [ecx+0x29008BCA] ; retn 0x9539 ; 
0x00058089: dec dword [ecx+0x29008BF2] ; retn 0xD189 ; 
0x0005a6d5: dec dword [ecx+0x29008BF2] ; retn 0xD389 ; 
0x0005278b: dec dword [ecx+0x29008BFA] ; retn 0xD189 ; 
0x00045f12: dec dword [ecx+0x39F001CB] ; retn 0x8D0F ; 
0x000e6ee0: dec dword [ecx+0x5F5E5B10] ; ret  ; 
0x00121764: dec dword [ecx+0x5F5E5BD8] ; ret  ; 
0x00044915: dec dword [ecx+0x5F5E5BF8] ; ret  ; 
0x000e8fb1: dec dword [ecx+0x65F089C3] ; call dword [0x00000010] ; 
0x000a191a: dec dword [ecx+0x69182444] ; retn 0x5180 ; 
0x001665c3: dec dword [ecx+eax*2+0x2CC40001] ; jmp dword [eax-0x2BFFFEBC] ; 
0x000fd15a: dec dword [ecx-0x0000837B] ; jmp dword [ebp-0x5F] ; 
0x0004633c: dec dword [ecx-0x0000977B] ; call dword [eax+0x0026748D] ; 
0x000a9ddd: dec dword [ecx-0x0000A36B] ; call dword [eax-0x18] ; 
0x000f2400: dec dword [ecx-0x0000C36B] ; call dword [eax-0x18] ; 
0x001196e8: dec dword [ecx-0x0000CB6B] ; call dword [eax-0x18] ; 
0x000cfb05: dec dword [ecx-0x0000CB7B] ; call dword [edx-0x73] ; 
0x00024487: dec dword [ecx-0x0000CF6B] ; call dword [edi+0x56] ; 
0x000b4df4: dec dword [ecx-0x00011773] ; call dword [ecx-0x18] ; 
0x000b530b: dec dword [ecx-0x00011B6B] ; call dword [edx-0x18] ; 
0x000b7f41: dec dword [ecx-0x00012773] ; call dword [ecx-0x18] ; 
0x000b844b: dec dword [ecx-0x00012B6B] ; call dword [edx-0x18] ; 
0x0010fb6d: dec dword [ecx-0x00012B7B] ; jmp dword [ebp-0x5F] ; 
0x000fc736: dec dword [ecx-0x0001337B] ; jmp dword [ebp-0x5F] ; 
0x000c3c78: dec dword [ecx-0x00013F43] ; jmp dword [ebp-0x75] ; 
0x000c3d28: dec dword [ecx-0x00013F7B] ; jmp dword [ebp-0x5F] ; 
0x000fbf88: dec dword [ecx-0x00017B73] ; call dword [eax+0x6A] ; 
0x000b2dae: dec dword [ecx-0x00019B7B] ; call dword [edx-0x18] ; 
0x0002340a: dec dword [ecx-0x0001BB73] ; call dword [eax-0x01] ; 
0x000e93aa: dec dword [ecx-0x0003837B] ; call ecx ; 
0x00043158: dec dword [ecx-0x0004337B] ; call dword [eax-0x73] ; 
0x0004302a: dec dword [ecx-0x0004377B] ; call dword [eax-0x73] ; 
0x0004ab53: dec dword [ecx-0x00045B6B] ; call dword [edx+0x6A] ; 
0x0004b930: dec dword [ecx-0x00045B73] ; call dword [ecx+0x6A] ; 
0x0004c5ee: dec dword [ecx-0x00045B73] ; call dword [esi-0x18] ; 
0x0004c0c5: dec dword [ecx-0x00045F73] ; call dword [edx+0x6A] ; 
0x00041f2d: dec dword [ecx-0x0004636B] ; call dword [ecx-0x77] ; 
0x0004b628: dec dword [ecx-0x0004636B] ; call dword [edx-0x18] ; 
0x00049b17: dec dword [ecx-0x0004737B] ; jmp dword [esi-0x70] ; 
0x000444de: dec dword [ecx-0x00048373] ; call dword [eax+0x50] ; 
0x00044579: dec dword [ecx-0x00048373] ; call dword [ecx+0x51] ; 
0x000445a5: dec dword [ecx-0x00048373] ; call dword [edx+0x52] ; 
0x00055600: dec dword [ecx-0x00048B73] ; jmp dword [0x00008000] ; 
0x0004f11e: dec dword [ecx-0x0005436B] ; jmp dword [0x00008000] ; 
0x000529f0: dec dword [ecx-0x00055F73] ; call dword [edx+0x50] ; 
0x00052a78: dec dword [ecx-0x00056B6B] ; call dword [esi+0x50] ; 
0x0004fd44: dec dword [ecx-0x00058B7B] ; call dword [eax+0x0026748D] ; 
0x000538c2: dec dword [ecx-0x277AF039] ; retn 0xFFFF ; 
0x0007aae3: dec dword [ecx-0x7621760F] ; ret  ; 
0x000c3ed8: dec dword [ecx-0x76297610] ; retn 0xEC83 ; 
0x00114750: dec dword [ecx-0x763E760E] ; ret  ; 
0x00025810: dec dword [ecx-0x76FBDBBC] ; retn 0x4EE9 ; 
0x00029e0d: dec dword [ecx-0x7CF3DBBC] ; ret  ; 
0x000fc3e0: dec dword [ecx-0x7CF57406] ; retn 0x8D04 ; 
0x000fc42e: dec dword [ecx-0x7CF57439] ; retn 0x8D04 ; 
0x000a4990: dec dword [ecx-0x7CF8140D] ; ret  ; 
0x000b18f4: dec dword [ecx] ; retn 0x850F ; 
0x0016461b: dec dword [edi-0x04] ; call dword [esi-0x5A] ; 
0x00158197: dec dword [edx+0x07] ; call dword [esi+0x07] ; 
0x00164d5b: dec dword [edx+esi*8-0x04] ; call dword [esi-0x0F] ; 
0x0002d1c4: dec eax ; call ebx ; 
0x0018dfe1: dec eax ; call ecx ; 
0x0001cdd9: dec eax ; call edi ; 
0x000234de: dec eax ; jmp dword [ecx] ; 
0x00103ba4: dec eax ; ret  ; 
0x001670f3: dec eax ; retn 0x0001 ; 
0x0013cee3: dec eax ; retn 0x0FF3 ; 
0x0001b99f: dec eax ; retn 0x8DC3 ; 
0x0002f091: dec eax ; retn 0xC483 ; 
0x000e3235: dec eax ; retn 0xF289 ; 
0x000e32d2: dec eax ; retn 0xF589 ; 
0x0006c82f: dec eax ; retn 0xFF50 ; 
0x0016496f: dec eax ; retn 0xFFFC ; 
0x0015481a: dec ebp ; call dword [esi+0x30] ; 
0x000400c1: dec ebp ; ret  ; 
0x001541a1: dec ebp ; retn 0xDCD9 ; 
0x0018b501: dec ebx ; call dword [eax+eax+0x41000000] ; 
0x0018b4dd: dec ebx ; call dword [ecx+0x00] ; 
0x00167149: dec ebx ; call eax ; 
0x0018b4c9: dec ebx ; jmp dword [eax] ; 
0x0018b5d0: dec ebx ; jmp dword [ebp+0x00000000] ; 
0x0018b55d: dec ebx ; jmp dword [ebp+0x00] ; 
0x0016f382: dec ebx ; ret  ; 
0x001547d3: dec ebx ; retn 0x5803 ; 
0x00151eb4: dec ebx ; retn 0xDE9E ; 
0x00167409: dec ecx ; jmp dword [ebx+ebx] ; 
0x0018b461: dec ecx ; jmp eax ; 
0x00046282: dec ecx ; ret  ; 
0x000e332d: dec ecx ; retn 0x03E9 ; 
0x00002160: dec ecx ; retn 0x1DD4 ; 
0x00064e23: dec ecx ; retn 0x938B ; 
0x000ab034: dec ecx ; retn 0xC083 ; 
0x000e524b: dec ecx ; retn 0xEA89 ; 
0x000f763f: dec ecx ; retn 0xFFFA ; 
0x00001a6e: dec edi ; jmp edx ; 
0x0000078a: dec edi ; ret  ; 
0x00103bb8: dec edi ; retn 0x0189 ; 
0x00103be8: dec edi ; retn 0x4189 ; 
0x000219d2: dec edi ; retn 0x4689 ; 
0x0010fc4c: dec edi ; retn 0x5057 ; 
0x000e3493: dec edi ; retn 0x5751 ; 
0x000e3a8c: dec edi ; retn 0x74FF ; 
0x0004feee: dec edi ; retn 0x958B ; 
0x000a0f38: dec edi ; retn 0xC483 ; 
0x0016494b: dec edx ; ret  ; 
0x00152dac: dec edx ; retn 0x1B49 ; 
0x00167419: dec esi ; jmp dword [eax] ; 
0x00181fac: dec esi ; jmp ebp ; 
0x000008ee: dec esi ; ret  ; 
0x00153083: dec esi ; retn 0x474C ; 
0x000d2175: dec esi ; retn 0x548D ; 
0x00003e79: dec esi ; retn 0x6BBA ; 
0x000dd44e: dec esi ; retn 0xC189 ; 
0x000508c5: dec esi ; retn 0xEC83 ; 
0x0016495f: dec esi ; retn 0xFFFC ; 
0x000dcedf: dec esp ; call dword [0x00000010] ; 
0x0010fa5e: dec esp ; call dword [eax+0x10] ; 
0x00073e76: dec esp ; call eax ; 
0x0001f439: dec esp ; call edi ; 
0x0001f6c2: dec esp ; call esi ; 
0x0018b63d: dec esp ; jmp dword [eax] ; 
0x0018b6c9: dec esp ; jmp dword [ecx+0x00] ; 
0x00112e22: dec esp ; ret  ; 
0x00197414: dec esp ; retn 0x0002 ; 
0x000bc984: dec esp ; retn 0x8904 ; 
0x000a0f1d: dec esp ; retn 0xC483 ; 
0x0019e3a4: dec esp ; retn 0xFFF5 ; 
0x00197879: div ah ; jmp dword [eax+eax] ; 
0x00197865: div ah ; jmp dword [eax] ; 
0x00197849: div ah ; jmp dword [esi] ; 
0x000c2084: div byte [eax+esi-0x0A] ; retn 0x7404 ; 
0x00128ae5: div byte [ecx] ; call dword [eax+0x0026B48D] ; 
0x00128995: div dword [ecx] ; call dword [eax+0x0026B48D] ; 
0x00120992: div ebx ; jmp dword [ecx] ; 
0x000e8f45: div edx ; jmp dword [esi-0x70] ; 
0x001979a5: div esp ; call dword [0x00000000] ; 
0x001978c5: div esp ; call dword [edx+0x00] ; 
0x00197961: div esp ; jmp dword [eax+eax] ; 
0x0019794d: div esp ; jmp dword [eax] ; 
0x001979cd: div esp ; jmp dword [edx] ; 
0x00197901: div esp ; jmp dword [esi] ; 
0x000b1291: enter 0x0000, 0x00 ; call dword [0x00000010] ; 
0x00055de6: enter 0x0000, 0x89 ; ret  ; 
0x000f32d2: enter 0x0002, 0x81 ; retn 0xED2B ; 
0x000f3292: enter 0x0002, 0x81 ; retn 0xED6B ; 
0x000f3252: enter 0x0002, 0x81 ; retn 0xEDAB ; 
0x000f3212: enter 0x0002, 0x81 ; retn 0xEDEB ; 
0x000b21b4: enter 0x0002, 0x89 ; retn 0xC483 ; 
0x000d3219: enter 0x0004, 0x81 ; ret  ; 
0x000a3296: enter 0x0007, 0x81 ; ret  ; 
0x0003f4e7: enter 0x2673, 0x89 ; retn 0xF189 ; 
0x0003f54b: enter 0x2A73, 0x89 ; retn 0xF189 ; 
0x00051189: enter 0x4F75, 0x83 ; retn 0x8001 ; 
0x000c3c01: enter 0x5150, 0x89 ; ret  ; 
0x00001a1d: enter 0x59E7, 0x5B ; retn 0x2A63 ; 
0x00044bce: enter 0x5E5B, 0x5F ; ret  ; 
0x0013d47c: enter 0x5F5E, 0x5B ; ret  ; 
0x000259c7: enter 0x5F5E, 0x5D ; ret  ; 
0x000cb27d: enter 0xB6EB, 0x39 ; retn 0x840F ; 
0x000483e9: enter 0xC239, 0x89 ; ret  ; 
0x00074878: enter 0xD285, 0x75 ; rep ret  ; 
0x00068c60: enter 0xE821, 0x39 ; retn 0x820F ; 
0x000644e1: enter 0xE829, 0x89 ; ret  ; 
0x0002b23c: enter 0xE8C1, 0x1F ; ret  ; 
0x000d33b8: enter 0xF575, 0x83 ; ret  ; 
0x001a28c8: enter 0xF665, 0xFF ; retn 0x0001 ; 
0x00078d09: enter 0xF801, 0x89 ; retn 0x4489 ; 
0x000ce608: enter 0xF829, 0x29 ; ret  ; 
0x001646bc: enter 0xFCB3, 0xFF ; retn 0xFCB2 ; 
0x001432aa: enter 0xFFFD, 0x81 ; ret  ; 
0x0013322c: enter 0xFFFE, 0x81 ; ret  ; 
0x0013bcd8: fadd dword [ebx+0x5B5D04C4] ; ret  ; 
0x0005bf69: fadd dword [ebx+0x5E5B04C4] ; ret  ; 
0x0011267c: fadd dword [ebx+0x5E5B14C4] ; ret  ; 
0x001120cf: fadd dword [ebx+0x5E5B24C4] ; ret  ; 
0x0015b130: fadd dword [ecx-0x0A] ; jmp eax ; 
0x00174638: fadd dword [esi-0x13] ; call ebx ; 
0x0011872c: fadd qword [ebx+edi*8] ; call dword [eax-0x73] ; 
0x0017a3b4: fadd qword [edi+ebp*8] ; call dword [edx] ; 
0x0013e02e: fadd st0, st3 ; ret  ; 
0x001431ba: faddp st1, st0 ; ret  ; 
0x00157d50: fbld  [edi-0x11] ; call dword [ecx+0x01FFEF53] ; 
0x00158678: fbstp  [eax-0x10] ; call eax ; 
0x00154094: fcmovb st0, st3 ; ret  ; 
0x000c96e8: fcom dword [esi-0x7D] ; retn 0xE808 ; 
0x00157b50: fcom qword [ebp-0x11] ; call dword [ebx] ; 
0x00073f70: fcom qword [esi-0x03] ; jmp dword [ebp-0x7D] ; 
0x00166ab1: fcomi st0, st0 ; call dword [eax+0x7B] ; 
0x00196d2d: fcomi st0, st4 ; call dword [edx] ; 
0x00167af1: fcomi st0, st4 ; jmp eax ; 
0x00045145: fcomi st0, st6 ; retn 0x0F40 ; 
0x0012dc74: fcomi st0, st7 ; retn 0x0001 ; 
0x00197041: fcomip st0, st4 ; jmp dword [ecx+0x01] ; 
0x00167d79: fcomip st0, st5 ; call dword [ecx+edx*4-0x185BFFFE] ; 
0x00168979: fcomip st0, st7 ; jmp esp ; 
0x0002c1e1: fcomp dword [ebx+0x5E] ; ret  ; 
0x0013d4a8: fcomp dword [edi+0x5B] ; ret  ; 
0x000bc631: fcomp dword [edi+0x5D] ; retn 0x0008 ; 
0x000a0388: fcomp dword [edi+0x5E] ; ret  ; 
0x00154e15: fcomp dword [edx+0x21] ; ret  ; 
0x0003d484: fcomp dword [esi+0x5F] ; ret  ; 
0x001a8901: fdecstp  ; call dword [0x00000004] ; 
0x0015b205: fdecstp  ; call dword [eax-0x26] ; 
0x0015b215: fdecstp  ; call dword [eax-0x6F000926] ; 
0x0012882a: fdiv dword [ebx+eax-0x74E3FD00] ; jmp ebx ; 
0x0016df38: fdiv dword [edx-0x15] ; call dword [edi] ; 
0x000cff49: fdiv dword [esp+ebp-0x7D] ; retn 0x8301 ; 
0x000f747c: fdiv st0, st2 ; call dword [eax-0x72F3137D] ; 
0x000cbe2c: fdiv st0, st3 ; ret  ; 
0x001688e1: fdiv st0, st7 ; jmp dword [ecx+edx-0x26EBFFFD] ; 
0x00169af1: fdiv st1, st0 ; call esp ; 
0x00066681: fdiv st2, st0 ; call dword [eax-0x18] ; 
0x0005d89d: fdiv st2, st0 ; call dword [eax-0x73] ; 
0x00164a60: fdiv st4, st0 ; call dword [eax+0x20FFFCDD] ; 
0x00164a31: fdiv st4, st0 ; call dword [ebp+ebx*8-0x04] ; 
0x000585bb: fdiv st7, st0 ; jmp dword [esi-0x70] ; 
0x00164ab5: fdivp st4, st0 ; call dword [edi+ebx*8-0x04] ; 
0x001649d9: fdivp st4, st0 ; call dword [edx+0x18FFFCDE] ; 
0x00164b24: fdivp st4, st0 ; jmp dword [eax+0x60FFFCDF] ; 
0x00164b01: fdivp st4, st0 ; jmp dword [eax] ; 
0x001649c9: fdivp st4, st0 ; jmp edx ; 
0x00159bac: fdivr dword [ebp-0x0B] ; jmp dword [eax-0x37000A83] ; 
0x00172718: fdivr dword [edi-0x14] ; jmp dword [eax+0x00000000] ; 
0x00191ef4: fdivr qword [esp+esi*8] ; jmp dword [esi] ; 
0x00166ab9: fdivr st0, st0 ; call dword [eax+0x5400017B] ; 
0x001859e1: fdivr st0, st0 ; jmp dword [ecx+0x00000005] ; 
0x00169ae9: fdivr st0, st1 ; call dword [ebx+esi*4-0x23CBFFFD] ; 
0x0016a2d1: fdivr st0, st2 ; jmp dword [eax+0x1B] ; 
0x000700e8: fdivr st0, st7 ; call dword [eax+0x0026748D] ; 
0x0018950d: fdivr st1, st0 ; jmp ebx ; 
0x0018c6c5: fdivr st2, st0 ; call dword [ebp+0x00000006] ; 
0x00167b09: fdivr st4, st0 ; jmp dword [eax+0x72] ; 
0x00167b01: fdivr st4, st0 ; jmp dword [eax] ; 
0x00168929: fdivr st7, st0 ; call esp ; 
0x00166ac1: fdivrp st0, st0 ; jmp dword [eax+0x7C] ; 
0x00168958: fdivrp st7, st0 ; call dword [esp+edx-0x216BFFFD] ; 
0x00168971: fdivrp st7, st0 ; call eax ; 
0x000bc2c3: fiadd dword [ebp-0x76EA8B40] ; ret  ; 
0x00112a73: fiadd dword [ebp-0x76EF8B40] ; ret  ; 
0x000810b4: fiadd dword [ebx-0x79F0EF15] ; retn 0x0010 ; 
0x00080b34: fiadd dword [ebx-0x79F0EF15] ; retn 0x0015 ; 
0x000805b4: fiadd dword [ebx-0x79F0EF15] ; retn 0x001A ; 
0x0008ecdc: fiadd dword [esp+ecx-0x6EF3FD00] ; jmp ecx ; 
0x000764a9: fiadd word [ecx] ; ret  ; 
0x0016433c: ficom dword [esp+edi*8-0x036D0F01] ; call eax ; 
0x0007dde0: fidiv dword [ebp+esi*8+0x5B] ; ret  ; 
0x0007e021: fidiv dword [esp+ebx+0x38] ; retn 0x1874 ; 
0x00041289: fidivr dword [ecx] ; ret  ; 
0x00060cfe: fidivr word [ebx-0x05] ; jmp dword [esi-0x70] ; 
0x0016e6e5: fild dword [ecx] ; ret  ; 
0x000b9745: fild word [ebx-0x6BF0BF02] ; ret  ; 
0x000420c8: fimul dword [0x35C38100] ; call dword [esi] ; 
0x0002d7a3: fimul dword [ecx+0x3904245C] ; retn 0x4489 ; 
0x000a0fec: fimul dword [ecx-0x76FBDBA4] ; ret  ; 
0x00104ee1: fimul word [ecx-0x7607D610] ; ret  ; 
0x000ca957: fimul word [ecx-0x76F7DBA4] ; ret  ; 
0x0001b904: fisttp dword [ebp-0x05312F7D] ; call dword [eax-0x73] ; 
0x000909ea: fisttp dword [ecx+0x5BF1751A] ; ret  ; 
0x0005b6f7: fisttp dword [ecx+0x5F5E5BD8] ; ret  ; 
0x0016d9cd: fisttp dword [edx] ; ret  ; 
0x0006f9d4: fisttp qword [ecx-0x6AF0CFB3] ; ret  ; 
0x000bc196: fisttp word [ebp-0x050F577D] ; call dword [eax+0x68] ; 
0x001789ed: fisttp word [edx] ; ret  ; 
0x000f4afd: fisubr dword [ecx] ; retn 0x4489 ; 
0x00025bec: fisubr dword [ecx] ; retn 0x4589 ; 
0x000640f3: fisubr dword [ecx] ; retn 0xD089 ; 
0x000f5c02: fisubr dword [edx+esi*8] ; jmp dword [esi-0x70] ; 
0x0001c73d: fisubr word [ecx] ; retn 0xD639 ; 
0x0007518b: fld dword [ebx-0x69F0F608] ; retn 0xC031 ; 
0x001a8c8a: fld dword [edx+ecx] ; ret  ; 
0x00158204: fld dword [esi] ; jmp ebx ; 
0x0002b5a9: fld dword [esp+0x04] ; ret  ; 
0x0002b269: fld qword [esp+0x04] ; ret  ; 
0x00095bc7: fld tword [ecx] ; ret  ; 
0x0002b869: fld tword [esp+0x04] ; ret  ; 
0x00046f68: fld1  ; retn 0xFFD9 ; 
0x0009e6de: fldcw word [ecx] ; ret  ; 
0x00155e39: fldl2t  ; call dword [eax+0x1E] ; 
0x00155b99: fldl2t  ; call dword [ebx-0x05] ; 
0x00155ce9: fldl2t  ; jmp ecx ; 
0x000a0732: fldpi  ; ret  ; 
0x00192538: fmul dword [eax-0x0C] ; jmp dword [esi] ; 
0x00047818: fmul dword [ebx+0x2914245C] ; ret  ; 
0x000d4bf8: fmul dword [ebx-0x0000BB63] ; call dword [eax-0x18] ; 
0x000e3306: fmul dword [ebx-0x0000D77D] ; jmp dword [ebp-0x75] ; 
0x00055448: fmul dword [ecx+0x29C829FB] ; ret  ; 
0x00095c01: fmul dword [ecx-0x76E3DBAC] ; ret  ; 
0x000988d1: fmul dword [ecx-0x76EBDBAC] ; ret  ; 
0x000a4aa3: fmul dword [ecx-0x7CB3DBA4] ; ret  ; 
0x000bcfa3: fmul qword [ebx-0x5CF0AFAF] ; retn 0xD473 ; 
0x000378dd: fmul st0, st0 ; ret  ; 
0x0003792e: fmulp st1, st0 ; ret  ; 
0x00157aa0: frstor  [ebx-0x11] ; call dword [ebx] ; 
0x0016a2e1: fsqrt  ; call esp ; 
0x00090e41: fstenv  [esp+edx-0x7D] ; retn 0x8B04 ; 
0x00152da7: fstp dword [ebx+0x4A315A58] ; retn 0x1B49 ; 
0x00153120: fstp st0 ; retn 0xDE5D ; 
0x0002b9da: fstp st1 ; ret  ; 
0x0002b519: fsub dword [0x00000200] ; ret  ; 
0x00139967: fsub st1, st0 ; ret  ; 
0x00178769: fsub st6, st0 ; jmp dword [esi+0x00000000] ; 
0x00178689: fsub st6, st0 ; jmp dword [esi] ; 
0x0002b954: fsubp st1, st0 ; ret  ; 
0x00178985: fsubp st6, st0 ; call esp ; 
0x0016ff61: fucomi st0, st3 ; call dword [ecx+0x03] ; 
0x001784e9: fucomi st0, st6 ; call dword [esi] ; 
0x00166329: fucomi st0, st7 ; call eax ; 
0x00166321: fucomi st0, st7 ; jmp dword [eax-0x3BFFFEDC] ; 
0x00166331: fucomi st0, st7 ; jmp esp ; 
0x0016bbd9: fucomip st0, st2 ; call dword [ecx] ; 
0x00191c52: hlt  ; call dword [0x00000000] ; 
0x00192042: hlt  ; call dword [eax+0x00000000] ; 
0x000d5351: hlt  ; call dword [eax+0x0026748D] ; 
0x000d525d: hlt  ; call dword [eax+0x7C835356] ; 
0x000f8d65: hlt  ; call dword [eax-0x18] ; 
0x0016793a: hlt  ; call dword [eax-0x2BFFFD9D] ; 
0x001679b2: hlt  ; call dword [eax] ; 
0x00196c62: hlt  ; call dword [ebp+0x00000000] ; 
0x0016796a: hlt  ; call dword [ebp+0x02] ; 
0x00167ab2: hlt  ; call dword [ebp+ebp*2-0x339BFFFE] ; 
0x00195622: hlt  ; call dword [ebx+0x00] ; 
0x00191695: hlt  ; call dword [ebx] ; 
0x00194cfa: hlt  ; call dword [ecx+0x00000000] ; 
0x00191dfe: hlt  ; call dword [ecx+0x00] ; 
0x00167702: hlt  ; call dword [ecx+ecx*2] ; 
0x001914e2: hlt  ; call dword [ecx] ; 
0x001950e6: hlt  ; call dword [edi+0x00000000] ; 
0x001919da: hlt  ; call dword [edi+0x00] ; 
0x00195656: hlt  ; call dword [edx+0x00] ; 
0x00193442: hlt  ; call dword [edx+0x01] ; 
0x001975a6: hlt  ; call dword [edx+edx] ; 
0x000f45d2: hlt  ; call dword [edx-0x01] ; 
0x00196d2e: hlt  ; call dword [edx] ; 
0x0016799a: hlt  ; call dword [esi-0x4C3BFFFE] ; 
0x00167a7a: hlt  ; call dword [esp+ebp*2+0x02] ; 
0x00167852: hlt  ; call dword [esp+edx*2+0x02] ; 
0x0016794a: hlt  ; call dword [esp-0x502BFFFE] ; 
0x0016775a: hlt  ; call eax ; 
0x001913b5: hlt  ; call ebp ; 
0x001953c2: hlt  ; call ebx ; 
0x0019442a: hlt  ; call edi ; 
0x001952b6: hlt  ; call edx ; 
0x001677fa: hlt  ; call esp ; 
0x0019552e: hlt  ; jmp dword [0x00000000] ; 
0x00195d26: hlt  ; jmp dword [0x00000001] ; 
0x0018ffa6: hlt  ; jmp dword [eax+0x00000000] ; 
0x0016785a: hlt  ; jmp dword [eax+0x24000254] ; 
0x00167812: hlt  ; jmp dword [eax+0x52] ; 
0x00167b0a: hlt  ; jmp dword [eax+0x72] ; 
0x0019181e: hlt  ; jmp dword [eax+eax] ; 
0x00167912: hlt  ; jmp dword [eax-0x1BFFFDA0] ; 
0x00167b02: hlt  ; jmp dword [eax] ; 
0x00191122: hlt  ; jmp dword [ebp+0x00000000] ; 
0x0019053a: hlt  ; jmp dword [ebp+0x00] ; 
0x001678da: hlt  ; jmp dword [ebp+ebx*2-0x630BFFFE] ; 
0x000c87f2: hlt  ; jmp dword [ebp-0x75] ; 
0x0019142e: hlt  ; jmp dword [ebx+0x00000000] ; 
0x00195e6a: hlt  ; jmp dword [ebx+0x00] ; 
0x0019549e: hlt  ; jmp dword [ebx] ; 
0x001948ba: hlt  ; jmp dword [ecx+0x00000000] ; 
0x001921d2: hlt  ; jmp dword [ecx+0x00] ; 
0x00197042: hlt  ; jmp dword [ecx+0x01] ; 
0x00196296: hlt  ; jmp dword [ecx] ; 
0x00194c62: hlt  ; jmp dword [edi+0x00000000] ; 
0x00192ab6: hlt  ; jmp dword [edi+0x00] ; 
0x00193606: hlt  ; jmp dword [edi+0x03] ; 
0x00192c2e: hlt  ; jmp dword [edi+0x07] ; 
0x001917aa: hlt  ; jmp dword [edi] ; 
0x00198196: hlt  ; jmp dword [edx+0x00] ; 
0x001914f6: hlt  ; jmp dword [edx] ; 
0x000cbe0c: hlt  ; jmp dword [esi-0x70] ; 
0x00191309: hlt  ; jmp dword [esi] ; 
0x0018feb1: hlt  ; jmp dword [esp+ecx] ; 
0x001676fa: hlt  ; jmp eax ; 
0x00192dd2: hlt  ; jmp edx ; 
0x0016789a: hlt  ; jmp esp ; 
0x0006bf93: hlt  ; rep ret  ; 
0x00115c0e: hlt  ; ret  ; 
0x001774bc: hlt  ; retn 0x0000 ; 
0x0003c2f8: idiv bh ; call dword [eax+0x0026748D] ; 
0x000821b5: idiv bh ; call dword [eax+0x0026B48D] ; 
0x000e6694: idiv bh ; call dword [eax+0x50] ; 
0x00037515: idiv bh ; call dword [eax+0x6A] ; 
0x000b9a4c: idiv bh ; call dword [eax-0x284B7275] ; 
0x000a4f7c: idiv bh ; call dword [eax-0x7BF02D7C] ; 
0x000bb68c: idiv bh ; call dword [ebx+0x57] ; 
0x00043e7c: idiv bh ; call dword [edi+0x57] ; 
0x00104799: idiv bh ; jmp dword [0xC0000000] ; 
0x00081f92: idiv bh ; jmp dword [esi+0x0F] ; 
0x00047d2b: idiv bh ; jmp dword [esi-0x70] ; 
0x000afffd: idiv bh ; ret  ; 
0x001a28c9: idiv bh ; retn 0x0001 ; 
0x00168022: idiv bh ; retn 0x0002 ; 
0x0007e406: idiv byte [eax] ; ret  ; 
0x000eeb09: idiv byte [ecx] ; ret  ; 
0x000d69e2: idiv dl ; call dword [eax-0x18] ; 
0x000d69d2: idiv dl ; call dword [eax-0x73] ; 
0x0016a449: idiv dl ; jmp dword [eax] ; 
0x0016ad89: idiv ebx ; jmp dword [edx+ebp*2] ; 
0x00047ea0: idiv edi ; call dword [eax+0x0026748D] ; 
0x00048185: idiv edi ; call dword [eax+0x0026B48D] ; 
0x000bb61c: idiv edi ; call dword [eax+0x0C245C8B] ; 
0x000a002c: idiv edi ; call dword [eax+0x0F6F0FF3] ; 
0x000e6543: idiv edi ; call dword [eax+0x50] ; 
0x00094e51: idiv edi ; call dword [eax-0x01] ; 
0x000cfc2c: idiv edi ; call dword [eax-0x137C3877] ; 
0x00060968: idiv edi ; jmp dword [ecx] ; 
0x0008209d: idiv edi ; jmp dword [esi+0x0F] ; 
0x00047c6b: idiv edi ; jmp dword [esi-0x70] ; 
0x00076f41: idiv edi ; ret  ; 
0x000d8165: idiv edx ; call dword [eax-0x73] ; 
0x00165b69: imul ah ; jmp dword [eax+ecx*8+0x00] ; 
0x00165361: imul bl ; call eax ; 
0x0007ef08: imul byte [ecx] ; retn 0x280F ; 
0x000808fc: imul byte [ecx] ; retn 0xC301 ; 
0x00179e55: imul dh ; call dword [edi+0x00] ; 
0x0007f038: imul dword [ecx] ; retn 0x280F ; 
0x000ee17e: imul dword [ecx] ; retn 0x7C89 ; 
0x00080a5c: imul dword [ecx] ; retn 0xC301 ; 
0x00169375: imul eax, dword [ebx], 0xF8E96400 ; call dword [ecx+ebp*2-0x165BFFFD] ; 
0x0016938d: imul eax, dword [ebx], 0xF8EA2400 ; jmp esp ; 
0x0016696d: imul eax, dword [ecx], 0xF0811400 ; jmp dword [eax] ; 
0x0016b1a5: imul eax, dword [ecx], 0xFDF29400 ; call dword [edi+eax*4+0x01] ; 
0x000cd157: imul ebp, dword [eax], 0xFFFF44E9 ; jmp dword [esi-0x70] ; 
0x000e5ac1: imul ebp, dword [ebx+esi*8], 0xFF ; ret  ; 
0x000fded3: imul ebp, dword [ecx-0x3B7CFFFF], 0x89C08510 ; retn 0x3678 ; 
0x00157cb1: imul ebp, edi, 0xEF5391FF ; call dword [ecx+0x43FFEF53] ; 
0x00157ca1: imul ebp, edi, 0xEF5391FF ; call dword [ecx-0x6E0010AD] ; 
0x00157ce1: imul ebp, edi, 0xEF56E6FF ; call dword [ecx-0x6E0010AD] ; 
0x00157d61: imul ebp, edi, 0xEF66BFFF ; call ebp ; 
0x00157d19: imul ebp, edi, 0xEF67BBFF ; call dword [ecx+0x00FFEF53] ; 
0x00157c9d: imul ebp, edi, 0xEF6929FF ; call dword [ecx-0x6E0010AD] ; 
0x0017fea5: imul ecx, dword [esi], 0x04 ; ret  ; 
0x00173353: imul ecx, dword [esi], 0x0C0E4110 ; ret  ; 
0x0011139a: imul edi, ebp, 0xFF ; jmp dword [esi-0x70] ; 
0x000f5d21: imul edi, ebx, 0xFF ; jmp dword [esi-0x70] ; 
0x00047bd7: imul edi, ecx, 0xFF ; call dword [eax+0x0026748D] ; 
0x0006a7ef: imul edi, edi, 0xFF ; call dword [eax+0x0026748D] ; 
0x0002d225: imul edi, edi, 0xFF ; jmp dword [esi-0x70] ; 
0x0010348f: imul edi, esi, 0xFF ; call dword [eax+0x0026748D] ; 
0x00061fe4: imul edi, esi, 0xFF ; call dword [eax+0x0026B48D] ; 
0x000917d9: imul edx, dword [eax-0x73], 0xFAAC8B83 ; call dword [eax-0x18] ; 
0x00179ea9: imul esi ; jmp edx ; 
0x000f6321: imul esi, ebp, 0xFF ; jmp dword [esi-0x70] ; 
0x001666e8: in al, 0x47 ; jmp dword [eax] ; 
0x000602d3: in al, 0x56 ; call dword [eax+0x2C] ; 
0x0018bf6c: in al, 0x60 ; jmp dword [ebp+0x07] ; 
0x001667e8: in al, 0x65 ; call dword [eax+0x59] ; 
0x00152595: in al, 0x66 ; jmp dword [0x3B8AFD6B] ; 
0x001669a0: in al, 0x89 ; call dword [eax-0x1BFFFE94] ; 
0x0009dcf9: in al, 0x89 ; ret  ; 
0x00106760: in al, 0x89 ; retn 0x7D8B ; 
0x0002c283: in al, 0x89 ; retn 0xDAF7 ; 
0x0018f34c: in al, 0xAD ; jmp dword [0x00000000] ; 
0x00167510: in al, 0xB3 ; jmp dword [eax+0x2C] ; 
0x00167590: in al, 0xBC ; jmp eax ; 
0x0018f76c: in al, 0xC4 ; jmp dword [eax+eax] ; 
0x00178ab9: in al, 0xEE ; jmp dword [edi] ; 
0x0017fc35: in al, 0xEF ; call dword [eax+eax+0x41000000] ; 
0x0017fc89: in al, 0xEF ; jmp dword [0x00000000] ; 
0x00167671: in al, 0xF3 ; call dword [eax+0x3D] ; 
0x0015b0c1: in al, 0xF5 ; call eax ; 
0x0019ef05: in al, 0xF5 ; jmp dword [esi] ; 
0x0015b089: in al, 0xF5 ; jmp eax ; 
0x001692f1: in al, 0xF8 ; call esp ; 
0x0016a389: in al, 0xFA ; call dword [eax-0x6BFFFBE0] ; 
0x0016a3a9: in al, 0xFA ; call dword [eax] ; 
0x0016a399: in al, 0xFA ; call eax ; 
0x0018cb2c: in al, 0xFC ; jmp dword [ebp+0x00] ; 
0x00036868: in al, 0xFE ; call dword [eax+0x0026748D] ; 
0x001726c6: in al, dx ; call dword [eax+0x00000000] ; 
0x00156dda: in al, dx ; call dword [eax+0x5A] ; 
0x00165792: in al, dx ; call dword [eax+0x640000A7] ; 
0x00156de2: in al, dx ; call dword [eax+0x78FFEC5A] ; 
0x00156e0e: in al, dx ; call dword [eax+0x7AFFECBA] ; 
0x00173aa6: in al, dx ; call dword [eax+eax+0x41000000] ; 
0x001659da: in al, dx ; call dword [eax+edi*4-0x58BC0000] ; 
0x001654b2: in al, dx ; call dword [eax-0x3BFFFF71] ; 
0x00165b32: in al, dx ; call dword [eax-0x3F] ; 
0x00156e3e: in al, dx ; call dword [eax-0x44] ; 
0x001659ea: in al, dx ; call dword [eax-0x47] ; 
0x00165962: in al, dx ; call dword [eax-0x4B] ; 
0x001657fa: in al, dx ; call dword [eax-0x57] ; 
0x00165972: in al, dx ; call dword [eax-0x5BFFFF4B] ; 
0x00156e16: in al, dx ; call dword [eax-0x5F001345] ; 
0x00165682: in al, dx ; call dword [eax-0x5F] ; 
0x00165432: in al, dx ; call dword [eax-0x72] ; 
0x0002e49f: in al, dx ; call dword [eax-0x77] ; 
0x00166b39: in al, dx ; call dword [eax-0x7F] ; 
0x0016559a: in al, dx ; call dword [eax] ; 
0x001727c2: in al, dx ; call dword [ebp+0x04] ; 
0x00172a76: in al, dx ; call dword [ebx+0x00] ; 
0x00165922: in al, dx ; call dword [ebx+esi*4-0x63DC0000] ; 
0x00173022: in al, dx ; call dword [ecx+0x00] ; 
0x00165802: in al, dx ; call dword [ecx+ebp*4+0x7A940000] ; 
0x001659fa: in al, dx ; call dword [ecx+edi*4-0x567C0000] ; 
0x00172a9a: in al, dx ; call dword [edi+0x00000000] ; 
0x00173336: in al, dx ; call dword [edi+0x00] ; 
0x00173b52: in al, dx ; call dword [edi+0x02] ; 
0x0016549a: in al, dx ; call dword [edi+ecx*4+0x00] ; 
0x00165b52: in al, dx ; call dword [edx+eax*8-0x2E7C0000] ; 
0x00165832: in al, dx ; call dword [edx+ebp*4+0x00] ; 
0x00173912: in al, dx ; call dword [edx] ; 
0x0016541a: in al, dx ; call dword [esi+ecx*4] ; 
0x00156dbe: in al, dx ; call eax ; 
0x00173d82: in al, dx ; call ebx ; 
0x00165661: in al, dx ; call esp ; 
0x0017271a: in al, dx ; jmp dword [eax+0x00000000] ; 
0x00173be2: in al, dx ; jmp dword [eax+0x00] ; 
0x00173d4e: in al, dx ; jmp dword [eax+0x02] ; 
0x00165452: in al, dx ; jmp dword [eax+0x6400008E] ; 
0x00173242: in al, dx ; jmp dword [eax+eax+0x00] ; 
0x00165b6a: in al, dx ; jmp dword [eax+ecx*8+0x00] ; 
0x001658c2: in al, dx ; jmp dword [eax+esi*4+0x00] ; 
0x00156e42: in al, dx ; jmp dword [eax-0x44] ; 
0x00156e1a: in al, dx ; jmp dword [eax-0x4F001345] ; 
0x0016588a: in al, dx ; jmp dword [eax-0x53] ; 
0x001657ba: in al, dx ; jmp dword [eax-0x58] ; 
0x00165592: in al, dx ; jmp dword [eax-0x5BFFFF67] ; 
0x001655fa: in al, dx ; jmp dword [eax-0x61] ; 
0x00156dc6: in al, dx ; jmp dword [eax] ; 
0x00173006: in al, dx ; jmp dword [ebp+0x00] ; 
0x0016597a: in al, dx ; jmp dword [ebp+esi*4-0x5FEC0000] ; 
0x00173816: in al, dx ; jmp dword [ebx+0x00000000] ; 
0x0016568a: in al, dx ; jmp dword [ecx+0x00] ; 
0x00173c9a: in al, dx ; jmp dword [edi+0x00000000] ; 
0x001655e2: in al, dx ; jmp dword [edi+ebx*4] ; 
0x001654ba: in al, dx ; jmp dword [edi+ecx*4+0x02F40000] ; 
0x00171222: in al, dx ; jmp dword [edi] ; 
0x00173c1e: in al, dx ; jmp dword [edx+eax] ; 
0x00172b0e: in al, dx ; jmp dword [esi+0x00] ; 
0x0016543a: in al, dx ; jmp dword [esi+ecx*4+0x00] ; 
0x00165ad2: in al, dx ; jmp dword [esi+edi*4] ; 
0x00165552: in al, dx ; jmp dword [esp+edx*4+0x00] ; 
0x00156dc2: in al, dx ; jmp eax ; 
0x00165619: in al, dx ; jmp esp ; 
0x000593a3: in al, dx ; ret  ; 
0x00127b96: in al, dx ; retn 0x0003 ; 
0x00164910: in al, dx ; retn 0xFFFC ; 
0x00081cc6: in eax, 0x83 ; ret  ; 
0x0002971f: in eax, 0x83 ; retn 0x8801 ; 
0x001701b5: in eax, 0xEB ; jmp dword [0x00000001] ; 
0x0017028d: in eax, 0xEB ; jmp dword [ebx] ; 
0x00178b71: in eax, 0xEE ; jmp dword [edi] ; 
0x00197435: in eax, 0xF4 ; jmp dword [eax+eax] ; 
0x00197419: in eax, 0xF4 ; jmp dword [esi] ; 
0x0015b0a9: in eax, 0xF5 ; call dword [eax-0x1B] ; 
0x0015b0b5: in eax, 0xF5 ; call dword [eax-0x5F000A1B] ; 
0x0015b0ad: in eax, 0xF5 ; jmp dword [eax-0x1B] ; 
0x0015b0b9: in eax, 0xF5 ; jmp dword [eax-0x4F000A1B] ; 
0x0015b099: in eax, 0xF5 ; jmp dword [eax] ; 
0x00169311: in eax, 0xF8 ; call dword [edi+0x03] ; 
0x00169301: in eax, 0xF8 ; call dword [edi] ; 
0x0016a3b1: in eax, 0xFA ; jmp dword [eax+0x21] ; 
0x0012735b: in eax, 0xFC ; jmp dword [esi-0x70] ; 
0x00034190: in eax, 0xFF ; call dword [eax+0x0026748D] ; 
0x0004c1c5: in eax, 0xFF ; call dword [eax+0x0026B48D] ; 
0x00052e2c: in eax, 0xFF ; call dword [eax-0x04277A75] ; 
0x00050e4c: in eax, 0xFF ; call dword [eax-0x056B427D] ; 
0x001572e2: in eax, dx ; call dword [0x15FFEDE9] ; 
0x001572ea: in eax, dx ; call dword [0xD0FFEDE9] ; 
0x0011e595: in eax, dx ; call dword [eax+0x0026B48D] ; 
0x0011bd5f: in eax, dx ; call dword [eax+0x14] ; 
0x001572d2: in eax, dx ; call dword [eax-0x18] ; 
0x00165c32: in eax, dx ; call dword [eax-0x24] ; 
0x00165c21: in eax, dx ; call dword [eax-0x25] ; 
0x00165bba: in eax, dx ; call dword [eax-0x3BFFFF2A] ; 
0x00165c5a: in eax, dx ; call dword [eax] ; 
0x00173f7a: in eax, dx ; call dword [ebp+0x00] ; 
0x001749e6: in eax, dx ; call dword [ebp+0x01] ; 
0x00173fb6: in eax, dx ; call dword [ecx+0x00000023] ; 
0x00173f46: in eax, dx ; call dword [edi+0x02] ; 
0x00165b89: in eax, dx ; call dword [edi+ecx*8+0x00] ; 
0x00174092: in eax, dx ; call dword [edi] ; 
0x00165bfa: in eax, dx ; call dword [edx+ebx*8] ; 
0x001572ee: in eax, dx ; call eax ; 
0x0017463a: in eax, dx ; call ebx ; 
0x00174066: in eax, dx ; jmp dword [0x00000000] ; 
0x00165caa: in eax, dx ; jmp dword [eax-0x20] ; 
0x00165cd2: in eax, dx ; jmp dword [eax-0x5BFFFF1F] ; 
0x001572ca: in eax, dx ; jmp dword [eax] ; 
0x00165d7a: in eax, dx ; jmp dword [ecx+ebp*8-0x60FC0000] ; 
0x00165c6a: in eax, dx ; jmp dword [edi+ebx*8+0x00] ; 
0x00165c09: in eax, dx ; jmp dword [edx+ebx*8+0x00] ; 
0x00173e92: in eax, dx ; jmp dword [esi] ; 
0x00165dc2: in eax, dx ; jmp dword [esp+ebp*8+0x00] ; 
0x00165d12: in eax, dx ; jmp eax ; 
0x00157302: in eax, dx ; jmp ebx ; 
0x0017402a: in eax, dx ; jmp edx ; 
0x00165bc2: in eax, dx ; jmp esp ; 
0x00078840: inc byte [ecx] ; retn 0xF883 ; 
0x00156f1a: inc dword [eax+0x0F] ; call dword [eax+0x0F] ; 
0x00156f3e: inc dword [eax+0x10] ; call dword [eax+0x10] ; 
0x00156fa6: inc dword [eax+0x12] ; call dword [eax+0x12] ; 
0x0015706a: inc dword [eax+0x24] ; jmp dword [eax+0x24] ; 
0x0015708e: inc dword [eax+0x25] ; jmp dword [eax+0x25] ; 
0x001570ce: inc dword [eax+0x27] ; jmp dword [eax+0x27] ; 
0x00157122: inc dword [eax+0x28] ; call dword [eax+0x28] ; 
0x00045e71: inc dword [eax-0x0000AB43] ; jmp dword [edi+0x0F] ; 
0x00040fdd: inc dword [eax-0x00045F43] ; jmp dword [eax] ; 
0x0004aa3f: inc dword [eax-0x00048543] ; jmp dword [eax] ; 
0x00042aef: inc dword [eax-0x00049843] ; jmp dword [eax] ; 
0x00164937: inc dword [eax-0x2F00033D] ; ret  ; 
0x000b328b: inc dword [eax-0x7AF0F506] ; ret  ; 
0x000f791d: inc dword [eax] ; ret  ; 
0x001648bb: inc dword [eax] ; retn 0xFFFC ; 
0x001582e7: inc dword [ebp+0x03] ; call dword [ecx+0x03] ; 
0x00022ef1: inc dword [ebp-0x76D88B40] ; retn 0x4D8B ; 
0x000d3c60: inc dword [ebp-0x7CE08A40] ; ret  ; 
0x0006ef80: inc dword [ebx+0x006A0CEC] ; call dword [esi] ; 
0x000e3feb: inc dword [ebx+0x36FF0CEC] ; call edi ; 
0x000626f4: inc dword [ebx+0x5E5B04C4] ; ret  ; 
0x001175c9: inc dword [ebx+0x5E5B10C4] ; ret  ; 
0x000231b1: inc dword [ebx+0x5E5B14C4] ; ret  ; 
0x000d5314: inc dword [ebx+0x5E5B64C4] ; ret  ; 
0x000a21f5: inc dword [ebx+0x5F5B04C4] ; ret  ; 
0x000e6fe3: inc dword [ebx+0x5F5B34C4] ; ret  ; 
0x0011d5c8: inc dword [ebx+0x7D8010C4] ; ret  ; 
0x000c0c4e: inc dword [ebx+eax*4] ; ret  ; 
0x001642f3: inc dword [ebx+edx*4-0x04] ; call dword [esp+edx*4] ; 
0x00163ff3: inc dword [ebx+esi*2-0x04] ; call esp ; 
0x00040f9f: inc dword [ebx-0x00046343] ; call dword [eax] ; 
0x0004d06f: inc dword [ebx-0x00104B43] ; jmp dword [eax] ; 
0x00045c8b: inc dword [ebx-0x50F0EF3C] ; retn 0xAF0F ; 
0x00094d86: inc dword [ebx-0x5BF0002E] ; retn 0xC102 ; 
0x00035fe5: inc dword [ebx-0x5BF0FE12] ; retn 0x8902 ; 
0x000331ae: inc dword [ebx-0x5BF0FE17] ; retn 0x8902 ; 
0x000aa1d5: inc dword [ebx-0x6BF0B005] ; ret  ; 
0x00164d8f: inc dword [ecx+esi*8-0x04] ; call dword [ecx+esi*8-0x0E1B0004] ; 
0x0005e616: inc dword [ecx-0x00100C1E] ; jmp dword [0x0000100C] ; 
0x000c71b9: inc dword [ecx] ; jmp edx ; 
0x00051f85: inc dword [ecx] ; ret  ; 
0x00106df4: inc dword [ecx] ; retn 0x4489 ; 
0x00117076: inc dword [ecx] ; retn 0x8589 ; 
0x0003af63: inc dword [ecx] ; retn 0x858B ; 
0x00163df3: inc dword [edi+edx*2-0x04] ; call dword [eax+ebx*2] ; 
0x001669eb: inc dword [edx+esi*2-0x484BFFFF] ; jmp dword [eax] ; 
0x00164927: inc dword [esi-0x2900033D] ; ret  ; 
0x001649a3: inc dword [esi] ; ret  ; 
0x001648ab: inc dword [esi] ; retn 0xFFFC ; 
0x000de6ea: inc eax ; call dword [0x00000010] ; 
0x001666a9: inc eax ; call dword [esp+ecx*2+0x01] ; 
0x0001c061: inc eax ; call ebp ; 
0x0001be09: inc eax ; call edi ; 
0x0003b94c: inc eax ; jmp dword [eax] ; 
0x0012941e: inc eax ; jmp dword [esi-0x77] ; 
0x001666b1: inc eax ; jmp dword [esp+ecx*2+0x41D40001] ; 
0x00024b41: inc eax ; ret  ; 
0x001a7408: inc eax ; retn 0x0003 ; 
0x00070c0c: inc eax ; retn 0xFFFF ; 
0x001666c9: inc ebp ; jmp dword [eax] ; 
0x0003b81e: inc ebp ; ret  ; 
0x000fdb43: inc ebp ; retn 0x4389 ; 
0x000760c4: inc ebp ; retn 0x4401 ; 
0x0001ce2e: inc ebp ; retn 0x4489 ; 
0x000a07c4: inc ebp ; retn 0x5356 ; 
0x0003c600: inc ebp ; retn 0x548B ; 
0x001521df: inc ebp ; retn 0x591C ; 
0x0003c066: inc ebp ; retn 0x5AE9 ; 
0x000b1a3d: inc ebp ; retn 0x81C3 ; 
0x000e1a50: inc ebp ; retn 0x8389 ; 
0x0004f6d1: inc ebp ; retn 0x8589 ; 
0x00002583: inc ebp ; retn 0x88AD ; 
0x000b1b44: inc ebp ; retn 0x89C3 ; 
0x000e3282: inc ebp ; retn 0xC084 ; 
0x000ee98c: inc ebp ; retn 0xC35B ; 
0x00071b8d: inc ebp ; retn 0xC483 ; 
0x0001cb15: inc ebp ; retn 0xEA89 ; 
0x0006575d: inc ebp ; retn 0xEC83 ; 
0x0001d5e7: inc ebp ; retn 0xED85 ; 
0x0001be59: inc ebp ; retn 0xF685 ; 
0x000cd68f: inc ebp ; retn 0xF7E9 ; 
0x000f433a: inc ebx ; jmp dword [esi-0x70] ; 
0x00003960: inc ebx ; ret  ; 
0x0000359a: inc ebx ; retn 0x1BF9 ; 
0x0002adc8: inc ebx ; retn 0xEC83 ; 
0x0006f0a8: inc ebx ; retn 0xED85 ; 
0x001666b9: inc ecx ; call dword [eax] ; 
0x000e085b: inc ecx ; jmp dword [eax] ; 
0x0007f309: inc ecx ; jmp dword [esi+0x0F] ; 
0x0016b270: inc ecx ; ret  ; 
0x000006f0: inc ecx ; retn 0xAE00 ; 
0x001666e9: inc edi ; jmp dword [eax] ; 
0x0007e201: inc edi ; ret  ; 
0x000dcfa4: inc edi ; retn 0x5F5E ; 
0x000cbe4a: inc edi ; retn 0x8DC3 ; 
0x0011cc82: inc edi ; retn 0xC183 ; 
0x0011da6b: inc edi ; retn 0xC483 ; 
0x0003bb69: inc edx ; call dword [eax+0x0026748D] ; 
0x000ee1ac: inc edx ; jmp dword [eax] ; 
0x0015232f: inc edx ; jmp dword [edx-0x71] ; 
0x0010a76b: inc edx ; jmp dword [esi-0x70] ; 
0x00025c55: inc edx ; ret  ; 
0x000d8256: inc edx ; retn 0x0489 ; 
0x001253f7: inc edx ; retn 0x0F66 ; 
0x000e8aa8: inc edx ; retn 0x90C3 ; 
0x001532e6: inc edx ; retn 0xAC65 ; 
0x0002afd2: inc edx ; retn 0xEC83 ; 
0x0016480c: inc edx ; retn 0xFFFC ; 
0x0016b898: inc esi ; ret  ; 
0x0006f8d6: inc esi ; retn 0x4489 ; 
0x000a59c2: inc esi ; retn 0x4689 ; 
0x000a49f9: inc esi ; retn 0x4C80 ; 
0x0013bfcb: inc esi ; retn 0x5D5E ; 
0x000f43b0: inc esi ; retn 0x5E5B ; 
0x000faf93: inc esi ; retn 0xBE0F ; 
0x0001d004: inc esp ; call eax ; 
0x0001c881: inc esp ; call ebp ; 
0x0001d5a0: inc esp ; call ebx ; 
0x0001c639: inc esp ; call edi ; 
0x000f4273: inc esp ; jmp dword [esi-0x70] ; 
0x00031a18: inc esp ; ret  ; 
0x00169be4: inc esp ; retn 0x0003 ; 
0x00053e92: inc esp ; retn 0x008B ; 
0x000ff359: inc esp ; retn 0x07E9 ; 
0x000c12ed: inc esp ; retn 0x0804 ; 
0x00091a69: inc esp ; retn 0x4489 ; 
0x000468c0: inc esp ; retn 0x4589 ; 
0x000a2874: inc esp ; retn 0x5056 ; 
0x000f0f8b: inc esp ; retn 0x538D ; 
0x0009c47a: inc esp ; retn 0x5E5B ; 
0x00024a22: inc esp ; retn 0x5F5E ; 
0x000e599b: inc esp ; retn 0x66C3 ; 
0x000e5009: inc esp ; retn 0x6A50 ; 
0x0009085c: inc esp ; retn 0x6FE9 ; 
0x00105e65: inc esp ; retn 0x788B ; 
0x000ee1d6: inc esp ; retn 0x7D89 ; 
0x00040fba: inc esp ; retn 0x8589 ; 
0x000daa6c: inc esp ; retn 0x8966 ; 
0x000919f1: inc esp ; retn 0x8B65 ; 
0x000ebbab: inc esp ; retn 0x8D50 ; 
0x0011c3b2: inc esp ; retn 0x8D8D ; 
0x000d838e: inc esp ; retn 0x958D ; 
0x0007ab7d: inc esp ; retn 0xB60F ; 
0x00090814: inc esp ; retn 0xBAEB ; 
0x0007723b: inc esp ; retn 0xC083 ; 
0x000a0785: inc esp ; retn 0xC283 ; 
0x000b0026: inc esp ; retn 0xC35B ; 
0x00079e5a: inc esp ; retn 0xC3F3 ; 
0x000733b5: inc esp ; retn 0xC483 ; 
0x00073b53: inc esp ; retn 0xC985 ; 
0x0010f410: inc esp ; retn 0xCA89 ; 
0x000b4b5e: inc esp ; retn 0xE289 ; 
0x000184a5: inc esp ; retn 0xEC83 ; 
0x0003b889: inc esp ; retn 0xFB83 ; 
0x000915db: inc esp ; retn 0xFF50 ; 
0x0009182b: inc esp ; retn 0xFF85 ; 
0x00167a00: inc esp ; retn 0xFFF4 ; 
0x0005b974: insb  ; ret  ; 
0x00188032: insd  ; ret  ; 
0x00001b1c: insd  ; retn 0x1BB7 ; 
0x001531ad: insd  ; retn 0xB9B9 ; 
0x00001a6d: int 0x4F ; jmp edx ; 
0x00154520: int 0x6B ; ret  ; 
0x00002c87: int 0x80 ; 
0x000d4742: int 0x80 ; call dword [0x00000010] ; 
0x00064507: int 0x89 ; retn 0xD989 ; 
0x0016f741: int 0xEB ; call dword [edx] ; 
0x00177db1: int 0xEE ; jmp dword [esi] ; 
0x001817c5: int 0xEF ; call dword [edi+0x00] ; 
0x00117fce: int 0xF0 ; jmp dword [esi-0x70] ; 
0x00167619: int 0xF3 ; call dword [eax] ; 
0x00097feb: int 0xF8 ; jmp dword [esi-0x70] ; 
0x00002c58: int 0xF8 ; rep ret  ; 
0x0001851f: int 0xFA ; call dword [eax-0x18] ; 
0x0001850f: int 0xFA ; call dword [eax-0x73] ; 
0x0016a251: int 0xFA ; call dword [eax] ; 
0x0016a241: int 0xFA ; call dword [esp+edx-0x329BFFFC] ; 
0x00183f21: int 0xFB ; call dword [edi+eax+0x03000000] ; 
0x000ac3f3: int1  ; call dword [0x00000010] ; 
0x0010e5c6: int1  ; call dword [eax+0x0026B48D] ; 
0x00166ee2: int1  ; call dword [eax+0x3400019F] ; 
0x001593ea: int1  ; call dword [eax+0x35FFF1FF] ; 
0x00167102: int1  ; call dword [eax+0x440001C7] ; 
0x0010553d: int1  ; call dword [eax+0x53565755] ; 
0x000cc3a1: int1  ; call dword [eax+0x6A] ; 
0x00166f92: int1  ; call dword [eax+0x740001A4] ; 
0x00158cee: int1  ; call dword [eax+0x74] ; 
0x001593ca: int1  ; call dword [eax-0x18000E01] ; 
0x001593e2: int1  ; call dword [eax-0x21000E01] ; 
0x00166cd2: int1  ; call dword [eax-0x5BFFFE70] ; 
0x00166f82: int1  ; call dword [eax-0x5C] ; 
0x00166f22: int1  ; call dword [eax-0x5E] ; 
0x00158952: int1  ; call dword [eax-0x5F000EBB] ; 
0x00166d5a: int1  ; call dword [eax-0x6D] ; 
0x001593d2: int1  ; call dword [eax-0x6F000E01] ; 
0x0010b1e6: int1  ; call dword [eax-0x73] ; 
0x00158a9a: int1  ; call dword [eax] ; 
0x0010a89d: int1  ; call dword [ebp+0x56] ; 
0x00166ec2: int1  ; call dword [ebp+ebx*4+0x49740001] ; 
0x00158aae: int1  ; call dword [ebx+0x48] ; 
0x00166d6a: int1  ; call dword [ebx+edx*4+0x21C40001] ; 
0x00166f3a: int1  ; call dword [ebx] ; 
0x00156d56: int1  ; call dword [ecx+0x00] ; 
0x00156da2: int1  ; call dword [edi+0x0BFFF1FF] ; 
0x001588c6: int1  ; call dword [edi+0x71FFF12F] ; 
0x0016702a: int1  ; call dword [edi-0x76BBFFFF] ; 
0x000cf4be: int1  ; call dword [edx+0x6A] ; 
0x00166e5a: int1  ; call dword [edx+ebx*4] ; 
0x00158c12: int1  ; call dword [edx+edx*2+0x4F1CFFF1] ; 
0x00166d22: int1  ; call dword [edx+edx*4+0x1F940001] ; 
0x001880fe: int1  ; call dword [edx] ; 
0x00166e0a: int1  ; call dword [esi+edx*4+0x01] ; 
0x00166e02: int1  ; call dword [esi+edx*4] ; 
0x00158c5a: int1  ; call dword [esi-0x33000EB7] ; 
0x001670c2: int1  ; call dword [esp+ebp*4+0x01] ; 
0x001670d2: int1  ; call dword [esp+ebp*4-0x6EEBFFFF] ; 
0x00166c8a: int1  ; call dword [esp+ecx*4+0x09A40001] ; 
0x00166e42: int1  ; call eax ; 
0x00158c96: int1  ; call ebx ; 
0x00008f66: int1  ; call ecx ; 
0x00158c7e: int1  ; call edx ; 
0x00166f9a: int1  ; call esp ; 
0x001875b2: int1  ; jmp dword [eax+0x00] ; 
0x00166dba: int1  ; jmp dword [eax+0x24000194] ; 
0x001884e2: int1  ; jmp dword [eax+eax] ; 
0x0016704a: int1  ; jmp dword [eax+ebp*4] ; 
0x00158956: int1  ; jmp dword [eax-0x17000EBB] ; 
0x00158a16: int1  ; jmp dword [eax-0x17000EBC] ; 
0x00166c9a: int1  ; jmp dword [eax-0x3BFFFE73] ; 
0x00166e72: int1  ; jmp dword [eax-0x66] ; 
0x00187f9a: int1  ; jmp dword [eax] ; 
0x00156d92: int1  ; jmp dword [ebp+0x19FFF1FF] ; 
0x001888aa: int1  ; jmp dword [ebx+0x00000001] ; 
0x00166f4a: int1  ; jmp dword [ebx+0x01] ; 
0x001877e6: int1  ; jmp dword [ebx+0x03] ; 
0x0000abf6: int1  ; jmp dword [ebx+0x2E] ; 
0x00158bd2: int1  ; jmp dword [ebx+0x53FFF146] ; 
0x00166d62: int1  ; jmp dword [ebx+edx*4+0x01] ; 
0x00158cce: int1  ; jmp dword [ebx] ; 
0x001884f6: int1  ; jmp dword [ecx+eax] ; 
0x00166ce2: int1  ; jmp dword [ecx+edx*4+0x01] ; 
0x00166cf2: int1  ; jmp dword [ecx+edx*4+0x1A040001] ; 
0x001876be: int1  ; jmp dword [edi+0x00] ; 
0x00158c4a: int1  ; jmp dword [edi+0x09FFF149] ; 
0x00158c2a: int1  ; jmp dword [edi+0x29FFF149] ; 
0x00158bfa: int1  ; jmp dword [edi+0x46] ; 
0x00158ca6: int1  ; jmp dword [edi+ebp*2-0x0F] ; 
0x00158c46: int1  ; jmp dword [edi-0x58000EB7] ; 
0x00156d86: int1  ; jmp dword [edi] ; 
0x00166c3a: int1  ; jmp dword [edx+ecx*4+0x03D40001] ; 
0x00107576: int1  ; jmp dword [esi-0x70] ; 
0x001881ea: int1  ; jmp dword [esi] ; 
0x00166eaa: int1  ; jmp dword [esp+ebx*4+0x47740001] ; 
0x00166c4a: int1  ; jmp eax ; 
0x00187afa: int1  ; jmp ebx ; 
0x00158b86: int1  ; jmp ecx ; 
0x00009516: int1  ; jmp edi ; 
0x0000a046: int1  ; jmp edx ; 
0x00158ab2: int1  ; jmp esp ; 
0x000747de: int1  ; rep ret  ; 
0x000025e7: int1  ; ret  ; 
0x00100fbb: int1  ; retn 0xFFF2 ; 
0x000f8ec7: int1  ; retn 0xFFFA ; 
0x000f1cd5: int3  ; call dword [eax+0x0026B48D] ; 
0x000f2df3: int3  ; call eax ; 
0x001672e1: int3  ; jmp eax ; 
0x0002bd40: int3  ; jmp edx ; 
0x00003abf: int3  ; ret  ; 
0x00197494: int3  ; retn 0x0002 ; 
0x000dd636: into  ; call dword [0x00000010] ; 
0x00076c53: into  ; jmp ebx ; 
0x00164960: into  ; retn 0xFFFC ; 
0x0007bb92: invlpg byte [eax] ; ret  ; 
0x0016b5ff: jmp dword [0x00000000] ; 
0x0016fa9f: jmp dword [0x00000001] ; 
0x00177737: jmp dword [0x00000002] ; 
0x0016d0eb: jmp dword [0x00000004] ; 
0x001858c2: jmp dword [0x00000006] ; 
0x00050344: jmp dword [0x00000080] ; 
0x00069826: jmp dword [0x00000808] ; 
0x0005d96d: jmp dword [0x00000FFF] ; 
0x0005e61c: jmp dword [0x0000100C] ; 
0x0005346e: jmp dword [0x00002000] ; 
0x00056e69: jmp dword [0x00002008] ; 
0x000504c1: jmp dword [0x00002100] ; 
0x000292d0: jmp dword [0x00005555] ; 
0x0004f124: jmp dword [0x00008000] ; 
0x000b3dd8: jmp dword [0x0000F000] ; 
0x0003ebf2: jmp dword [0x000FFFFF] ; 
0x000b9eec: jmp dword [0x00FFFFFF] ; 
0x0016a6eb: jmp dword [0x26540004+edi] ; 
0x0015833e: jmp dword [0x2FFFF004] ; 
0x00165113: jmp dword [0x39A40000] ; 
0x00152597: jmp dword [0x3B8AFD6B] ; 
0x0019b50b: jmp dword [0x41000000+ecx] ; 
0x0016378f: jmp dword [0x55FFFC22] ; 
0x00163ca7: jmp dword [0x55FFFC29] ; 
0x001580b3: jmp dword [0x60FFEF7C] ; 
0x001637a3: jmp dword [0x65FFFC23] ; 
0x001637b3: jmp dword [0x65FFFC24] ; 
0x0016aa23: jmp dword [0x8EC40004+ebx*2] ; 
0x001644d3: jmp dword [0xA574FFFC] ; 
0x0016873b: jmp dword [0xB0640003+eax] ; 
0x0016a1d3: jmp dword [0xBCD40004+ecx] ; 
0x001045f3: jmp dword [0xC0000000] ; 
0x001653bb: jmp dword [0xFE140000+ecx*4] ; 
0x0016b1eb: jmp dword [eax+0x00000000] ; 
0x0017e6e3: jmp dword [eax+0x00000001] ; 
0x001640cb: jmp dword [eax+0x00FFFC76] ; 
0x0016438b: jmp dword [eax+0x00FFFC7D] ; 
0x001643ab: jmp dword [eax+0x00FFFC88] ; 
0x0016dce7: jmp dword [eax+0x00] ; 
0x00173d4f: jmp dword [eax+0x02] ; 
0x0016514b: jmp dword [eax+0x04000066] ; 
0x0016aa8b: jmp dword [eax+0x04000460] ; 
0x0016a193: jmp dword [eax+0x0A] ; 
0x00144987: jmp dword [eax+0x0D] ; 
0x000dd893: jmp dword [eax+0x0F00009F] ; 
0x00156f22: jmp dword [eax+0x0F] ; 
0x001660fb: jmp dword [eax+0x11] ; 
0x00163f7b: jmp dword [eax+0x12FFFC5B] ; 
0x00156fae: jmp dword [eax+0x12] ; 
0x00157b63: jmp dword [eax+0x13FFEF5D] ; 
0x0016a273: jmp dword [eax+0x16] ; 
0x00166193: jmp dword [eax+0x17] ; 
0x0016a2d3: jmp dword [eax+0x1B] ; 
0x00163563: jmp dword [eax+0x1F] ; 
0x00164ed3: jmp dword [eax+0x20FFFD7B] ; 
0x00163577: jmp dword [eax+0x20] ; 
0x00157016: jmp dword [eax+0x21] ; 
0x001649bb: jmp dword [eax+0x22FFFCC3] ; 
0x0015702e: jmp dword [eax+0x22] ; 
0x001637e7: jmp dword [eax+0x23] ; 
0x00165e9b: jmp dword [eax+0x240000F8] ; 
0x00166dbb: jmp dword [eax+0x24000194] ; 
0x0016785b: jmp dword [eax+0x24000254] ; 
0x0015706e: jmp dword [eax+0x24] ; 
0x00157092: jmp dword [eax+0x25] ; 
0x00163af7: jmp dword [eax+0x26] ; 
0x001570d2: jmp dword [eax+0x27] ; 
0x0015712a: jmp dword [eax+0x28] ; 
0x00167512: jmp dword [eax+0x2C] ; 
0x00168cbb: jmp dword [eax+0x2D] ; 
0x0016752a: jmp dword [eax+0x2E] ; 
0x00163da7: jmp dword [eax+0x30FFFC56] ; 
0x0016402f: jmp dword [eax+0x30FFFC72] ; 
0x001642a7: jmp dword [eax+0x30FFFC92] ; 
0x00164553: jmp dword [eax+0x30FFFC9D] ; 
0x0016470b: jmp dword [eax+0x30FFFCAA] ; 
0x00164d37: jmp dword [eax+0x30FFFCED] ; 
0x00168d9b: jmp dword [eax+0x31] ; 
0x00156027: jmp dword [eax+0x32FFEA4C] ; 
0x001577db: jmp dword [eax+0x37] ; 
0x00157817: jmp dword [eax+0x3AFFEF3D] ; 
0x00150e43: jmp dword [eax+0x3A] ; 
0x00168ef3: jmp dword [eax+0x3C] ; 
0x00157933: jmp dword [eax+0x3F] ; 
0x0015889a: jmp dword [eax+0x40FFF08B] ; 
0x0016a71b: jmp dword [eax+0x40] ; 
0x0016af93: jmp dword [eax+0x440001C2] ; 
0x00168333: jmp dword [eax+0x440002D9] ; 
0x00168843: jmp dword [eax+0x4400030C] ; 
0x0016357b: jmp dword [eax+0x45FFFC20] ; 
0x001637fb: jmp dword [eax+0x45FFFC24] ; 
0x00163e97: jmp dword [eax+0x46] ; 
0x001587d6: jmp dword [eax+0x48FFF08E] ; 
0x0016a893: jmp dword [eax+0x4D] ; 
0x00155dcf: jmp dword [eax+0x50FFE9F3] ; 
0x001640ff: jmp dword [eax+0x50FFFC5A] ; 
0x001641e7: jmp dword [eax+0x50FFFC78] ; 
0x0016670a: jmp dword [eax+0x51] ; 
0x00167813: jmp dword [eax+0x52] ; 
0x00167f3b: jmp dword [eax+0x540002AC] ; 
0x0016aafb: jmp dword [eax+0x54000463] ; 
0x00163d9f: jmp dword [eax+0x55] ; 
0x00163f67: jmp dword [eax+0x5B] ; 
0x0015631b: jmp dword [eax+0x60FFEAA7] ; 
0x001640e7: jmp dword [eax+0x60FFFC75] ; 
0x0016453f: jmp dword [eax+0x60FFFC98] ; 
0x00164b27: jmp dword [eax+0x60FFFCDF] ; 
0x001650cb: jmp dword [eax+0x63] ; 
0x00165453: jmp dword [eax+0x6400008E] ; 
0x001694c3: jmp dword [eax+0x64000372] ; 
0x00169f0b: jmp dword [eax+0x640003EA] ; 
0x0016a183: jmp dword [eax+0x64000409] ; 
0x0016515b: jmp dword [eax+0x67] ; 
0x00155fbb: jmp dword [eax+0x6BFFEA48] ; 
0x001651ab: jmp dword [eax+0x6B] ; 
0x001693eb: jmp dword [eax+0x6C] ; 
0x00164137: jmp dword [eax+0x6E] ; 
0x00163e63: jmp dword [eax+0x70FFFC57] ; 
0x00164363: jmp dword [eax+0x70FFFC93] ; 
0x00167b0b: jmp dword [eax+0x72] ; 
0x0016919b: jmp dword [eax+0x74000358] ; 
0x001640bf: jmp dword [eax+0x74] ; 
0x001640eb: jmp dword [eax+0x76] ; 
0x00166ac2: jmp dword [eax+0x7C] ; 
0x00164ee7: jmp dword [eax+0x7E] ; 
0x00167c3b: jmp dword [eax+0x7F] ; 
0x0016aeab: jmp dword [eax+eax*8+0x10440001] ; 
0x00050454: jmp dword [eax+eax+0x00] ; 
0x0017685f: jmp dword [eax+eax+0x41000000] ; 
0x0016a0db: jmp dword [eax+eax-0x614BFFFC] ; 
0x0016b397: jmp dword [eax+eax] ; 
0x00166962: jmp dword [eax+ebp*2+0x7FD40001] ; 
0x00157d0b: jmp dword [eax+ebp*2] ; 
0x0016acd3: jmp dword [eax+ebp*4+0x02] ; 
0x00167f13: jmp dword [eax+ebp*4+0x6E240002] ; 
0x0016704b: jmp dword [eax+ebp*4] ; 
0x00163bdb: jmp dword [eax+ebp+0x28D4FFFC] ; 
0x001674c2: jmp dword [eax+ebp-0x5F7BFFFE] ; 
0x00157b57: jmp dword [eax+ebx*2] ; 
0x0016713a: jmp dword [eax+ebx*8+0x3A140001] ; 
0x00165b6b: jmp dword [eax+ecx*8+0x00] ; 
0x00169c4b: jmp dword [eax+ecx*8] ; 
0x0017788f: jmp dword [eax+ecx+0x41000000] ; 
0x0016958b: jmp dword [eax+edi*2+0x03] ; 
0x001641b7: jmp dword [eax+edi*2-0x04] ; 
0x00165e83: jmp dword [eax+edi*8] ; 
0x0016a69b: jmp dword [eax+edi+0x11E40004] ; 
0x0016adcb: jmp dword [eax+edx*4] ; 
0x00169ccb: jmp dword [eax+edx*8] ; 
0x001658c3: jmp dword [eax+esi*4+0x00] ; 
0x00169a6b: jmp dword [eax+esi*4] ; 
0x00169fbb: jmp dword [eax+esi*8+0x75640003] ; 
0x00164c9b: jmp dword [eax+esi*8-0x10610004] ; 
0x00168d7b: jmp dword [eax+esi+0x2E840003] ; 
0x00168d5b: jmp dword [eax+esi] ; 
0x00158183: jmp dword [eax-0x02] ; 
0x00156ca3: jmp dword [eax-0x03] ; 
0x0012025d: jmp dword [eax-0x05] ; 
0x0016a033: jmp dword [eax-0x08] ; 
0x0016a00b: jmp dword [eax-0x0A] ; 
0x00169e43: jmp dword [eax-0x0BFFFC1E] ; 
0x001663a3: jmp dword [eax-0x0BFFFED5] ; 
0x0016473f: jmp dword [eax-0x0D00034C] ; 
0x00169fcb: jmp dword [eax-0x0E] ; 
0x00164d73: jmp dword [eax-0x0F00030F] ; 
0x001648fb: jmp dword [eax-0x0F000341] ; 
0x00164633: jmp dword [eax-0x0F00035A] ; 
0x00164107: jmp dword [eax-0x0F0003A2] ; 
0x00163ea7: jmp dword [eax-0x0F0003B5] ; 
0x00164d3f: jmp dword [eax-0x0F] ; 
0x00164c77: jmp dword [eax-0x10] ; 
0x0015b0eb: jmp dword [eax-0x12] ; 
0x00164d27: jmp dword [eax-0x15] ; 
0x00158957: jmp dword [eax-0x17000EBB] ; 
0x00158a17: jmp dword [eax-0x17000EBC] ; 
0x001692a3: jmp dword [eax-0x1BFFFC9B] ; 
0x00168603: jmp dword [eax-0x1BFFFD03] ; 
0x0016840b: jmp dword [eax-0x1BFFFD1C] ; 
0x00167913: jmp dword [eax-0x1BFFFDA0] ; 
0x0015b0af: jmp dword [eax-0x1B] ; 
0x00155c7f: jmp dword [eax-0x1E00160D] ; 
0x001637eb: jmp dword [eax-0x1F0003DD] ; 
0x001569e3: jmp dword [eax-0x1F00154E] ; 
0x0015625b: jmp dword [eax-0x1F0015B8] ; 
0x00164b2b: jmp dword [eax-0x20] ; 
0x00164a7b: jmp dword [eax-0x22] ; 
0x00167e53: jmp dword [eax-0x2BFFFD5D] ; 
0x001665ca: jmp dword [eax-0x2BFFFEBC] ; 
0x0016447b: jmp dword [eax-0x2D000369] ; 
0x0015b15b: jmp dword [eax-0x2E] ; 
0x00163cc7: jmp dword [eax-0x2F0003D9] ; 
0x00163a43: jmp dword [eax-0x2F0003DC] ; 
0x00163553: jmp dword [eax-0x2F0003E2] ; 
0x00157006: jmp dword [eax-0x2F000CE0] ; 
0x00156eee: jmp dword [eax-0x2F000CF2] ; 
0x0015b18f: jmp dword [eax-0x30] ; 
0x0016825b: jmp dword [eax-0x31] ; 
0x00159baf: jmp dword [eax-0x37000A83] ; 
0x001680ab: jmp dword [eax-0x3A] ; 
0x001690e3: jmp dword [eax-0x3BFFFCB1] ; 
0x00168c43: jmp dword [eax-0x3BFFFCD5] ; 
0x001683cb: jmp dword [eax-0x3BFFFD1F] ; 
0x00166c9b: jmp dword [eax-0x3BFFFE73] ; 
0x00166323: jmp dword [eax-0x3BFFFEDC] ; 
0x0016b0eb: jmp dword [eax-0x3BFFFF0C] ; 
0x0016336f: jmp dword [eax-0x3F0003E5] ; 
0x001570da: jmp dword [eax-0x3F000CD9] ; 
0x0015709a: jmp dword [eax-0x3F000CDB] ; 
0x00156f2a: jmp dword [eax-0x3F000CF1] ; 
0x00156ebe: jmp dword [eax-0x3F000CF4] ; 
0x001648b3: jmp dword [eax-0x3F] ; 
0x001648eb: jmp dword [eax-0x43] ; 
0x00156e43: jmp dword [eax-0x44] ; 
0x0015b0f7: jmp dword [eax-0x47000A12] ; 
0x001697cb: jmp dword [eax-0x4BFFFC70] ; 
0x001651e3: jmp dword [eax-0x4BFFFF93] ; 
0x00156a97: jmp dword [eax-0x4C] ; 
0x001646f7: jmp dword [eax-0x4D] ; 
0x00156a5b: jmp dword [eax-0x4E] ; 
0x0015b0bb: jmp dword [eax-0x4F000A1B] ; 
0x001570fa: jmp dword [eax-0x4F000CD9] ; 
0x00156fbe: jmp dword [eax-0x4F000CEE] ; 
0x00156e1b: jmp dword [eax-0x4F001345] ; 
0x001568a3: jmp dword [eax-0x4F001551] ; 
0x0016473b: jmp dword [eax-0x4F] ; 
0x0015678f: jmp dword [eax-0x53] ; 
0x00167f33: jmp dword [eax-0x54] ; 
0x00156307: jmp dword [eax-0x58] ; 
0x0016b18b: jmp dword [eax-0x5BFFFBC0] ; 
0x001698cb: jmp dword [eax-0x5BFFFC62] ; 
0x00167fbb: jmp dword [eax-0x5BFFFD4C] ; 
0x00167292: jmp dword [eax-0x5BFFFE03] ; 
0x00165cd3: jmp dword [eax-0x5BFFFF1F] ; 
0x00165593: jmp dword [eax-0x5BFFFF67] ; 
0x0016453b: jmp dword [eax-0x5F00035B] ; 
0x0016402b: jmp dword [eax-0x5F00038C] ; 
0x00167e0b: jmp dword [eax-0x60] ; 
0x001655fb: jmp dword [eax-0x61] ; 
0x00164543: jmp dword [eax-0x65] ; 
0x00166e73: jmp dword [eax-0x66] ; 
0x00164467: jmp dword [eax-0x69] ; 
0x000dd861: jmp dword [eax-0x6A] ; 
0x0016ae33: jmp dword [eax-0x6BFFFC32] ; 
0x0016964b: jmp dword [eax-0x6BFFFC83] ; 
0x00168873: jmp dword [eax-0x6BFFFCF3] ; 
0x00165213: jmp dword [eax-0x6BFFFF91] ; 
0x0016429f: jmp dword [eax-0x6F] ; 
0x001653d3: jmp dword [eax-0x73] ; 
0x0016477b: jmp dword [eax-0x7500034B] ; 
0x001643b3: jmp dword [eax-0x75] ; 
0x00166c02: jmp dword [eax-0x78] ; 
0x001580b7: jmp dword [eax-0x7C] ; 
0x00164213: jmp dword [eax-0x7D00036F] ; 
0x00163d13: jmp dword [eax-0x7D0003AB] ; 
0x00166b61: jmp dword [eax-0x7D] ; 
0x00164347: jmp dword [eax-0x7F00036C] ; 
0x00163e47: jmp dword [eax-0x7F0003A8] ; 
0x00164393: jmp dword [eax-0x80] ; 
0x000397aa: jmp dword [eax] ; 
0x0018b5d2: jmp dword [ebp+0x00000000] ; 
0x001a6163: jmp dword [ebp+0x00000002] ; 
0x0018ba6e: jmp dword [ebp+0x00000004] ; 
0x000570f8: jmp dword [ebp+0x00] ; 
0x00158456: jmp dword [ebp+0x02] ; 
0x0001898f: jmp dword [ebp+0x03] ; 
0x00177847: jmp dword [ebp+0x04000005] ; 
0x0018bf6e: jmp dword [ebp+0x07] ; 
0x00156d93: jmp dword [ebp+0x19FFF1FF] ; 
0x00163523: jmp dword [ebp+0x1F] ; 
0x00163537: jmp dword [ebp+0x20] ; 
0x0016377f: jmp dword [ebp+0x21] ; 
0x001637a7: jmp dword [ebp+0x23] ; 
0x001637b7: jmp dword [ebp+0x24] ; 
0x00163957: jmp dword [ebp+0x25D4FFFC] ; 
0x00163a13: jmp dword [ebp+0x25] ; 
0x00163c97: jmp dword [ebp+0x28] ; 
0x0001a3a8: jmp dword [ebp+0x33] ; 
0x0016512b: jmp dword [ebp+0x3A240000] ; 
0x0016358b: jmp dword [ebp+0x42FFFC1F] ; 
0x0016380b: jmp dword [ebp+0x42FFFC23] ; 
0x001637bb: jmp dword [ebp+0x60FFFC24] ; 
0x00155e9b: jmp dword [ebp+0x78FFEA3C] ; 
0x00167cd3: jmp dword [ebp+eax*4-0x5FBBFFFE] ; 
0x0016ace3: jmp dword [ebp+eax*8-0x12ABFFFE] ; 
0x00183d3f: jmp dword [ebp+eax+0x00] ; 
0x0016733a: jmp dword [ebp+eax+0x02] ; 
0x00168cd3: jmp dword [ebp+ebp+0x29340003] ; 
0x001663cb: jmp dword [ebp+ebp-0x04CBFFFF] ; 
0x001678db: jmp dword [ebp+ebx*2-0x630BFFFE] ; 
0x00164a23: jmp dword [ebp+ebx*8-0x21CB0004] ; 
0x0016677a: jmp dword [ebp+edx*2+0x01] ; 
0x0016a93b: jmp dword [ebp+edx*2+0x78A40004] ; 
0x0016615b: jmp dword [ebp+edx+0x01] ; 
0x00169513: jmp dword [ebp+esi*2+0x03] ; 
0x0016597b: jmp dword [ebp+esi*4-0x5FEC0000] ; 
0x00023624: jmp dword [ebp-0x01] ; 
0x001637ab: jmp dword [ebp-0x1A0003DD] ; 
0x00155a3b: jmp dword [ebp-0x29] ; 
0x00163c87: jmp dword [ebp-0x2A0003D9] ; 
0x00163a03: jmp dword [ebp-0x2A0003DC] ; 
0x00163513: jmp dword [ebp-0x2A0003E2] ; 
0x0005101e: jmp dword [ebp-0x3A] ; 
0x000dc95d: jmp dword [ebp-0x3B7C0007] ; 
0x0016353b: jmp dword [ebp-0x4F0003E0] ; 
0x000197f5: jmp dword [ebp-0x5F] ; 
0x00018823: jmp dword [ebp-0x75] ; 
0x00158552: jmp dword [ebp-0x7D000FFA] ; 
0x0002ecbc: jmp dword [ebp-0x7D] ; 
0x0017087f: jmp dword [ebx+0x00000000] ; 
0x001888ab: jmp dword [ebx+0x00000001] ; 
0x000176a6: jmp dword [ebx+0x00000008] ; 
0x000176b0: jmp dword [ebx+0x0000000C] ; 
0x000176c0: jmp dword [ebx+0x00000010] ; 
0x000176d0: jmp dword [ebx+0x00000014] ; 
0x000176e0: jmp dword [ebx+0x00000018] ; 
0x000176f0: jmp dword [ebx+0x0000001C] ; 
0x00017700: jmp dword [ebx+0x00000020] ; 
0x00017710: jmp dword [ebx+0x00000024] ; 
0x00017720: jmp dword [ebx+0x00000028] ; 
0x00017730: jmp dword [ebx+0x0000002C] ; 
0x0016f8cf: jmp dword [ebx+0x00] ; 
0x00166f4b: jmp dword [ebx+0x01] ; 
0x001a4f93: jmp dword [ebx+0x02] ; 
0x00169e63: jmp dword [ebx+0x03] ; 
0x001581da: jmp dword [ebx+0x06] ; 
0x0016338b: jmp dword [ebx+0x1E] ; 
0x00163ae7: jmp dword [ebx+0x26] ; 
0x00163aff: jmp dword [ebx+0x27] ; 
0x0000abf7: jmp dword [ebx+0x2E] ; 
0x00157ecb: jmp dword [ebx+0x30FFEF72] ; 
0x00158bd3: jmp dword [ebx+0x53FFF146] ; 
0x00158406: jmp dword [ebx+0x78FFF005] ; 
0x0016970b: jmp dword [ebx+eax*4+0x2A040003] ; 
0x0016af9b: jmp dword [ebx+eax*8+0x75840001] ; 
0x00164953: jmp dword [ebx+eax*8] ; 
0x001651b3: jmp dword [ebx+ebp*2+0x4BA40000] ; 
0x001691db: jmp dword [ebx+ebx*2-0x57ABFFFD] ; 
0x00163f37: jmp dword [ebx+ebx*2] ; 
0x0016740a: jmp dword [ebx+ebx] ; 
0x001681a3: jmp dword [ebx+ecx*8] ; 
0x0016a1bb: jmp dword [ebx+ecx+0x04] ; 
0x0016606b: jmp dword [ebx+ecx-0x6B6BFFFF] ; 
0x001685c3: jmp dword [ebx+edi*8+0x02] ; 
0x00168ecb: jmp dword [ebx+edi] ; 
0x0016a8eb: jmp dword [ebx+edx*2+0x04] ; 
0x0016a8e3: jmp dword [ebx+edx*2] ; 
0x00166d63: jmp dword [ebx+edx*4+0x01] ; 
0x0016612b: jmp dword [ebx+edx+0x01] ; 
0x001684db: jmp dword [ebx+esi*8-0x79BBFFFE] ; 
0x00017748: jmp dword [ebx-0x0000003C] ; 
0x00017740: jmp dword [ebx-0x000000F0] ; 
0x0015810b: jmp dword [ebx-0x06001087] ; 
0x00163617: jmp dword [ebx-0x2C0003DE] ; 
0x0016335f: jmp dword [ebx-0x3C0003E5] ; 
0x00151992: jmp dword [ebx-0x40] ; 
0x0010b119: jmp dword [ebx-0x47] ; 
0x00156a5f: jmp dword [ebx-0x4B] ; 
0x0015830a: jmp dword [ebx-0x52000FFD] ; 
0x00002533: jmp dword [ebx] ; 
0x00019353: jmp dword [ecx+0x00000000] ; 
0x001859e2: jmp dword [ecx+0x00000005] ; 
0x0016e3b7: jmp dword [ecx+0x00000008] ; 
0x00055cd0: jmp dword [ecx+0x00] ; 
0x0017dfef: jmp dword [ecx+0x01] ; 
0x00158356: jmp dword [ecx+0x04] ; 
0x00157f33: jmp dword [ecx+0x0EFFEF76] ; 
0x001636c3: jmp dword [ecx+0x21D4FFFC] ; 
0x00001f67: jmp dword [ecx+0x7F] ; 
0x0016a733: jmp dword [ecx+eax*2+0x3E740004] ; 
0x0016abbb: jmp dword [ecx+eax*2-0x4B2BFFFF] ; 
0x001652cb: jmp dword [ecx+eax*4+0x00] ; 
0x0016506b: jmp dword [ecx+eax*4+0x2A020002] ; 
0x001652c3: jmp dword [ecx+eax*4] ; 
0x0018d892: jmp dword [ecx+eax+0x41000000] ; 
0x0016bc77: jmp dword [ecx+eax] ; 
0x00165d7b: jmp dword [ecx+ebp*8-0x60FC0000] ; 
0x00163bef: jmp dword [ecx+ebp+0x29D4FFFC] ; 
0x000a197d: jmp dword [ecx+ebp-0x02] ; 
0x00163beb: jmp dword [ecx+ebp-0x04] ; 
0x00168323: jmp dword [ecx+ebx*8+0x02] ; 
0x0016907b: jmp dword [ecx+ecx*2] ; 
0x00168163: jmp dword [ecx+ecx*8+0x02940002] ; 
0x00167bc3: jmp dword [ecx+edi*2+0x02] ; 
0x001641ab: jmp dword [ecx+edi*2-0x04] ; 
0x00167bbb: jmp dword [ecx+edi*2] ; 
0x00168573: jmp dword [ecx+edi*8+0x02] ; 
0x00166ce3: jmp dword [ecx+edx*4+0x01] ; 
0x0016507b: jmp dword [ecx+edx*4+0x02] ; 
0x00166cf3: jmp dword [ecx+edx*4+0x1A040001] ; 
0x001688e3: jmp dword [ecx+edx-0x26EBFFFD] ; 
0x0016756a: jmp dword [ecx+esi] ; 
0x00164bdf: jmp dword [ecx-0x04] ; 
0x00164bf3: jmp dword [ecx-0x1DDB0004] ; 
0x001582a6: jmp dword [ecx-0x54000FFE] ; 
0x001522e3: jmp dword [ecx-0x69] ; 
0x0004f864: jmp dword [ecx-0x75] ; 
0x000234df: jmp dword [ecx] ; 
0x00173c9b: jmp dword [edi+0x00000000] ; 
0x00178d93: jmp dword [edi+0x00000001] ; 
0x0017bb83: jmp dword [edi+0x00000003] ; 
0x0016cb83: jmp dword [edi+0x00000005] ; 
0x0016c677: jmp dword [edi+0x0000000A] ; 
0x0016fba3: jmp dword [edi+0x00] ; 
0x001a002b: jmp dword [edi+0x01] ; 
0x0017c2bb: jmp dword [edi+0x02] ; 
0x001582f2: jmp dword [edi+0x03] ; 
0x0015823e: jmp dword [edi+0x05] ; 
0x00192c2f: jmp dword [edi+0x07] ; 
0x0018c2aa: jmp dword [edi+0x08] ; 
0x00158c4b: jmp dword [edi+0x09FFF149] ; 
0x00045e77: jmp dword [edi+0x0F] ; 
0x001553f7: jmp dword [edi+0x12] ; 
0x0015811f: jmp dword [edi+0x14FFEF76] ; 
0x00158c2b: jmp dword [edi+0x29FFF149] ; 
0x00158bfb: jmp dword [edi+0x46] ; 
0x00157aab: jmp dword [edi+0x62] ; 
0x00167eeb: jmp dword [edi+0x6D040002] ; 
0x000e8fe7: jmp dword [edi+0x6D] ; 
0x00158ca7: jmp dword [edi+ebp*2-0x0F] ; 
0x00164c8f: jmp dword [edi+ebp*8-0x0FFB0004] ; 
0x0016718a: jmp dword [edi+ebp*8] ; 
0x00167532: jmp dword [edi+ebp+0x02] ; 
0x001655e3: jmp dword [edi+ebx*4] ; 
0x00165c6b: jmp dword [edi+ebx*8+0x00] ; 
0x00163467: jmp dword [edi+ebx+0x1FD4FFFC] ; 
0x0016628b: jmp dword [edi+ebx-0x2FABFFFF] ; 
0x001654bb: jmp dword [edi+ecx*4+0x02F40000] ; 
0x0009275e: jmp dword [edi+ecx] ; 
0x001652ab: jmp dword [edi+edi*2+0x00] ; 
0x00054e90: jmp dword [edi+edi*2] ; 
0x00165f3b: jmp dword [edi+edi*8+0x00] ; 
0x0016983b: jmp dword [edi+edx*4+0x03] ; 
0x00164437: jmp dword [edi+edx*4] ; 
0x00169563: jmp dword [edi+esi*2+0x03] ; 
0x00168e6b: jmp dword [edi+esi+0x03] ; 
0x0016a67b: jmp dword [edi+esi+0x0EE40004] ; 
0x001645db: jmp dword [edi-0x04] ; 
0x00158372: jmp dword [edi-0x4E000FFC] ; 
0x00158c47: jmp dword [edi-0x58000EB7] ; 
0x000458ef: jmp dword [edi-0x75] ; 
0x00154a60: jmp dword [edi] ; 
0x0017c5b7: jmp dword [edx+0x00000000] ; 
0x0017c7f7: jmp dword [edx+0x00000001] ; 
0x0019db7f: jmp dword [edx+0x00000002] ; 
0x001a8dff: jmp dword [edx+0x00000004] ; 
0x0016e377: jmp dword [edx+0x0000000B] ; 
0x001754cb: jmp dword [edx+0x00] ; 
0x0018fdc2: jmp dword [edx+0x01] ; 
0x0016acab: jmp dword [edx+0x02] ; 
0x00168aeb: jmp dword [edx+0x03] ; 
0x0015819e: jmp dword [edx+0x07] ; 
0x000dd89f: jmp dword [edx+0x0F00009F] ; 
0x001644ff: jmp dword [edx+0x12FFFCA4] ; 
0x00163593: jmp dword [edx+0x1F] ; 
0x00163813: jmp dword [edx+0x23] ; 
0x0016359b: jmp dword [edx+0x3FFFFC1F] ; 
0x0016381b: jmp dword [edx+0x3FFFFC23] ; 
0x00163d0b: jmp dword [edx+0x57] ; 
0x0016485b: jmp dword [edx+eax*8] ; 
0x00173c1f: jmp dword [edx+eax] ; 
0x0016ad8b: jmp dword [edx+ebp*2] ; 
0x00168c03: jmp dword [edx+ebp+0x23540003] ; 
0x001691c3: jmp dword [edx+ebx*2] ; 
0x00169873: jmp dword [edx+ebx*4+0x6BA40003] ; 
0x00165c0b: jmp dword [edx+ebx*8+0x00] ; 
0x00166c3b: jmp dword [edx+ecx*4+0x03D40001] ; 
0x0016adab: jmp dword [edx+ecx*4-0x073BFFFD] ; 
0x0016817b: jmp dword [edx+ecx*8+0x02] ; 
0x00165ecb: jmp dword [edx+edi*8+0x00] ; 
0x001685a3: jmp dword [edx+edi*8-0x656BFFFE] ; 
0x00164277: jmp dword [edx+edx*4-0x04] ; 
0x00164263: jmp dword [edx+edx*4] ; 
0x001636d3: jmp dword [edx-0x04] ; 
0x00164803: jmp dword [edx-0x0D00033F] ; 
0x00164647: jmp dword [edx-0x0D00034D] ; 
0x00164bfb: jmp dword [edx-0x1EA50004] ; 
0x00164987: jmp dword [edx-0x3D] ; 
0x001645ff: jmp dword [edx-0x5A] ; 
0x00164507: jmp dword [edx-0x5B] ; 
0x0016420b: jmp dword [edx-0x6D] ; 
0x00152330: jmp dword [edx-0x71] ; 
0x0015444f: jmp dword [edx-0x78] ; 
0x000422cd: jmp dword [edx] ; 
0x0017876b: jmp dword [esi+0x00000000] ; 
0x0018f45a: jmp dword [esi+0x00000006] ; 
0x0015918d: jmp dword [esi+0x00] ; 
0x0018b8d2: jmp dword [esi+0x01] ; 
0x0016b813: jmp dword [esi+0x02] ; 
0x00044ea1: jmp dword [esi+0x0F] ; 
0x00163ad7: jmp dword [esi+0x26] ; 
0x00029df8: jmp dword [esi+0x39] ; 
0x00156d8a: jmp dword [esi+0x3EFFF200] ; 
0x00169e93: jmp dword [esi+0x5B040003] ; 
0x00169043: jmp dword [esi+eax*2+0x64C40003] ; 
0x00168773: jmp dword [esi+eax+0x03] ; 
0x00169a1b: jmp dword [esi+ebp*4] ; 
0x001668d2: jmp dword [esi+ebx*2+0x01] ; 
0x00164ab3: jmp dword [esi+ebx*8-0x20AB0004] ; 
0x00163447: jmp dword [esi+ebx] ; 
0x0016543b: jmp dword [esi+ecx*4+0x00] ; 
0x0016888b: jmp dword [esi+ecx-0x324BFFFD] ; 
0x00165ad3: jmp dword [esi+edi*4] ; 
0x00168623: jmp dword [esi+edi*8+0x02] ; 
0x0016767a: jmp dword [esi+edi] ; 
0x0016a963: jmp dword [esi+edx*2+0x7E040004] ; 
0x00163d77: jmp dword [esi+edx*2-0x04] ; 
0x00163d63: jmp dword [esi+edx*2] ; 
0x00166a4a: jmp dword [esi+esi*2-0x381BFFFF] ; 
0x0015582f: jmp dword [esi-0x01] ; 
0x00164d63: jmp dword [esi-0x0900030F] ; 
0x00164623: jmp dword [esi-0x0900035A] ; 
0x000c049a: jmp dword [esi-0x09] ; 
0x00164c67: jmp dword [esi-0x10] ; 
0x0016334f: jmp dword [esi-0x390003E5] ; 
0x001648a3: jmp dword [esi-0x3F] ; 
0x001591bd: jmp dword [esi-0x410068FF] ; 
0x001647df: jmp dword [esi-0x4C] ; 
0x001646e7: jmp dword [esi-0x4D] ; 
0x001649ab: jmp dword [esi-0x4F00033D] ; 
0x0016476b: jmp dword [esi-0x6F00034B] ; 
0x0016452b: jmp dword [esi-0x6F00035B] ; 
0x00017745: jmp dword [esi-0x70] ; 
0x000025d1: jmp dword [esi-0x74A6AAF1] ; 
0x000443f0: jmp dword [esi-0x77] ; 
0x000486d8: jmp dword [esi-0x7B] ; 
0x000277dc: jmp dword [esi-0x7D] ; 
0x00108103: jmp dword [esi-0x7F] ; 
0x00072569: jmp dword [esi] ; 
0x00168b2b: jmp dword [esp+0x03] ; 
0x00168b3b: jmp dword [esp+0x0B040003] ; 
0x001650fb: jmp dword [esp+0x38F40000] ; 
0x00167cc3: jmp dword [esp+eax*4-0x622BFFFE] ; 
0x0016971b: jmp dword [esp+eax*4] ; 
0x00168053: jmp dword [esp+eax*8+0x02] ; 
0x0016a123: jmp dword [esp+eax+0x04] ; 
0x0016731a: jmp dword [esp+eax-0x2B9BFFFE] ; 
0x00165dc3: jmp dword [esp+ebp*8+0x00] ; 
0x00167172: jmp dword [esp+ebp*8] ; 
0x00168c63: jmp dword [esp+ebp] ; 
0x00166eab: jmp dword [esp+ebx*4+0x47740001] ; 
0x0016622b: jmp dword [esp+ebx-0x34FBFFFF] ; 
0x001666b2: jmp dword [esp+ecx*2+0x41D40001] ; 
0x00167d43: jmp dword [esp+ecx*4] ; 
0x0016a1c3: jmp dword [esp+ecx+0x04] ; 
0x0018feb2: jmp dword [esp+ecx] ; 
0x00166582: jmp dword [esp+edi+0x25A40001] ; 
0x0016a8fb: jmp dword [esp+edx*2+0x04] ; 
0x00165553: jmp dword [esp+edx*4+0x00] ; 
0x00164073: jmp dword [esp+esi*2+0x7554FFFC] ; 
0x00163ffb: jmp dword [esp+esi*2-0x04] ; 
0x00163fe7: jmp dword [esp+esi*2] ; 
0x0016630b: jmp dword [esp] ; 
0x00166b60: jmp dword [fs:eax-0x7D] ; 
0x00029cf2: jmp eax ; 
0x00022c6e: jmp ebp ; 
0x000559e1: jmp ebx ; 
0x00019234: jmp ecx ; 
0x00009517: jmp edi ; 
0x00001a6f: jmp edx ; 
0x00073691: jmp esi ; 
0x00002aa9: jmp esp ; 
0x00152596: jmp word [0x3B8AFD6B] ; 
0x000fe6be: jmp word [esi-0x70] ; 
0x001674c1: lahf  ; jmp dword [eax+ebp-0x5F7BFFFE] ; 
0x00036fb1: lahf  ; ret  ; 
0x00047755: lahf  ; retn 0x7CD9 ; 
0x00151b25: lahf  ; retn 0x871E ; 
0x00053b83: lahf  ; retn 0xB60F ; 
0x00053008: lahf  ; retn 0xD129 ; 
0x00052e98: lahf  ; retn 0xD329 ; 
0x000e3170: lahf  ; retn 0xE883 ; 
0x00090798: lahf  ; retn 0xEA81 ; 
0x000660e3: lds ebp,  [ecx] ; retn 0x7D8D ; 
0x0011e093: lds ecx,  [ebp-0x7CFFD98C] ; ret  ; 
0x000abdd2: lds ecx,  [ebx-0x0000D775] ; jmp dword [ebp-0x75] ; 
0x00068029: lds ecx,  [ebx-0x14D7DBBC] ; ret  ; 
0x0017c80d: lds ecx,  [edx] ; ret  ; 
0x000e2c77: lds edi,  [eax+0x000000C0] ; call dword [0x00000010] ; 
0x0005c3c5: lds edi, ebx ; jmp dword [esi-0x70] ; 
0x00052d3c: lds edi, edi ; call dword [eax-0x055F7A3A] ; 
0x0005c6dd: lds edi, edx ; call dword [eax+0x56] ; 
0x000e4f66: lds edi, edx ; call dword [eax+0x6A] ; 
0x000fde0e: lds edi, edx ; call dword [eax-0x18] ; 
0x000fc865: lds edi, edx ; call dword [eax-0x73] ; 
0x000e49d6: lds edi, edx ; call dword [edx+0x50] ; 
0x0002c1a3: lds edi, esi ; jmp dword [esi-0x70] ; 
0x00152f69: lds esi,  [eax+ebx*8] ; ret  ; 
0x0018f7ed: lds esi, ebx ; jmp dword [eax+eax] ; 
0x0018f79d: lds esi, ebx ; jmp dword [eax] ; 
0x000e8831: lds esi, ebx ; jmp dword [esi-0x70] ; 
0x0018f781: lds esi, ebx ; jmp dword [esi] ; 
0x0018f949: lds esi, ebx ; jmp esi ; 
0x00168841: lds esi, edi ; jmp dword [eax+0x4400030C] ; 
0x001672b9: lds esi, edx ; jmp dword [eax] ; 
0x0011ee17: lds esi, esi ; call dword [eax-0x18] ; 
0x000f5c1a: lds esp, edi ; ret  ; 
0x00023fab: lea eax, dword [eax+0x000010C0] ; ret  ; 
0x000b1c57: lea eax, dword [eax+eax-0x01] ; ret  ; 
0x0008fcb3: lea eax, dword [eax+ecx+0x10] ; ret  ; 
0x0008fcc3: lea eax, dword [eax+ecx+0x20] ; ret  ; 
0x0008fcd3: lea eax, dword [eax+ecx+0x30] ; ret  ; 
0x000900d3: lea eax, dword [eax+edx+0x10] ; ret  ; 
0x000900e3: lea eax, dword [eax+edx+0x20] ; ret  ; 
0x000900b3: lea eax, dword [eax+edx-0x10] ; ret  ; 
0x0001879a: lea eax, dword [eax-0x00053290] ; ret  ; 
0x000187ba: lea eax, dword [eax-0x00053298] ; ret  ; 
0x00141060: lea eax, dword [ecx+0x01] ; ret  ; 
0x00141070: lea eax, dword [ecx+0x02] ; ret  ; 
0x00141080: lea eax, dword [ecx+0x03] ; ret  ; 
0x00141008: lea eax, dword [ecx+0x04] ; ret  ; 
0x00141090: lea eax, dword [ecx+0x05] ; ret  ; 
0x001410a0: lea eax, dword [ecx+0x06] ; ret  ; 
0x001410b0: lea eax, dword [ecx+0x07] ; ret  ; 
0x00141032: lea eax, dword [ecx+0x08] ; ret  ; 
0x001410c0: lea eax, dword [ecx+0x09] ; ret  ; 
0x001410d0: lea eax, dword [ecx+0x0A] ; ret  ; 
0x001410e0: lea eax, dword [ecx+0x0B] ; ret  ; 
0x0014105b: lea eax, dword [ecx+0x0C] ; ret  ; 
0x001410f0: lea eax, dword [ecx+0x0D] ; ret  ; 
0x00141100: lea eax, dword [ecx+0x0E] ; ret  ; 
0x00141110: lea eax, dword [ecx+0x0F] ; ret  ; 
0x0008fcf9: lea eax, dword [ecx+eax+0x10] ; ret  ; 
0x0008fd0a: lea eax, dword [ecx+eax+0x20] ; ret  ; 
0x0008fd1a: lea eax, dword [ecx+eax+0x30] ; ret  ; 
0x0016d947: lea eax, dword [ecx] ; ret  ; 
0x0010fe86: lea eax, dword [edi+edi*8-0x01] ; jmp dword [ebp-0x75] ; 
0x00084046: lea eax, dword [edx+0x01] ; ret  ; 
0x0008405c: lea eax, dword [edx+0x02] ; ret  ; 
0x00084064: lea eax, dword [edx+0x03] ; ret  ; 
0x0008407a: lea eax, dword [edx+0x04] ; ret  ; 
0x0008408c: lea eax, dword [edx+0x05] ; ret  ; 
0x0008409a: lea eax, dword [edx+0x06] ; ret  ; 
0x000840a8: lea eax, dword [edx+0x07] ; ret  ; 
0x000840be: lea eax, dword [edx+0x08] ; ret  ; 
0x000840e0: lea eax, dword [edx+0x09] ; ret  ; 
0x000840fe: lea eax, dword [edx+0x0A] ; ret  ; 
0x0008411e: lea eax, dword [edx+0x0B] ; ret  ; 
0x00084142: lea eax, dword [edx+0x0C] ; ret  ; 
0x00084162: lea eax, dword [edx+0x0D] ; ret  ; 
0x00084182: lea eax, dword [edx+0x0E] ; ret  ; 
0x00084198: lea eax, dword [edx+0x0F] ; ret  ; 
0x00101fbb: lea eax, dword [edx+eax+0x08] ; ret  ; 
0x000900aa: lea eax, dword [edx+eax+0x30] ; ret  ; 
0x0003f0e8: lea eax, dword [edx-0x000565EB] ; ret  ; 
0x00090a80: lea eax, dword [edx-0x0006F6F0] ; ret  ; 
0x00090e00: lea eax, dword [edx-0x0006F9B0] ; ret  ; 
0x00090a20: lea eax, dword [edx-0x0006FB90] ; ret  ; 
0x000756a0: lea eax, dword [edx-0x00070880] ; ret  ; 
0x00079196: lea eax, dword [edx-0x00070BA0] ; ret  ; 
0x0007e166: lea eax, dword [edx-0x00071340] ; ret  ; 
0x00076a16: lea eax, dword [edx-0x000718B0] ; ret  ; 
0x000757d2: lea eax, dword [edx-0x00071EE0] ; ret  ; 
0x00074d12: lea eax, dword [edx-0x000722C0] ; ret  ; 
0x000755b2: lea eax, dword [edx-0x000725E0] ; ret  ; 
0x000910ef: lea eax, dword [edx-0x00074030] ; ret  ; 
0x00075d60: lea eax, dword [edx-0x00074160] ; ret  ; 
0x000759c0: lea eax, dword [edx-0x000742A0] ; ret  ; 
0x00075090: lea eax, dword [edx-0x00074410] ; ret  ; 
0x0007758b: lea eax, dword [edx-0x00074990] ; ret  ; 
0x000774eb: lea eax, dword [edx-0x000749C0] ; ret  ; 
0x0007753b: lea eax, dword [edx-0x00074E90] ; ret  ; 
0x0007749b: lea eax, dword [edx-0x00074EC0] ; ret  ; 
0x00076bff: lea eax, dword [edx-0x00075A50] ; ret  ; 
0x0007573b: lea eax, dword [edx-0x00075D90] ; ret  ; 
0x00074f1b: lea eax, dword [edx-0x00076020] ; ret  ; 
0x0007714d: lea eax, dword [edx-0x0007F010] ; ret  ; 
0x00076f3d: lea eax, dword [edx-0x000822E0] ; ret  ; 
0x000f4ced: lea eax, dword [edx-0x000822F0] ; ret  ; 
0x000770ad: lea eax, dword [edx-0x000832D0] ; ret  ; 
0x000f4d4d: lea eax, dword [edx-0x000832E0] ; ret  ; 
0x0007765d: lea eax, dword [edx-0x000842B0] ; ret  ; 
0x000f4c8d: lea eax, dword [edx-0x000842C0] ; ret  ; 
0x000771e2: lea eax, dword [edx-0x0008BF90] ; ret  ; 
0x00076ff2: lea eax, dword [edx-0x0008C510] ; ret  ; 
0x000f4d92: lea eax, dword [edx-0x0008C520] ; ret  ; 
0x00090b40: lea eax, dword [edx-0x00111BF0] ; ret  ; 
0x00090a50: lea eax, dword [edx-0x00112920] ; ret  ; 
0x000791a4: lea eax, dword [edx-0x00122120] ; ret  ; 
0x0007e16d: lea eax, dword [edx-0x001221F0] ; ret  ; 
0x0007e174: lea eax, dword [edx-0x00122590] ; ret  ; 
0x00076a24: lea eax, dword [edx-0x001228E0] ; ret  ; 
0x000756eb: lea eax, dword [edx-0x001261D0] ; ret  ; 
0x00074b1b: lea eax, dword [edx-0x001284D0] ; ret  ; 
0x000773ab: lea eax, dword [edx-0x0012DE60] ; ret  ; 
0x000772cb: lea eax, dword [edx-0x0012F6D0] ; ret  ; 
0x0007578b: lea eax, dword [edx-0x00132240] ; ret  ; 
0x00074fcb: lea eax, dword [edx-0x00133A90] ; ret  ; 
0x0007919d: lea eax, dword [edx-0x00138E50] ; ret  ; 
0x00076a1d: lea eax, dword [edx-0x0013B5D0] ; ret  ; 
0x001582a0: lea eax, dword [edx] ; call dword [edi-0x5E000FFE] ; 
0x00084034: lea eax, dword [edx] ; ret  ; 
0x0002340c: lea eax, dword [esi+edi*8-0x01] ; call dword [eax-0x01] ; 
0x00165d11: lea ebp, ebp ; jmp eax ; 
0x0016e5e5: lea ebp, ebx ; call dword [0x41000000+edx] ; 
0x0017e399: lea ebp, edi ; call dword [eax+0x00] ; 
0x0017e33d: lea ebp, edi ; call dword [eax+eax+0x00] ; 
0x0017e365: lea ebp, edi ; jmp dword [edx] ; 
0x000f420e: lea ebx, dword [0x00000002+ebx*8] ; call dword [0x00000010] ; 
0x000e5880: lea ebx, dword [edi-0x00054A33] ; call dword [0x00000010] ; 
0x000f4507: lea ebx, dword [edx+eax*4] ; call dword [edi+0x00002920] ; 
0x000d4f5d: lea ebx, dword [esp+0x0C] ; call dword [0x00000010] ; 
0x00074ffe: lea ecx, dword [edx+ecx*8+0x0B] ; jmp ecx ; 
0x000444ae: lea edi, dword [ebx+edi*8-0x01] ; call dword [eax+0x50] ; 
0x00043412: lea edi, dword [ebx+edi*8-0x01] ; call dword [eax+0x57] ; 
0x0004457b: lea edi, dword [ebx+edi*8-0x01] ; call dword [ecx+0x51] ; 
0x000445a7: lea edi, dword [ebx+edi*8-0x01] ; call dword [edx+0x52] ; 
0x0011d379: lea edi, dword [edi+0x00000000] ; call ecx ; 
0x00018399: lea edi, dword [edi+0x00000000] ; rep ret  ; 
0x001020e5: lea edi, dword [edi+edi*8-0x01] ; jmp dword [ebp-0x7D] ; 
0x0016afd1: lea edi, ebp ; call dword [eax+0x740001F7] ; 
0x0016aa21: lea edi, ebx ; jmp dword [0x8EC40004+ebx*2] ; 
0x001101f6: lea edi, edx ; call dword [eax+0x55] ; 
0x000ac3dc: lea edi, esp ; call dword [eax+0x53565755] ; 
0x00055602: lea esi, dword [ebx+edi*8-0x01] ; jmp dword [0x00008000] ; 
0x0006174f: lea esi, dword [ecx-0x05] ; jmp dword [esi-0x70] ; 
0x00002f82: lea esi, dword [edi] ; retn 0x793B ; 
0x00062c12: lea esi, dword [esi+0x00000000] ; rep ret  ; 
0x00101d7c: lea esi, dword [esi+0x00] ; rep ret  ; 
0x0013e35c: lea esi, dword [esi+0x00] ; ret  ; 
0x00158899: lea esi, eax ; jmp dword [eax+0x40FFF08B] ; 
0x001587d5: lea esi, eax ; jmp dword [eax+0x48FFF08E] ; 
0x0019bfe1: lea esi, ebp ; call dword [eax+eax+0x00] ; 
0x00194071: lea esi, esp ; jmp dword [ebp+0x00] ; 
0x00167899: lea esi, esp ; jmp esp ; 
0x00106b69: leave  ; call edi ; 
0x0002bd87: leave  ; ret  ; 
0x000816b8: les eax,  [0x5B5F0000] ; ret  ; 
0x0002cfc0: les eax,  [eax+eax+0x5E5B0000] ; ret  ; 
0x000f25f2: les eax,  [ebp+0x390B74D2] ; retn 0x0F7E ; 
0x0013944a: les eax,  [ebx+ebx*2] ; ret  ; 
0x000796bc: les eax,  [ecx+ecx*4] ; ret  ; 
0x001921bc: les eax,  [ecx-0x0C] ; jmp dword [eax+eax] ; 
0x000d5068: les ebp,  [eax+0x5B] ; ret  ; 
0x001665c8: les ebp,  [eax+esi*8] ; jmp dword [eax-0x2BFFFEBC] ; 
0x0011879e: les ebp,  [ecx+ecx*4] ; retn 0xD889 ; 
0x0007c5b1: les ebp,  [ecx] ; ret  ; 
0x0016f079: les ebp, ebx ; call dword [0x00000000] ; 
0x0016f051: les ebp, ebx ; call dword [eax] ; 
0x0016f08d: les ebp, ebx ; call dword [ecx] ; 
0x0016f065: les ebp, ebx ; jmp dword [ebx] ; 
0x0016b1e9: les ebp, edx ; jmp dword [eax+0x00000000] ; 
0x00166b38: les ebp, esp ; call dword [eax-0x7F] ; 
0x000abc5c: les ebx,  [eax+0x5B000000] ; ret  ; 
0x0011336a: les ebx,  [eax+0x5F000000] ; ret  ; 
0x00157d48: les ebx,  [eax-0x11] ; call dword [ebp+0x58] ; 
0x000acc45: les ebx,  [eax] ; ret  ; 
0x0011cef2: les ebx,  [ebx+esi*8] ; ret  ; 
0x001682e8: les ebx,  [edi+esi*8] ; call dword [eax-0x2C] ; 
0x00166538: les ebx,  [edi] ; call esp ; 
0x000c1df4: les ecx,  [0x89C674C0+eax*4] ; ret  ; 
0x0001aec4: les ecx,  [0xE67B4081+ecx*4] ; call dword [eax-0x73] ; 
0x0002e499: les ecx,  [0xEC2F3081+ecx*4] ; call dword [eax-0x77] ; 
0x000a0c9a: les ecx,  [eax+0x5B] ; ret  ; 
0x00173e8c: les ecx,  [eax+eax-0x12F6B000] ; jmp dword [esi] ; 
0x0019251c: les ecx,  [eax-0x0C] ; jmp dword [esi] ; 
0x0002b3e6: les ecx,  [eax] ; ret  ; 
0x00064fbe: les ecx,  [ebp-0x0523A37D] ; call dword [eax-0x73] ; 
0x00183f8c: les ecx,  [ebp-0x417FFFFF] ; call eax ; 
0x00167e08: les ecx,  [ebx-0x0A] ; jmp dword [eax-0x60] ; 
0x0009e73d: les ecx,  [ecx+ebp] ; ret  ; 
0x000fc41a: les ecx,  [ecx+ebp] ; retn 0xC283 ; 
0x00079705: les ecx,  [ecx+ebp] ; retn 0xE801 ; 
0x00169510: les ecx,  [ecx+edi*8] ; jmp dword [ebp+esi*2+0x03] ; 
0x00166490: les ecx,  [edi] ; call dword [esp+esi+0x0FE40001] ; 
0x00169de0: les ecx,  [edx-0x06] ; call dword [eax-0x22] ; 
0x001683d0: les ecx,  [edx-0x09] ; jmp eax ; 
0x0011c784: les edi,  [eax+0x5B] ; ret  ; 
0x001677f8: les edi,  [eax-0x0C] ; call esp ; 
0x00167f30: les edi,  [ebx-0x0A] ; jmp dword [eax-0x54] ; 
0x001690e8: les edi,  [edi-0x08] ; call dword [eax+edx*2] ; 
0x00165c68: les edi,  [edi-0x13] ; jmp dword [edi+ebx*8+0x00] ; 
0x001838c9: les edi, ebx ; call esp ; 
0x0005c4b4: les edi, ebx ; jmp dword [esi-0x70] ; 
0x000714f5: les edi, edi ; call dword [eax+0x0026B48D] ; 
0x000744cb: les edi, edx ; call dword [eax+0x6A] ; 
0x000f22f3: les edi, edx ; call dword [eax-0x75] ; 
0x000fbff6: les edi, edx ; call dword [edx+0x50] ; 
0x0002faf1: les edx,  [0x5E5B0646+ecx*4] ; ret  ; 
0x000ca1bd: les edx,  [eax] ; ret  ; 
0x000deeac: les edx,  [ebx+ebx*2+0x5E] ; ret  ; 
0x000ac39b: les edx,  [ebx+ebx*2] ; ret  ; 
0x001120b4: les edx,  [ebx+edx*2] ; call dword [eax+0x10] ; 
0x001093c2: les edx,  [ebx+edx*2] ; call dword [edx+0x10] ; 
0x0011e9b3: les edx,  [ecx+ecx*4] ; retn 0x895B ; 
0x0019ff6c: les edx,  [esi+esi*8] ; call dword [edx] ; 
0x00165bc0: les edx,  [esi-0x13] ; jmp esp ; 
0x00111d85: les esi,  [ebx+ebx*2+0x5F] ; ret  ; 
0x00169fb8: les esi,  [ebx-0x06] ; jmp dword [eax+esi*8+0x75640003] ; 
0x001876bc: les esi,  [ecx-0x0F] ; jmp dword [edi+0x00] ; 
0x001641b4: les esi,  [edi-0x04] ; jmp dword [eax+edi*2-0x04] ; 
0x0019668c: les esi,  [edx+eax-0x0B335000] ; call ebp ; 
0x00167bb8: les esi,  [edx-0x0B] ; jmp dword [ecx+edi*2] ; 
0x00167d41: les esi, ebp ; jmp dword [esp+ecx*4] ; 
0x001675c9: les esi, ebx ; call dword [eax] ; 
0x0018f759: les esi, ebx ; jmp dword [eax+eax] ; 
0x001a7351: les esi, esi ; jmp dword [edx+0x00] ; 
0x00167a79: les esi, esp ; call dword [esp+ebp*2+0x02] ; 
0x00167a49: les esi, esp ; call eax ; 
0x00167a51: les esi, esp ; jmp esp ; 
0x0002d091: les esp,  [eax+eax+0x5F5B0000] ; ret  ; 
0x00165c20: les esp,  [ebp-0x13] ; call dword [eax-0x25] ; 
0x000d5301: les esp,  [ebx+ebx*2+0x5E] ; ret  ; 
0x00165bf8: les esp,  [ebx-0x13] ; call dword [edx+ebx*8] ; 
0x00165610: les esp,  [ebx-0x14] ; call eax ; 
0x000b8d9e: lldt word [ebx-0x77] ; ret  ; 
0x0015834e: lock dec dword [ebp+0x04] ; call dword [edi+0x04] ; 
0x0015838a: lock dec dword [ebx+0x02] ; call ebp ; 
0x0010d1a6: lock dec dword [ebx-0x0000D77D] ; jmp dword [ebp-0x75] ; 
0x000b4194: lock dec dword [ebx-0x00011F7B] ; call dword [edx+0x6A] ; 
0x000b72d4: lock dec dword [ebx-0x00012F7B] ; call dword [edx+0x6A] ; 
0x0015822e: lock dec dword [ecx+0x05] ; call dword [ebx+0x05] ; 
0x001665c2: lock dec dword [ecx+eax*2+0x2CC40001] ; jmp dword [eax-0x2BFFFEBC] ; 
0x0011474f: lock dec dword [ecx-0x763E760E] ; ret  ; 
0x00158196: lock dec dword [edx+0x07] ; call dword [esi+0x07] ; 
0x001582e6: lock inc dword [ebp+0x03] ; call dword [ecx+0x03] ; 
0x0010abd5: lock inc dword [ebx+0x5E5B14C4] ; ret  ; 
0x001669ea: lock inc dword [edx+esi*2-0x484BFFFF] ; jmp dword [eax] ; 
0x0018f20d: lodsb  ; call dword [eax+eax+0x00] ; 
0x0011d5f3: lodsb  ; call dword [ebx+0x000001E8] ; 
0x0011d221: lodsb  ; call dword [ebx+0x000001F0] ; 
0x0011d2cb: lodsb  ; call dword [esi+0x000001F0] ; 
0x000ec9af: lodsb  ; rep ret  ; 
0x0016499c: lodsb  ; ret  ; 
0x0018f34d: lodsd  ; jmp dword [0x00000000] ; 
0x0018f379: lodsd  ; jmp dword [edi] ; 
0x0003da5e: lodsd  ; ret  ; 
0x00090841: lsl edi, word [edi+eax*4-0x0005ACDC] ; jmp edi ; 
0x000907f9: lsl edi, word [edi+ecx*4-0x0005AD1C] ; jmp edi ; 
0x001a9c09: maskmovq mm7, mm7 ; ret  ; 
0x00087f9d: maxps xmm3,  [esi+0x5B] ; ret  ; 
0x00151dee: mov ah, 0x13 ; ret  ; 
0x0018d2dc: mov ah, 0x15 ; jmp dword [edx] ; 
0x001665b8: mov ah, 0x2A ; call dword [eax] ; 
0x00166648: mov ah, 0x32 ; call esp ; 
0x000635d5: mov ah, 0x50 ; call dword [eax+0x0C] ; 
0x001668f0: mov ah, 0x73 ; call eax ; 
0x0007d2ca: mov ah, 0x83 ; retn 0x3901 ; 
0x00026e34: mov ah, 0x83 ; retn 0x5201 ; 
0x001587ac: mov ah, 0x86 ; call esi ; 
0x0002603e: mov ah, 0x89 ; ret  ; 
0x00152290: mov ah, 0xA5 ; ret  ; 
0x0018f20c: mov ah, 0xAC ; call dword [eax+eax+0x00] ; 
0x00167198: mov ah, 0xAE ; call eax ; 
0x001669f0: mov ah, 0xB7 ; jmp dword [eax] ; 
0x00167240: mov ah, 0xBD ; jmp eax ; 
0x001672a0: mov ah, 0xC2 ; jmp esp ; 
0x000024fb: mov ah, 0xC6 ; ret  ; 
0x001672f0: mov ah, 0xD2 ; call eax ; 
0x00156b19: mov ah, 0xEA ; call dword [eax] ; 
0x0010d0a5: mov ah, 0xF5 ; call dword [eax-0x18] ; 
0x0019db01: mov ah, 0xF5 ; call dword [edx+0x00000001] ; 
0x001a6161: mov ah, 0xF6 ; jmp dword [ebp+0x00000002] ; 
0x000e0454: mov ah, 0xFA ; call dword [eax+0x50] ; 
0x0005c8ad: mov ah, 0xFA ; call dword [eax+0x56] ; 
0x00117c5d: mov ah, 0xFA ; call dword [eax+0x6A] ; 
0x000c780b: mov ah, 0xFA ; call dword [eax-0x18] ; 
0x00107c21: mov ah, 0xFA ; call dword [eax-0x73] ; 
0x000e03aa: mov ah, 0xFA ; call dword [ebp+0x57] ; 
0x001647f5: mov ah, 0xFC ; call dword [eax] ; 
0x00164744: mov ah, 0xFC ; call dword [edx-0x4B] ; 
0x001647e5: mov ah, 0xFC ; call dword [esi] ; 
0x00164791: mov ah, 0xFC ; call esp ; 
0x001647c5: mov ah, 0xFC ; jmp dword [edx] ; 
0x00164771: mov ah, 0xFC ; jmp eax ; 
0x00164761: mov ah, 0xFC ; jmp esi ; 
0x0011a3b3: mov ah, 0xFD ; jmp dword [esi-0x70] ; 
0x00156e88: mov al, 0x0A ; call eax ; 
0x001a0041: mov al, 0x0A ; ret  ; 
0x00156ea8: mov al, 0x0B ; call eax ; 
0x00156edc: mov al, 0x0D ; jmp eax ; 
0x00156f50: mov al, 0x10 ; call eax ; 
0x00156f70: mov al, 0x11 ; call eax ; 
0x00156fec: mov al, 0x1F ; call eax ; 
0x00157020: mov al, 0x21 ; call eax ; 
0x0015704c: mov al, 0x23 ; jmp eax ; 
0x0015707c: mov al, 0x24 ; call eax ; 
0x001570c0: mov al, 0x26 ; call eax ; 
0x0018b760: mov al, 0x50 ; call esp ; 
0x0018b8d0: mov al, 0x51 ; jmp dword [esi+0x01] ; 
0x00182990: mov al, 0x60 ; jmp esi ; 
0x0007ba49: mov al, 0x83 ; retn 0x3901 ; 
0x0007d292: mov al, 0x89 ; ret  ; 
0x00102398: mov al, 0x89 ; retn 0x85C6 ; 
0x0018c4a0: mov al, 0x99 ; call dword [edi+0x08] ; 
0x000f1574: mov al, 0xCA ; call dword [eax+0x6A] ; 
0x0015698d: mov al, 0xEA ; call dword [0x80FFEAAF] ; 
0x001568dd: mov al, 0xEA ; call dword [eax+0x50FFEAB0] ; 
0x00156895: mov al, 0xEA ; call dword [eax-0x0F001550] ; 
0x0015685d: mov al, 0xEA ; call dword [eax-0x2F001550] ; 
0x00156871: mov al, 0xEA ; call dword [eax-0x4F001550] ; 
0x001568cd: mov al, 0xEA ; call dword [eax-0x4F001551] ; 
0x001568e1: mov al, 0xEA ; call dword [eax-0x51] ; 
0x00156839: mov al, 0xEA ; call dword [eax-0x6F001550] ; 
0x00156861: mov al, 0xEA ; call eax ; 
0x001568a1: mov al, 0xEA ; jmp dword [eax-0x4F001551] ; 
0x00156821: mov al, 0xEA ; jmp eax ; 
0x00165ac1: mov al, 0xEC ; call esp ; 
0x00165ad1: mov al, 0xEC ; jmp dword [esi+edi*4] ; 
0x00166129: mov al, 0xEF ; jmp dword [ebx+edx+0x01] ; 
0x000dd669: mov al, 0xF3 ; jmp dword [esi-0x70] ; 
0x00167f81: mov al, 0xF6 ; call esp ; 
0x00168740: mov al, 0xF7 ; call dword [eax+0x05] ; 
0x00168739: mov al, 0xF7 ; jmp dword [0xB0640003+eax] ; 
0x000c7357: mov al, 0xFA ; call dword [eax-0x15] ; 
0x00017a61: mov al, 0xFA ; call dword [eax-0x18] ; 
0x000b35d9: mov al, 0xFA ; call dword [eax-0x73] ; 
0x000c72f9: mov al, 0xFA ; call dword [eax-0x75] ; 
0x00164735: mov al, 0xFC ; call eax ; 
0x00164739: mov al, 0xFC ; jmp dword [eax-0x4F] ; 
0x00051f82: mov al, byte [0x01FFFFFA] ; ret  ; 
0x000ddb8f: mov al, byte [0x09000000] ; retn 0x850F ; 
0x000a2c28: mov al, byte [0x0900001B] ; retn 0x850F ; 
0x0018845b: mov al, byte [0x410C0E0A] ; ret  ; 
0x00197b5d: mov al, byte [0x41140E0A] ; ret  ; 
0x00107e98: mov al, byte [0x5B000031] ; ret  ; 
0x000816f2: mov al, byte [0x5B5F0000] ; ret  ; 
0x00018082: mov al, byte [0x5E00000C] ; ret  ; 
0x0002a912: mov al, byte [0x65000000] ; call dword [0x00000010] ; 
0x00100a3d: mov al, byte [0x6908498B] ; ret  ; 
0x0011d40a: mov al, byte [0x81D0458D] ; ret  ; 
0x00124f61: mov al, byte [0x81FFFFAB] ; ret  ; 
0x000f3ce0: mov al, byte [0x83000037] ; retn 0x8104 ; 
0x0016ef68: mov al, byte [0x9400003D] ; retn 0xFFEB ; 
0x00167294: mov al, byte [0xA40001FD] ; retn 0xFFF2 ; 
0x001648fc: mov al, byte [0xF0FFFCBF] ; retn 0xFFFC ; 
0x000e8a61: mov al, byte [0xF3FFFA77] ; ret  ; 
0x00169129: mov ax, seg? ; jmp esp ; 
0x0002ead8: mov bh, 0x89 ; retn 0x8D90 ; 
0x00024e36: mov bh, 0xC0 ; ret  ; 
0x00173b51: mov bh, 0xEC ; call dword [edi+0x02] ; 
0x001669f1: mov bh, 0xF0 ; jmp dword [eax] ; 
0x00167529: mov bh, 0xF3 ; jmp dword [eax+0x2E] ; 
0x00167531: mov bh, 0xF3 ; jmp dword [edi+ebp+0x02] ; 
0x001679b1: mov bh, 0xF4 ; call dword [eax] ; 
0x00195bb9: mov bh, 0xF4 ; jmp dword [esi] ; 
0x000e6027: mov bh, 0xFA ; call dword [edx+0x52] ; 
0x0016abe1: mov bh, 0xFB ; call eax ; 
0x001648c5: mov bh, 0xFC ; call dword [eax-0x48] ; 
0x0007169c: mov bh, 0xFF ; call dword [eax-0x1D7E0577] ; 
0x00071ce2: mov bh, 0xFF ; call dword [eax-0x7CF7397D] ; 
0x001643b1: mov bh, ah ; jmp dword [eax-0x75] ; 
0x0005fe6d: mov bh, bl ; call dword [ebp+0x57] ; 
0x00060a52: mov bh, byte [esi-0x05] ; jmp dword [esi-0x70] ; 
0x000fd069: mov bh, ch ; jmp dword [ebp-0x75] ; 
0x00120047: mov bh, ch ; jmp dword [esi-0x70] ; 
0x00198ee9: mov bl, 0x0A ; ret  ; 
0x00156add: mov bl, 0xEA ; call dword [eax-0x4B] ; 
0x00156a95: mov bl, 0xEA ; jmp dword [eax-0x4C] ; 
0x00156af1: mov bl, 0xEA ; jmp dword [ebx-0x4B] ; 
0x00167511: mov bl, 0xF3 ; jmp dword [eax+0x2C] ; 
0x00167999: mov bl, 0xF4 ; call dword [esi-0x4C3BFFFE] ; 
0x0019d9b1: mov bl, 0xF5 ; jmp dword [ebx+0x00000000] ; 
0x00099978: mov bl, 0xF8 ; call dword [eax+0x0026748D] ; 
0x001699e9: mov bl, 0xF9 ; call eax ; 
0x000f1d40: mov bl, 0xFA ; call dword [eax+0x57] ; 
0x000d2609: mov bl, 0xFA ; call dword [eax+0x6A] ; 
0x000d2703: mov bl, 0xFA ; call dword [eax-0x18] ; 
0x000d25ed: mov bl, 0xFA ; call dword [eax-0x73] ; 
0x000da846: mov bl, 0xFA ; call dword [eax-0x77] ; 
0x000d702c: mov bl, 0xFA ; call dword [ebp-0x01] ; 
0x0016a1a1: mov bl, 0xFA ; call dword [edx+ecx-0x4C0BFFFC] ; 
0x000d6fef: mov bl, 0xFA ; call dword [esi+0x55] ; 
0x000d6fad: mov bl, 0xFA ; call dword [esi+0x6A] ; 
0x00110153: mov bl, 0xFA ; call dword [esi-0x01] ; 
0x0016a191: mov bl, 0xFA ; jmp dword [eax+0x0A] ; 
0x00164675: mov bl, 0xFC ; call dword [eax-0x1F00034D] ; 
0x00164665: mov bl, 0xFC ; call dword [esi-0x1900034D] ; 
0x0016468d: mov bl, 0xFC ; call esp ; 
0x001646f5: mov bl, 0xFC ; jmp dword [eax-0x4D] ; 
0x00164645: mov bl, 0xFC ; jmp dword [edx-0x0D00034D] ; 
0x001646e5: mov bl, 0xFC ; jmp dword [esi-0x4D] ; 
0x0016466d: mov bl, 0xFC ; jmp eax ; 
0x0016465d: mov bl, 0xFC ; jmp esi ; 
0x00060090: mov bl, bh ; jmp dword [esi-0x70] ; 
0x000f6c52: mov bl, byte [edx+esi*8] ; jmp dword [esi-0x70] ; 
0x0019bfb9: mov bp, seg? ; call dword [eax+eax+0x00] ; 
0x0019a8a5: mov byte [0x41140E0A], al ; ret  ; 
0x0016e72d: mov byte [0x43140E0A], al ; ret  ; 
0x000b0395: mov byte [0x65000000], al ; call dword [0x00000010] ; 
0x00074bdd: mov byte [0x8304C283], al ; retn 0x8304 ; 
0x0013f48a: mov byte [0xF6000000], al ; retn 0x7501 ; 
0x0003f0e0: mov byte [eax+0x08], 0x00000000 ; ret  ; 
0x00024042: mov byte [eax+0x5B], al ; ret  ; 
0x00184a50: mov byte [eax-0x4023FFFF], bl ; jmp dword [edi] ; 
0x000ff9e5: mov byte [ebp+0x39000000], bh ; retn 0x870F ; 
0x000cfd75: mov byte [ebp+ebx-0x16FE0000], cl ; ret  ; 
0x0017e252: mov byte [ebx+0x0E], 0x00000004 ; ret  ; 
0x0002f3e6: mov byte [ebx+0x5E5B20C4], 0x0000005F ; ret  ; 
0x0019adb8: mov byte [ebx-0x0B], cl ; call ecx ; 
0x00157c8c: mov byte [ebx-0x11], dl ; call dword [ecx-0x770010AD] ; 
0x00189f68: mov byte [ebx], ah ; jmp dword [edi+0x00] ; 
0x0017e292: mov byte [ecx+0x0E], 0x00000004 ; ret  ; 
0x00184609: mov byte [ecx+0x0E], 0x00000008 ; ret  ; 
0x00192178: mov byte [ecx-0x0C], al ; jmp dword [eax+eax] ; 
0x00150fa8: mov byte [ecx-0x7E7D0019], 0xFFFFFFE7 ; jmp dword [esi] ; 
0x000e9301: mov byte [ecx], 0x00000001 ; ret  ; 
0x0007639b: mov byte [ecx], 0x00000038 ; retn 0x940F ; 
0x0001adbb: mov byte [ecx], 0xFFFFFF83 ; ret  ; 
0x0004a35a: mov byte [ecx], 0xFFFFFFF6 ; retn 0x0F40 ; 
0x0018d3f8: mov byte [edi], dl ; call dword [edx+0x00000000] ; 
0x00195650: mov byte [edx+eax-0x0B547400], ah ; call dword [edx+0x00] ; 
0x001749cb: mov byte [edx], cl ; ret  ; 
0x0019f8e5: mov ch, 0x0A ; ret  ; 
0x00101197: mov ch, 0x3B ; call dword [eax+0x0026748D] ; 
0x00154c66: mov ch, 0xAB ; ret  ; 
0x00156ba9: mov ch, 0xEA ; call dword [eax] ; 
0x001773a1: mov ch, 0xEE ; jmp esp ; 
0x00166151: mov ch, 0xEF ; call eax ; 
0x000e305e: mov ch, 0xFA ; call dword [eax+0x53] ; 
0x000e2814: mov ch, 0xFA ; call dword [eax-0x01] ; 
0x000e176d: mov ch, 0xFA ; call dword [eax-0x18] ; 
0x000e1eaa: mov ch, 0xFA ; call dword [eax-0x73] ; 
0x000e245f: mov ch, 0xFA ; call dword [eax-0x75] ; 
0x000e5883: mov ch, 0xFA ; jmp dword [ebp-0x01] ; 
0x0016a1b9: mov ch, 0xFA ; jmp dword [ebx+ecx+0x04] ; 
0x0016476d: mov ch, 0xFC ; call dword [eax-0x1F00034C] ; 
0x00164799: mov ch, 0xFC ; call dword [ebp+esi*4-0x4B810004] ; 
0x0016475d: mov ch, 0xFC ; call dword [esi-0x1900034C] ; 
0x001647ed: mov ch, 0xFC ; jmp dword [eax-0x4C] ; 
0x00164779: mov ch, 0xFC ; jmp dword [eax-0x7500034B] ; 
0x001647dd: mov ch, 0xFC ; jmp dword [esi-0x4C] ; 
0x00164769: mov ch, 0xFC ; jmp dword [esi-0x6F00034B] ; 
0x00172a99: mov ch, ah ; call dword [edi+0x00000000] ; 
0x00172b0d: mov ch, ah ; jmp dword [esi+0x00] ; 
0x00167c39: mov ch, dh ; jmp dword [eax+0x7F] ; 
0x00167c31: mov ch, dh ; jmp dword [eax] ; 
0x0007df93: mov cl, 0x89 ; retn 0xC031 ; 
0x00173911: mov cl, 0xEC ; call dword [edx] ; 
0x001739a9: mov cl, 0xEC ; jmp dword [esi+0x00] ; 
0x001835fd: mov cl, 0xF0 ; jmp dword [ebx] ; 
0x000dd619: mov cl, 0xF3 ; jmp dword [esi-0x70] ; 
0x00167969: mov cl, 0xF4 ; call dword [ebp+0x02] ; 
0x000c9be5: mov cl, 0xF5 ; call dword [eax+0x0026B48D] ; 
0x0011d51d: mov cl, 0xF6 ; call dword [ebx-0x75] ; 
0x00168761: mov cl, 0xF7 ; jmp dword [eax] ; 
0x000c5e0e: mov cl, 0xFA ; call dword [eax-0x18] ; 
0x0016473d: mov cl, 0xFC ; jmp dword [eax-0x0D00034C] ; 
0x000e2a6a: mov cl, byte [eax-0x0CFFFFFF] ; ret  ; 
0x00176c21: mov cl, byte [edx] ; ret  ; 
0x00167010: mov cl, dh ; call dword [eax] ; 
0x00187e95: mov cl, dh ; jmp dword [ebx] ; 
0x00167009: mov cl, dh ; jmp esp ; 
0x00154347: mov cs, di ; retn 0x8B36 ; 
0x00176ba5: mov cs, word [edx] ; ret  ; 
0x00167061: mov cx, seg? ; jmp eax ; 
0x00067d73: mov dh, 0x02 ; ret  ; 
0x001ab211: mov dh, 0x0A ; ret  ; 
0x000cb27f: mov dh, 0x39 ; retn 0x840F ; 
0x0012941d: mov dh, 0x40 ; jmp dword [esi-0x77] ; 
0x00153082: mov dh, 0x4E ; retn 0x474C ; 
0x000ac423: mov dh, 0x5C ; call dword [ebp-0x18] ; 
0x00037044: mov dh, 0x83 ; call dword [0xC5897F7E] ; 
0x00039e59: mov dh, 0x83 ; jmp dword [eax] ; 
0x000e5489: mov dh, 0x83 ; ret  ; 
0x0002c77c: mov dh, 0xC0 ; ret  ; 
0x001542c0: mov dh, 0xC7 ; retn 0xE71F ; 
0x00156be1: mov dh, 0xEA ; call dword [eax-0x3700154B] ; 
0x00156b29: mov dh, 0xEA ; call dword [eax] ; 
0x00156ba1: mov dh, 0xEA ; jmp eax ; 
0x00173aa5: mov dh, 0xEC ; call dword [eax+eax+0x41000000] ; 
0x00166159: mov dh, 0xEF ; jmp dword [ebp+edx+0x01] ; 
0x0019db7d: mov dh, 0xF5 ; jmp dword [edx+0x00000002] ; 
0x0009967d: mov dh, 0xF8 ; call dword [ebx-0x18] ; 
0x00184f78: mov dh, al ; jmp edi ; 
0x00175c89: mov dh, ch ; call dword [edi] ; 
0x00175c11: mov dh, ch ; jmp dword [eax+eax+0x00] ; 
0x00175b81: mov dh, ch ; jmp dword [ebx] ; 
0x001880fd: mov dh, cl ; call dword [edx] ; 
0x001881bd: mov dh, cl ; jmp dword [ebx] ; 
0x001881e9: mov dh, cl ; jmp dword [esi] ; 
0x0017e2a1: mov di, gs ; call dword [eax+eax+0x00] ; 
0x00003c2c: mov dl, 0x1E ; ret  ; 
0x0011a305: mov dl, 0x89 ; retn 0xC085 ; 
0x001569e9: mov dl, 0xEA ; call dword [eax-0x1F00154E] ; 
0x001569e1: mov dl, 0xEA ; jmp dword [eax-0x1F00154E] ; 
0x00156a59: mov dl, 0xEA ; jmp dword [eax-0x4E] ; 
0x00156a5d: mov dl, 0xEA ; jmp dword [ebx-0x4B] ; 
0x001569b9: mov dl, 0xEA ; jmp eax ; 
0x001671c1: mov dl, 0xF2 ; jmp esp ; 
0x00167d29: mov dl, 0xF5 ; jmp dword [eax] ; 
0x00167f99: mov dl, 0xF6 ; call dword [ecx+esi*4+0x02] ; 
0x00168771: mov dl, 0xF7 ; jmp dword [esi+eax+0x03] ; 
0x000cfc7b: mov dl, 0xFA ; call dword [eax+0x6A] ; 
0x000cdfd3: mov dl, 0xFA ; call dword [eax-0x01] ; 
0x000cbfae: mov dl, 0xFA ; call dword [eax-0x18] ; 
0x000ceee0: mov dl, 0xFA ; call dword [eax-0x73] ; 
0x0016a181: mov dl, 0xFA ; jmp dword [eax+0x64000409] ; 
0x0016abb9: mov dl, 0xFB ; jmp dword [ecx+eax*2-0x4B2BFFFF] ; 
0x001646f1: mov dl, 0xFC ; call dword [eax] ; 
0x00164640: mov dl, 0xFC ; call dword [edx-0x4D] ; 
0x001646e1: mov dl, 0xFC ; call dword [esi] ; 
0x001646c1: mov dl, 0xFC ; jmp dword [edx] ; 
0x000e8ca4: mov dl, bh ; jmp dword [esi-0x70] ; 
0x0001e8ad: mov ds, word [0x29000003] ; retn 0x5403 ; 
0x000b124c: mov dword [0x00000068], eax ; ret  ; 
0x0017d565: mov dword [0x41140E0A], eax ; ret  ; 
0x001a3d09: mov dword [0x43140E0A], eax ; ret  ; 
0x000e79e8: mov dword [0x65000000], eax ; call dword [0x00000010] ; 
0x00130d5e: mov dword [0x81FFFEED], eax ; ret  ; 
0x00030d59: mov dword [0x83000000], eax ; retn 0x3901 ; 
0x0011fd79: mov dword [0x89000000], eax ; retn 0xE283 ; 
0x000e7f89: mov dword [0x89FFF307], eax ; ret  ; 
0x000dfd89: mov dword [0x89FFF389], eax ; ret  ; 
0x0011e899: mov dword [0xF0EA11E8], eax ; call dword [eax+0x044A8953] ; 
0x000e50b2: mov dword [0xFFFEF9E9], eax ; call dword [eax+0x0026B48D] ; 
0x0006c37e: mov dword [eax+0x00001860], 0x00000000 ; ret  ; 
0x00070ef0: mov dword [eax+0x000018C0], 0x00000000 ; ret  ; 
0x0006acc2: mov dword [eax+0x04], edx ; ret  ; 
0x0006b600: mov dword [eax+0x08], 0x00000000 ; rep ret  ; 
0x000de979: mov dword [eax+0x08], edx ; ret  ; 
0x00115f40: mov dword [eax+0x0C], edx ; ret  ; 
0x00062044: mov dword [eax+0x20], ecx ; ret  ; 
0x0011f708: mov dword [eax+0x4C], edx ; ret  ; 
0x0011287c: mov dword [eax+edx], ecx ; ret  ; 
0x0002b45f: mov dword [eax], ecx ; ret  ; 
0x000e15f4: mov dword [eax], edx ; rep ret  ; 
0x00070ee4: mov dword [eax], edx ; ret  ; 
0x000f7971: mov dword [eax], edx ; retn 0x0004 ; 
0x00043c26: mov dword [ebp+0x10], esi ; jmp eax ; 
0x00043d09: mov dword [ebp-0x00000490], 0x00000001 ; jmp eax ; 
0x00043a04: mov dword [ebp-0x000004A0], 0x00000001 ; jmp eax ; 
0x00043a4f: mov dword [ebp-0x000004A4], 0x00000001 ; jmp eax ; 
0x00043963: mov dword [ebp-0x000004A8], 0x00000001 ; jmp eax ; 
0x000439ae: mov dword [ebp-0x000004AC], 0x00000001 ; jmp eax ; 
0x00042659: mov dword [ebp-0x000004B0], 0x00000000 ; jmp eax ; 
0x00042604: mov dword [ebp-0x000004B0], 0x00000001 ; jmp eax ; 
0x00043da9: mov dword [ebp-0x000004B4], 0x00000000 ; jmp eax ; 
0x00043d54: mov dword [ebp-0x000004B4], 0x00000001 ; jmp eax ; 
0x00043b06: mov dword [ebp-0x000004B8], 0x00000001 ; jmp eax ; 
0x00043b51: mov dword [ebp-0x000004C0], 0x00000001 ; jmp eax ; 
0x000425b3: mov dword [ebp-0x000004D4], esi ; jmp eax ; 
0x0004d84c: mov dword [ebp-0x00001040], 0x00000001 ; jmp eax ; 
0x0004e5b9: mov dword [ebp-0x00001050], 0x00000001 ; jmp eax ; 
0x0004e783: mov dword [ebp-0x00001054], 0x00000001 ; jmp eax ; 
0x0004e132: mov dword [ebp-0x00001058], 0x00000001 ; jmp eax ; 
0x0004e175: mov dword [ebp-0x0000105C], 0x00000001 ; jmp eax ; 
0x0004ceda: mov dword [ebp-0x00001060], 0x00000000 ; jmp eax ; 
0x0004ce8d: mov dword [ebp-0x00001060], 0x00000001 ; jmp eax ; 
0x0004e44d: mov dword [ebp-0x00001064], 0x00000001 ; jmp eax ; 
0x0004d9d8: mov dword [ebp-0x00001068], 0x00000000 ; jmp eax ; 
0x0004d990: mov dword [ebp-0x00001068], 0x00000001 ; jmp eax ; 
0x0004e490: mov dword [ebp-0x0000106C], 0x00000001 ; jmp eax ; 
0x0004ce44: mov dword [ebp-0x00001070], esi ; jmp eax ; 
0x0011c1ef: mov dword [ebp-0x00238B0A], 0xFFEF60B5 ; call dword [esi+0x57] ; 
0x000f2df1: mov dword [ebp-0x34], edx ; call eax ; 
0x000f2670: mov dword [ebp-0x40], eax ; call edx ; 
0x000f26e6: mov dword [ebp-0x40], edx ; call eax ; 
0x0002772d: mov dword [ebp-0x47288A01], 0x00000006 ; call dword [0x00000010] ; 
0x0011a5aa: mov dword [ebx+0x00000C04], eax ; call dword [ebx-0x00000CCC] ; 
0x0011a562: mov dword [ebx+0x00000C04], eax ; call dword [ebx-0x00000CD0] ; 
0x0011a502: mov dword [ebx+0x00000C04], eax ; call dword [ebx-0x00000CD4] ; 
0x0011a49e: mov dword [ebx+0x00000C04], eax ; call dword [ebx-0x00000CD8] ; 
0x0006153c: mov dword [ebx-0x0776B33C], 0x5D5F5E5B ; ret  ; 
0x00078900: mov dword [ebx-0x0776D33C], 0x5D5F5E5B ; ret  ; 
0x00021c9a: mov dword [ebx-0x0776E33C], 0x5D5F5E5B ; ret  ; 
0x000eee9d: mov dword [ebx-0x0776F33C], 0x5D5F5E5B ; ret  ; 
0x00180eeb: mov dword [ebx], 0x0113011A ; ret  ; 
0x001807bd: mov dword [ebx], 0x0113011E ; ret  ; 
0x00180259: mov dword [ebx], 0x01130126 ; ret  ; 
0x0018050b: mov dword [ebx], 0x0113012C ; ret  ; 
0x001a7951: mov dword [ebx], 0xF6CCDC00 ; jmp dword [ebp+0x00000000] ; 
0x00169c35: mov dword [ebx], 0xFA19F400 ; call dword [eax-0x39] ; 
0x00169c45: mov dword [ebx], 0xFA1B5400 ; jmp dword [eax+ecx*8] ; 
0x0005e310: mov dword [ecx+0x000000B0], edx ; rep ret  ; 
0x00018376: mov dword [ecx+0x00000504], edx ; rep ret  ; 
0x00115859: mov dword [ecx+0x0C], edx ; ret  ; 
0x00115831: mov dword [ecx+0x14], edx ; ret  ; 
0x0017bba1: mov dword [ecx], 0x41140E0A ; ret  ; 
0x001149c8: mov dword [ecx], 0x5653FF6A ; call ebp ; 
0x001670fd: mov dword [ecx], 0xF194E400 ; call dword [eax+0x440001C7] ; 
0x0016aff5: mov dword [ecx], 0xFDAD1400 ; call dword [eax+ebp*8-0x4F0BFFFF] ; 
0x0018e312: mov dword [ecx], eax ; ret  ; 
0x000e7040: mov dword [ecx], ebx ; int 0x80 ; 
0x000f4f26: mov dword [edi+ecx], 0x83FF4FB6 ; retn 0x8404 ; 
0x0009e717: mov dword [edi+edi*8], 0x7FE8FC76 ; ret  ; 
0x000a0dbe: mov dword [edi], ebx ; call eax ; 
0x0002cc6a: mov dword [edx+0x00000048], ecx ; ret  ; 
0x000e2a69: mov dword [edx+0x00000188], ecx ; rep ret  ; 
0x000e15d6: mov dword [edx+0x04], 0x00000000 ; ret  ; 
0x000e15c9: mov dword [edx+0x04], eax ; ret  ; 
0x0002bca3: mov dword [edx+0x18], eax ; ret  ; 
0x00197949: mov dword [edx], 0xF4F7A400 ; jmp dword [eax] ; 
0x0019795d: mov dword [edx], 0xF4F7B000 ; jmp dword [eax+eax] ; 
0x001979a1: mov dword [edx], 0xF4F7DC00 ; call dword [0x00000000] ; 
0x001979b5: mov dword [edx], 0xF4F7E800 ; call dword [0x00000000] ; 
0x0016811d: mov dword [edx], 0xF6FFC400 ; jmp dword [eax] ; 
0x0006bf9b: mov dword [edx], eax ; ret  ; 
0x0003d168: mov dword [edx], ecx ; ret  ; 
0x0002ee46: mov dword [esi+0x0C], ecx ; call dword [ebp+0x000007F8] ; 
0x00021516: mov dword [esi], 0x3900B70F ; ret  ; 
0x0007458e: mov dword [esp+0x0C], eax ; call dword [edx] ; 
0x0006d40d: mov dword [esp+0x0C], eax ; call edx ; 
0x0006ef28: mov dword [esp+0x10], edx ; call eax ; 
0x0006c49a: mov dword [esp+0x18], edx ; call dword [esi+0x0000009C] ; 
0x00021ec5: mov dword [esp+0x18], edx ; call eax ; 
0x0006d3c8: mov dword [esp+0x1C], eax ; call dword [eax] ; 
0x0006ef68: mov dword [esp+0x20], ecx ; call eax ; 
0x00062f19: mov dword [esp+0x24], edx ; call dword [edx+0x00000098] ; 
0x0006c60c: mov dword [esp+0x28], edx ; call dword [ebp+0x0000009C] ; 
0x00108f14: mov dword [esp+0x2C], edx ; call dword [eax] ; 
0x0006edbc: mov dword [esp+0x30], ecx ; call dword [esi] ; 
0x00106c64: mov dword [esp], 0x00000000 ; call dword [esp+0x2C] ; 
0x00106f9c: mov dword [esp], 0x00000000 ; call dword [esp+0x3C] ; 
0x00111a3c: mov dword [esp], eax ; call dword [edx+0x10] ; 
0x0014321a: mov dword [esp], eax ; call esi ; 
0x0010966c: mov dword [esp], ebp ; call dword [eax+0x10] ; 
0x00062f5b: mov dword [esp], ebp ; call dword [edx+0x0000009C] ; 
0x00062d5b: mov dword [esp], edi ; call dword [esi+0x0000009C] ; 
0x00019d60: mov dword [esp], edi ; call esi ; 
0x00108f94: mov dword [esp], edx ; call dword [eax+0x10] ; 
0x00107e34: mov dword [esp], esi ; call dword [eax+0x10] ; 
0x00021044: mov dword [esp], esi ; call ebx ; 
0x00019c2d: mov dword [esp], esi ; call edi ; 
0x000e706c: mov eax, 0x00000001 ; call dword [0x00000010] ; 
0x000b07d8: mov eax, 0x00000001 ; int 0x80 ; 
0x00066fc0: mov eax, 0x00000001 ; rep ret  ; 
0x0002cb00: mov eax, 0x00000001 ; ret  ; 
0x000a05b0: mov eax, 0x00000002 ; ret  ; 
0x000695b6: mov eax, 0x00000003 ; call dword [0x00000010] ; 
0x000a05c0: mov eax, 0x00000003 ; ret  ; 
0x000178f9: mov eax, 0x00000004 ; call dword [0x00000010] ; 
0x000a05d0: mov eax, 0x00000004 ; ret  ; 
0x0001791c: mov eax, 0x00000005 ; call dword [0x00000010] ; 
0x000a05e0: mov eax, 0x00000005 ; ret  ; 
0x00027732: mov eax, 0x00000006 ; call dword [0x00000010] ; 
0x000a05f0: mov eax, 0x00000006 ; ret  ; 
0x000b0117: mov eax, 0x00000007 ; call dword [0x00000010] ; 
0x000a0600: mov eax, 0x00000007 ; ret  ; 
0x000d63c4: mov eax, 0x00000008 ; call dword [0x00000010] ; 
0x000d750a: mov eax, 0x00000009 ; call dword [0x00000010] ; 
0x000d7636: mov eax, 0x0000000A ; call dword [0x00000010] ; 
0x000b07ed: mov eax, 0x0000000B ; call dword [0x00000010] ; 
0x000d6446: mov eax, 0x0000000C ; call dword [0x00000010] ; 
0x000d522e: mov eax, 0x0000000E ; call dword [0x00000010] ; 
0x000d559a: mov eax, 0x0000000F ; call dword [0x00000010] ; 
0x000d5bdd: mov eax, 0x00000013 ; call dword [0x00000010] ; 
0x000b123b: mov eax, 0x00000014 ; call dword [0x00000010] ; 
0x000e79a7: mov eax, 0x00000015 ; call dword [0x00000010] ; 
0x000e70f6: mov eax, 0x00000016 ; call dword [0x00000010] ; 
0x0007338c: mov eax, 0x00000016 ; ret  ; 
0x000a3bc6: mov eax, 0x00000019 ; call dword [0x00000010] ; 
0x000b0276: mov eax, 0x0000001B ; call dword [0x00000010] ; 
0x000b033a: mov eax, 0x0000001D ; call dword [0x00000010] ; 
0x000d4f9a: mov eax, 0x0000001E ; call dword [0x00000010] ; 
0x000b1b1e: mov eax, 0x00000020 ; ret  ; 
0x000d5c0a: mov eax, 0x00000021 ; call dword [0x00000010] ; 
0x000dfb40: mov eax, 0x00000024 ; call dword [0x00000010] ; 
0x0002c15a: mov eax, 0x00000025 ; call dword [0x00000010] ; 
0x0005bf8a: mov eax, 0x00000026 ; call dword [0x00000010] ; 
0x000d568a: mov eax, 0x00000027 ; call dword [0x00000010] ; 
0x000d7686: mov eax, 0x00000028 ; call dword [0x00000010] ; 
0x000d62e6: mov eax, 0x00000029 ; call dword [0x00000010] ; 
0x000d6366: mov eax, 0x0000002A ; call dword [0x00000010] ; 
0x000dfaa6: mov eax, 0x00000033 ; call dword [0x00000010] ; 
0x000e711a: mov eax, 0x00000034 ; call dword [0x00000010] ; 
0x000de4d3: mov eax, 0x00000036 ; call dword [0x00000010] ; 
0x000b148a: mov eax, 0x00000039 ; call dword [0x00000010] ; 
0x000d5576: mov eax, 0x0000003C ; call dword [0x00000010] ; 
0x000dfac6: mov eax, 0x0000003D ; call dword [0x00000010] ; 
0x000e5101: mov eax, 0x0000003E ; call dword [0x00000010] ; 
0x000d630a: mov eax, 0x0000003F ; call dword [0x00000010] ; 
0x000b1260: mov eax, 0x00000040 ; call dword [0x00000010] ; 
0x000b1b84: mov eax, 0x00000040 ; ret  ; 
0x000b14b0: mov eax, 0x00000041 ; call dword [0x00000010] ; 
0x000b1500: mov eax, 0x00000042 ; call dword [0x00000010] ; 
0x000df87a: mov eax, 0x0000004A ; call dword [0x00000010] ; 
0x000dea9a: mov eax, 0x0000004B ; call dword [0x00000010] ; 
0x000e759a: mov eax, 0x0000004C ; call dword [0x00000010] ; 
0x000dec7a: mov eax, 0x0000004D ; call dword [0x00000010] ; 
0x000a16ba: mov eax, 0x0000004F ; call dword [0x00000010] ; 
0x000d757a: mov eax, 0x00000053 ; call dword [0x00000010] ; 
0x000d75dd: mov eax, 0x00000055 ; call dword [0x00000010] ; 
0x000e7c76: mov eax, 0x00000056 ; call dword [0x00000010] ; 
0x000dff1a: mov eax, 0x00000057 ; call dword [0x00000010] ; 
0x000e2d2a: mov eax, 0x0000005B ; call dword [0x00000010] ; 
0x000e147a: mov eax, 0x0000005C ; call dword [0x00000010] ; 
0x000e14aa: mov eax, 0x0000005D ; call dword [0x00000010] ; 
0x000d55ca: mov eax, 0x0000005E ; call dword [0x00000010] ; 
0x000def5d: mov eax, 0x00000061 ; call dword [0x00000010] ; 
0x000d537a: mov eax, 0x00000063 ; call dword [0x00000010] ; 
0x000d53aa: mov eax, 0x00000064 ; call dword [0x00000010] ; 
0x000e6f0d: mov eax, 0x00000065 ; call dword [0x00000010] ; 
0x000e7f5d: mov eax, 0x00000066 ; call dword [0x00000010] ; 
0x000e796d: mov eax, 0x00000067 ; call dword [0x00000010] ; 
0x000a3b9d: mov eax, 0x00000068 ; call dword [0x00000010] ; 
0x000a3b6a: mov eax, 0x00000069 ; call dword [0x00000010] ; 
0x000e6f36: mov eax, 0x0000006E ; call dword [0x00000010] ; 
0x000dfef6: mov eax, 0x0000006F ; call dword [0x00000010] ; 
0x000e7576: mov eax, 0x00000071 ; call dword [0x00000010] ; 
0x000b00b8: mov eax, 0x00000072 ; call dword [0x00000010] ; 
0x000dff46: mov eax, 0x00000073 ; call dword [0x00000010] ; 
0x000e7bb6: mov eax, 0x00000074 ; call dword [0x00000010] ; 
0x000e8b26: mov eax, 0x00000075 ; call dword [0x00000010] ; 
0x000dfaf0: mov eax, 0x00000076 ; call dword [0x00000010] ; 
0x0002bf39: mov eax, 0x00000077 ; int 0x80 ; 
0x000b04b0: mov eax, 0x00000078 ; call dword [0x00000010] ; 
0x000df91a: mov eax, 0x00000079 ; call dword [0x00000010] ; 
0x000affe6: mov eax, 0x0000007A ; call dword [0x00000010] ; 
0x000e754d: mov eax, 0x0000007B ; call dword [0x00000010] ; 
0x000e7636: mov eax, 0x0000007C ; call dword [0x00000010] ; 
0x000e2d5d: mov eax, 0x0000007D ; call dword [0x00000010] ; 
0x0003d09a: mov eax, 0x0000007E ; call dword [0x00000010] ; 
0x000e771d: mov eax, 0x0000007F ; call dword [0x00000010] ; 
0x000e7897: mov eax, 0x00000080 ; call dword [0x00000010] ; 
0x000e774d: mov eax, 0x00000081 ; call dword [0x00000010] ; 
0x000e7866: mov eax, 0x00000082 ; call dword [0x00000010] ; 
0x000e7b02: mov eax, 0x00000083 ; call dword [0x00000010] ; 
0x000b1466: mov eax, 0x00000084 ; call dword [0x00000010] ; 
0x000d6466: mov eax, 0x00000085 ; call dword [0x00000010] ; 
0x000e765a: mov eax, 0x00000086 ; call dword [0x00000010] ; 
0x000e7526: mov eax, 0x00000088 ; call dword [0x00000010] ; 
0x000df961: mov eax, 0x0000008E ; call dword [0x00000010] ; 
0x000d5ffa: mov eax, 0x0000008F ; call dword [0x00000010] ; 
0x000e2d97: mov eax, 0x00000090 ; call dword [0x00000010] ; 
0x000df187: mov eax, 0x00000091 ; call dword [0x00000010] ; 
0x000df1f7: mov eax, 0x00000092 ; call dword [0x00000010] ; 
0x000b14e6: mov eax, 0x00000093 ; call dword [0x00000010] ; 
0x000dfb70: mov eax, 0x00000094 ; call dword [0x00000010] ; 
0x000e6fc6: mov eax, 0x00000095 ; call dword [0x00000010] ; 
0x000e2e9a: mov eax, 0x00000096 ; call dword [0x00000010] ; 
0x000e2eca: mov eax, 0x00000097 ; call dword [0x00000010] ; 
0x000e2ef6: mov eax, 0x00000098 ; call dword [0x00000010] ; 
0x000e2f10: mov eax, 0x00000099 ; call dword [0x00000010] ; 
0x000cbc2a: mov eax, 0x0000009A ; call dword [0x00000010] ; 
0x000cbc5a: mov eax, 0x0000009B ; call dword [0x00000010] ; 
0x000cbc8d: mov eax, 0x0000009C ; call dword [0x00000010] ; 
0x000cbcb6: mov eax, 0x0000009D ; call dword [0x00000010] ; 
0x000cbcd0: mov eax, 0x0000009E ; call dword [0x00000010] ; 
0x000cbcf6: mov eax, 0x0000009F ; call dword [0x00000010] ; 
0x000cbd16: mov eax, 0x000000A0 ; call dword [0x00000010] ; 
0x000cbd3a: mov eax, 0x000000A1 ; call dword [0x00000010] ; 
0x000b0394: mov eax, 0x000000A2 ; call dword [0x00000010] ; 
0x000e79e7: mov eax, 0x000000A3 ; call dword [0x00000010] ; 
0x000e6f5a: mov eax, 0x000000A6 ; call dword [0x00000010] ; 
0x000e7ac7: mov eax, 0x000000A7 ; call dword [0x00000010] ; 
0x000dce47: mov eax, 0x000000A8 ; call dword [0x00000010] ; 
0x000e7a1d: mov eax, 0x000000A9 ; call dword [0x00000010] ; 
0x000e7a87: mov eax, 0x000000AC ; call dword [0x00000010] ; 
0x0002bf30: mov eax, 0x000000AD ; int 0x80 ; 
0x0002bfbd: mov eax, 0x000000AE ; call dword [0x00000010] ; 
0x0002cf3a: mov eax, 0x000000B2 ; call dword [0x00000010] ; 
0x0002c1c8: mov eax, 0x000000B3 ; call dword [0x00000010] ; 
0x000d3ea4: mov eax, 0x000000B4 ; call dword [0x00000010] ; 
0x000d3f54: mov eax, 0x000000B5 ; call dword [0x00000010] ; 
0x000e768a: mov eax, 0x000000B8 ; call dword [0x00000010] ; 
0x000e76ba: mov eax, 0x000000B9 ; call dword [0x00000010] ; 
0x0002c69a: mov eax, 0x000000BA ; call dword [0x00000010] ; 
0x000dd582: mov eax, 0x000000BB ; call dword [0x00000010] ; 
0x00119cc7: mov eax, 0x000000BC ; call dword [0x00000010] ; 
0x00119d47: mov eax, 0x000000BD ; call dword [0x00000010] ; 
0x000b07a9: mov eax, 0x000000BE ; int 0x80 ; 
0x000dea6a: mov eax, 0x000000BF ; call dword [0x00000010] ; 
0x000e2c78: mov eax, 0x000000C0 ; call dword [0x00000010] ; 
0x000d6e1d: mov eax, 0x000000C6 ; call dword [0x00000010] ; 
0x000b1270: mov eax, 0x000000C7 ; call dword [0x00000010] ; 
0x000b1290: mov eax, 0x000000C8 ; call dword [0x00000010] ; 
0x000b1280: mov eax, 0x000000C9 ; call dword [0x00000010] ; 
0x000b12a0: mov eax, 0x000000CA ; call dword [0x00000010] ; 
0x000b12ba: mov eax, 0x000000CD ; call dword [0x00000010] ; 
0x000d6ded: mov eax, 0x000000CF ; call dword [0x00000010] ; 
0x000b152d: mov eax, 0x000000D1 ; call dword [0x00000010] ; 
0x000b155d: mov eax, 0x000000D3 ; call dword [0x00000010] ; 
0x000d6dbd: mov eax, 0x000000D4 ; call dword [0x00000010] ; 
0x000e7186: mov eax, 0x000000D7 ; call dword [0x00000010] ; 
0x000e71a6: mov eax, 0x000000D8 ; call dword [0x00000010] ; 
0x000e7a4a: mov eax, 0x000000D9 ; call dword [0x00000010] ; 
0x000e2e2d: mov eax, 0x000000DA ; call dword [0x00000010] ; 
0x000e2dfd: mov eax, 0x000000DB ; call dword [0x00000010] ; 
0x000ac48a: mov eax, 0x000000DC ; call dword [0x00000010] ; 
0x000d5f7b: mov eax, 0x000000DD ; call dword [0x00000010] ; 
0x0002be87: mov eax, 0x000000E0 ; call dword [0x00000010] ; 
0x000e5be7: mov eax, 0x000000E2 ; call dword [0x00000010] ; 
0x000e5b77: mov eax, 0x000000E3 ; call dword [0x00000010] ; 
0x000e5a47: mov eax, 0x000000E4 ; call dword [0x00000010] ; 
0x000e5a82: mov eax, 0x000000E5 ; call dword [0x00000010] ; 
0x000e5ae2: mov eax, 0x000000E6 ; call dword [0x00000010] ; 
0x000e59b2: mov eax, 0x000000E7 ; call dword [0x00000010] ; 
0x000e5aad: mov eax, 0x000000E8 ; call dword [0x00000010] ; 
0x000e5b0d: mov eax, 0x000000E9 ; call dword [0x00000010] ; 
0x000e59dd: mov eax, 0x000000EA ; call dword [0x00000010] ; 
0x000e5baa: mov eax, 0x000000EB ; call dword [0x00000010] ; 
0x000e5b3a: mov eax, 0x000000EC ; call dword [0x00000010] ; 
0x000e5a0a: mov eax, 0x000000ED ; call dword [0x00000010] ; 
0x000dd5b2: mov eax, 0x000000EF ; call dword [0x00000010] ; 
0x000f3b06: mov eax, 0x000000F0 ; call dword [0x00000010] ; 
0x000cbd89: mov eax, 0x000000F2 ; call dword [0x00000010] ; 
0x00124287: mov eax, 0x000000FA ; call dword [0x00000010] ; 
0x000b07cc: mov eax, 0x000000FC ; call dword [0x00000010] ; 
0x000e7776: mov eax, 0x000000FE ; call dword [0x00000010] ; 
0x000e77c2: mov eax, 0x000000FF ; call dword [0x00000010] ; 
0x000e77fc: mov eax, 0x00000100 ; call dword [0x00000010] ; 
0x000e2e67: mov eax, 0x00000101 ; call dword [0x00000010] ; 
0x000f431c: mov eax, 0x00000108 ; call dword [0x00000010] ; 
0x000b2165: mov eax, 0x0000010A ; call dword [0x00000010] ; 
0x0002be9d: mov eax, 0x0000010E ; call dword [0x00000010] ; 
0x000dcfcc: mov eax, 0x00000110 ; call dword [0x00000010] ; 
0x000b01e1: mov eax, 0x0000011C ; call dword [0x00000010] ; 
0x000e78f0: mov eax, 0x00000123 ; call dword [0x00000010] ; 
0x000e78cd: mov eax, 0x00000124 ; call dword [0x00000010] ; 
0x000e793a: mov eax, 0x00000125 ; call dword [0x00000010] ; 
0x000d7c19: mov eax, 0x00000127 ; call dword [0x00000010] ; 
0x000d56bd: mov eax, 0x00000128 ; call dword [0x00000010] ; 
0x000d5282: mov eax, 0x00000129 ; call dword [0x00000010] ; 
0x000d6e57: mov eax, 0x0000012A ; call dword [0x00000010] ; 
0x000e1431: mov eax, 0x0000012B ; call dword [0x00000010] ; 
0x000d5339: mov eax, 0x0000012C ; call dword [0x00000010] ; 
0x000d765d: mov eax, 0x0000012D ; call dword [0x00000010] ; 
0x0005bfc2: mov eax, 0x0000012E ; call dword [0x00000010] ; 
0x000d7547: mov eax, 0x0000012F ; call dword [0x00000010] ; 
0x000d75ad: mov eax, 0x00000130 ; call dword [0x00000010] ; 
0x000d7612: mov eax, 0x00000131 ; call dword [0x00000010] ; 
0x000d563d: mov eax, 0x00000132 ; call dword [0x00000010] ; 
0x000e7c56: mov eax, 0x00000136 ; call dword [0x00000010] ; 
0x000e7b46: mov eax, 0x00000139 ; call dword [0x00000010] ; 
0x000de159: mov eax, 0x0000013A ; call dword [0x00000010] ; 
0x000e7bec: mov eax, 0x0000013B ; call dword [0x00000010] ; 
0x000e7cac: mov eax, 0x0000013C ; call dword [0x00000010] ; 
0x000e727a: mov eax, 0x0000013F ; call dword [0x00000010] ; 
0x000dd5e6: mov eax, 0x00000140 ; call dword [0x00000010] ; 
0x000e7d1a: mov eax, 0x00000142 ; call dword [0x00000010] ; 
0x000de2c9: mov eax, 0x00000144 ; call dword [0x00000010] ; 
0x000e7d52: mov eax, 0x00000145 ; call dword [0x00000010] ; 
0x000e7d7a: mov eax, 0x00000146 ; call dword [0x00000010] ; 
0x000e7796: mov eax, 0x00000149 ; call dword [0x00000010] ; 
0x000d633d: mov eax, 0x0000014A ; call dword [0x00000010] ; 
0x000d638a: mov eax, 0x0000014B ; call dword [0x00000010] ; 
0x000e7916: mov eax, 0x0000014C ; call dword [0x00000010] ; 
0x000df335: mov eax, 0x0000014D ; call dword [0x00000010] ; 
0x000df495: mov eax, 0x0000014E ; call dword [0x00000010] ; 
0x000e8925: mov eax, 0x00000151 ; call dword [0x00000010] ; 
0x000e7daa: mov eax, 0x00000152 ; call dword [0x00000010] ; 
0x000e760c: mov eax, 0x00000153 ; call dword [0x00000010] ; 
0x000e75d2: mov eax, 0x00000154 ; call dword [0x00000010] ; 
0x000e7de7: mov eax, 0x00000155 ; call dword [0x00000010] ; 
0x000e7e27: mov eax, 0x00000156 ; call dword [0x00000010] ; 
0x000e76ea: mov eax, 0x00000157 ; call dword [0x00000010] ; 
0x000dfbc6: mov eax, 0x00000158 ; call dword [0x00000010] ; 
0x000e89c0: mov eax, 0x00000159 ; call dword [0x00000010] ; 
0x000e7e8a: mov eax, 0x0000015A ; call dword [0x00000010] ; 
0x000e7ecc: mov eax, 0x0000015B ; call dword [0x00000010] ; 
0x000e7f0c: mov eax, 0x0000015C ; call dword [0x00000010] ; 
0x001521db: mov eax, 0x45155E93 ; retn 0x591C ; 
0x000e768b: mov eax, 0x65000000 ; call dword [0x00000010] ; 
0x0011a649: mov eax, 0x81000054 ; ret  ; 
0x00112a49: mov eax, 0x810000D0 ; ret  ; 
0x000f3a51: mov eax, 0x810002C0 ; retn 0xE5AB ; 
0x000f3551: mov eax, 0x810002C5 ; retn 0xEAAB ; 
0x000f3251: mov eax, 0x810002C8 ; retn 0xEDAB ; 
0x000eea49: mov eax, 0x81000310 ; ret  ; 
0x000d9d49: mov eax, 0x8100045D ; ret  ; 
0x000d8949: mov eax, 0x81000471 ; ret  ; 
0x000d0249: mov eax, 0x810004F8 ; ret  ; 
0x000a4449: mov eax, 0x810007B6 ; ret  ; 
0x00077551: mov eax, 0x81000A85 ; retn 0xAAAB ; 
0x00075751: mov eax, 0x81000AA3 ; retn 0xC8AB ; 
0x00073c51: mov eax, 0x81000ABE ; retn 0xE3AB ; 
0x00070149: mov eax, 0x81000AF9 ; ret  ; 
0x00031a49: mov eax, 0x81000EE0 ; ret  ; 
0x0001a749: mov eax, 0x81001053 ; ret  ; 
0x00126149: mov eax, 0x81FFFF99 ; ret  ; 
0x00124f49: mov eax, 0x81FFFFAB ; ret  ; 
0x000c43f1: mov eax, 0x8904418B ; ret  ; 
0x0007b415: mov eax, 0x89C05D8B ; retn 0xFAC1 ; 
0x000f0eab: mov eax, 0x940F2D3C ; ret  ; 
0x0016497c: mov eax, 0xC2FFFCC3 ; retn 0xFFFC ; 
0x0001874d: mov eax, 0xFFFFFFFF ; ret  ; 
0x00001a2d: mov eax, dword [0x3A6D4813] ; ret  ; 
0x00189ed1: mov eax, dword [0x43140E0A] ; ret  ; 
0x00081edc: mov eax, dword [0x5BFFFFFD] ; ret  ; 
0x000cbd3b: mov eax, dword [0x65000000] ; call dword [0x00000010] ; 
0x000576bf: mov eax, dword [0x83000000] ; retn 0x8904 ; 
0x0002cc2a: mov eax, dword [eax+0x00000048] ; ret  ; 
0x0002cc0a: mov eax, dword [eax+0x0000004C] ; ret  ; 
0x0006c26a: mov eax, dword [eax+0x00000CA0] ; ret  ; 
0x000471cd: mov eax, dword [eax+0x00000EE8] ; call dword [eax+ecx*4] ; 
0x0002108a: mov eax, dword [eax+0x00000FDC] ; ret  ; 
0x00019bda: mov eax, dword [eax+0x000035FC] ; ret  ; 
0x00019bba: mov eax, dword [eax+0x00003604] ; ret  ; 
0x000ac364: mov eax, dword [eax+0x14] ; ret  ; 
0x000f30b0: mov eax, dword [eax+0x18] ; ret  ; 
0x000ea2e0: mov eax, dword [eax+0x20] ; ret  ; 
0x00064b57: mov eax, dword [eax+0x28] ; ret  ; 
0x0006c294: mov eax, dword [eax+0x34] ; ret  ; 
0x0003d10e: mov eax, dword [eax+0x40] ; ret  ; 
0x0011f6c4: mov eax, dword [eax+0x48] ; ret  ; 
0x0011f6f4: mov eax, dword [eax+0x4C] ; ret  ; 
0x0011f714: mov eax, dword [eax+0x50] ; ret  ; 
0x0011f784: mov eax, dword [eax+0x54] ; ret  ; 
0x0002406c: mov eax, dword [eax+0x58] ; ret  ; 
0x0011f724: mov eax, dword [eax+0x5C] ; ret  ; 
0x000250f3: mov eax, dword [eax+edx*4+0x00000200] ; ret  ; 
0x00024b3e: mov eax, dword [eax+edx*4+0x40] ; ret  ; 
0x00025052: mov eax, dword [eax+edx*4] ; rep ret  ; 
0x000252db: mov eax, dword [eax+edx*4] ; ret  ; 
0x00072424: mov eax, dword [eax-0x17FFFFF9] ; retn 0x0816 ; 
0x000ac644: mov eax, dword [eax] ; ret  ; 
0x0011d5f1: mov eax, dword [ebp-0x54] ; call dword [ebx+0x000001E8] ; 
0x0011d21f: mov eax, dword [ebp-0x54] ; call dword [ebx+0x000001F0] ; 
0x0011d2c9: mov eax, dword [ebp-0x54] ; call dword [esi+0x000001F0] ; 
0x00119fc0: mov eax, dword [ebx+0x00000C04] ; call dword [eax+0x14] ; 
0x00119f91: mov eax, dword [ebx+0x00000C04] ; call dword [eax] ; 
0x000e8a5e: mov eax, dword [ecx+edx*4-0x00058860] ; rep ret  ; 
0x000186ce: mov eax, dword [ecx-0x000000DC] ; call dword [eax+0x000001E0] ; 
0x001058d7: mov eax, dword [edx+eax] ; ret  ; 
0x00060d27: mov eax, dword [edx] ; ret  ; 
0x001096b2: mov eax, dword [esp+0x000000AC] ; call dword [eax+0x10] ; 
0x0006c2a0: mov eax, dword [esp+0x04] ; ret  ; 
0x000ad3bd: mov eax, dword [esp+0x0C] ; call eax ; 
0x0011cabc: mov eax, dword [esp+0x10] ; call dword [eax+0x00000200] ; 
0x000e2a9c: mov eax, dword [esp+0x14] ; call dword [0x00000010] ; 
0x0006da8a: mov eax, dword [esp+0x18] ; call dword [eax] ; 
0x0011e420: mov eax, dword [esp+0x18] ; call eax ; 
0x0010f77c: mov eax, dword [esp+0x1C] ; call dword [eax+0x10] ; 
0x0006d3f4: mov eax, dword [esp+0x1C] ; call dword [eax] ; 
0x0002db5c: mov eax, dword [esp+0x1C] ; call eax ; 
0x000ee931: mov eax, dword [esp+0x24] ; call eax ; 
0x0010a2a7: mov eax, dword [esp+0x2C] ; call dword [eax+0x18] ; 
0x0010f844: mov eax, dword [esp+0x3C] ; call dword [eax+0x14] ; 
0x0001d813: mov eax, dword [esp+0x3C] ; call eax ; 
0x0001d001: mov eax, dword [esp+0x44] ; call eax ; 
0x0010fa5b: mov eax, dword [esp+0x4C] ; call dword [eax+0x10] ; 
0x0011fb09: mov eax, dword [esp] ; ret  ; 
0x000210e0: mov eax, ebp ; call dword [0x00000010] ; 
0x001048e7: mov eax, ecx ; call dword [0x00000010] ; 
0x0002cc81: mov eax, ecx ; ret  ; 
0x0002efa2: mov eax, ecx ; retn 0x0004 ; 
0x0002b0df: mov eax, edi ; call dword [0x00000010] ; 
0x000186b0: mov eax, edx ; call dword [0x00000010] ; 
0x0007d7a7: mov eax, edx ; ret  ; 
0x000e551f: mov eax, esi ; call dword [0x00000010] ; 
0x001669a1: mov eax, esi ; call dword [eax-0x1BFFFE94] ; 
0x000ad547: mov eax, esi ; call eax ; 
0x0010332a: mov eax, esi ; ret  ; 
0x000e9687: mov ebp, 0x01000000 ; retn 0x8689 ; 
0x0003d3de: mov ebp, 0x24040390 ; ret  ; 
0x000ff9e6: mov ebp, 0x39000000 ; retn 0x870F ; 
0x0013e28f: mov ebp, 0x5B000000 ; ret  ; 
0x0008f5a6: mov ebp, 0x5FF801C0 ; ret  ; 
0x0008fda5: mov ebp, 0x5FF801FF ; ret  ; 
0x00119d48: mov ebp, 0x65000000 ; call dword [0x00000010] ; 
0x00111d44: mov ebp, 0x810000DD ; ret  ; 
0x000f0744: mov ebp, 0x810002F3 ; ret  ; 
0x00065244: mov ebp, 0x81000BA8 ; ret  ; 
0x00132444: mov ebp, 0x81FFFED6 ; ret  ; 
0x00131944: mov ebp, 0x81FFFEE1 ; ret  ; 
0x0012b844: mov ebp, 0x81FFFF42 ; ret  ; 
0x0012a044: mov ebp, 0x81FFFF5A ; ret  ; 
0x00128044: mov ebp, 0x81FFFF7A ; ret  ; 
0x00046a1e: mov ebp, 0x83FFFFEF ; ret  ; 
0x00150dfd: mov ebp, 0xC1C0BFBE ; retn 0xC4C3 ; 
0x00152e06: mov ebp, 0xFB67D10D ; ret  ; 
0x00001b19: mov ebp, dword [esi+ebx*8+0x6D] ; retn 0x1BB7 ; 
0x0011fb19: mov ebp, dword [esp] ; ret  ; 
0x00157f19: mov ebp, edi ; call dword [0x9DFFEF8B] ; 
0x00158099: mov ebp, edi ; call dword [ebx+0x74] ; 
0x00157fe5: mov ebp, edi ; call dword [edi] ; 
0x00157f11: mov ebp, edi ; call ecx ; 
0x00157ebd: mov ebp, edi ; jmp dword [ebp-0x75] ; 
0x00157f04: mov ebp, edi ; jmp ebx ; 
0x00158055: mov ebp, edi ; jmp esp ; 
0x00175e01: mov ebp, esi ; call dword [esi+0x01] ; 
0x0017e00d: mov ebx, 0x41140E0A ; ret  ; 
0x000dd583: mov ebx, 0x65000000 ; call dword [0x00000010] ; 
0x00092759: mov ebx, 0x83000001 ; jmp dword [edi+ecx] ; 
0x0000377d: mov ebx, 0x952A6C41 ; ret  ; 
0x001020b7: mov ebx, dword [ebp-0x0000008C] ; call dword [0x00000010] ; 
0x000d8557: mov ebx, dword [ebp-0x000000B4] ; call dword [0x00000010] ; 
0x000d97b7: mov ebx, dword [ebp-0x000000C4] ; call dword [0x00000010] ; 
0x000cf745: mov ebx, dword [ebp-0x000000D4] ; call dword [0x00000010] ; 
0x0002361f: mov ebx, dword [ebp-0x000001D8] ; call dword [0x00000010] ; 
0x000e901e: mov ebx, dword [ebp-0x000003C8] ; call dword [0x00000010] ; 
0x000e5597: mov ebx, dword [ebp-0x3C] ; call dword [0x00000010] ; 
0x000e5496: mov ebx, dword [ebp-0x40] ; call dword [0x00000010] ; 
0x0011d521: mov ebx, dword [ebp-0x4C] ; call dword [ebx+0x000001E4] ; 
0x00068b06: mov ebx, dword [esi+0x38] ; call dword [0x00000010] ; 
0x0002c0f0: mov ebx, dword [esp+0x00000090] ; call dword [0x00000010] ; 
0x0002a90f: mov ebx, dword [esp+0x000000A0] ; call dword [0x00000010] ; 
0x0011a9cf: mov ebx, dword [esp+0x00000170] ; call dword [0x00000010] ; 
0x0001838a: mov ebx, dword [esp+0x08] ; call dword [0x00000010] ; 
0x000d518a: mov ebx, dword [esp+0x0C] ; call dword [0x00000010] ; 
0x0002a8b4: mov ebx, dword [esp+0x10] ; call dword [0x00000010] ; 
0x000d6a26: mov ebx, dword [esp+0x14] ; call dword [0x00000010] ; 
0x000adb21: mov ebx, dword [esp+0x30] ; call dword [0x00000010] ; 
0x000de6e7: mov ebx, dword [esp+0x40] ; call dword [0x00000010] ; 
0x000d5044: mov ebx, dword [esp+0x74] ; call dword [0x00000010] ; 
0x000767c0: mov ebx, dword [esp] ; ret  ; 
0x0002e936: mov ebx, eax ; call dword [ebx] ; 
0x0005fabf: mov ebx, ebp ; call dword [0x00000010] ; 
0x000178c9: mov ebx, edi ; call dword [0x00000010] ; 
0x000d49fd: mov ebx, edx ; call dword [0x00000010] ; 
0x000d5582: mov ebx, edx ; ret  ; 
0x00017995: mov ebx, esi ; call dword [0x00000010] ; 
0x000f3c27: mov ecx, 0x00000080 ; call dword [0x00000010] ; 
0x000b062e: mov ecx, 0x00000081 ; call dword [0x00000010] ; 
0x000e76bb: mov ecx, 0x65000000 ; call dword [0x00000010] ; 
0x000e3948: mov ecx, 0x810003C1 ; ret  ; 
0x000e3348: mov ecx, 0x810003C7 ; ret  ; 
0x00075b48: mov ecx, 0x81000A9F ; ret  ; 
0x0003b548: mov ecx, 0x81000E45 ; ret  ; 
0x0005326c: mov ecx, 0x83000000 ; ret  ; 
0x000de873: mov ecx, 0x89FFF39E ; ret  ; 
0x000a2add: mov ecx, dword [eax+0x0100001B] ; retn 0x9389 ; 
0x000e91fb: mov ecx, dword [ebp-0x000003CC] ; call dword [0x00000010] ; 
0x00044495: mov ecx, dword [ebp-0x05298F7D] ; call dword [eax+0x68] ; 
0x0001a38b: mov ecx, dword [ebp-0x38] ; call ecx ; 
0x001764a0: mov ecx, dword [edx] ; ret  ; 
0x0011b934: mov ecx, dword [esp+0x000002E0] ; call dword [0x00000010] ; 
0x000e2ce5: mov ecx, dword [esp+0x0C] ; call dword [0x00000010] ; 
0x000ab2df: mov ecx, dword [esp+0x10] ; call dword [0x00000010] ; 
0x000f42e5: mov ecx, dword [esp+0x14] ; call dword [0x00000010] ; 
0x000deade: mov ecx, dword [esp+0x20] ; call dword [0x00000010] ; 
0x000d58e2: mov ecx, dword [esp+0x24] ; call dword [0x00000010] ; 
0x000d5079: mov ecx, dword [esp+0x78] ; call dword [0x00000010] ; 
0x0011fb1d: mov ecx, dword [esp] ; ret  ; 
0x0001794a: mov ecx, ebp ; call dword [0x00000010] ; 
0x0001884d: mov ecx, edi ; call dword [0x00000010] ; 
0x0002c274: mov ecx, edx ; call dword [0x00000010] ; 
0x000ac3f2: mov ecx, esi ; call dword [0x00000010] ; 
0x00167029: mov ecx, esi ; call dword [edi-0x76BBFFFF] ; 
0x00167049: mov ecx, esi ; jmp dword [eax+ebp*4] ; 
0x00194628: mov edi, 0x41100E0A ; ret  ; 
0x0017cba5: mov edi, 0x43140E0A ; ret  ; 
0x00075ae9: mov edi, 0x5B08C483 ; ret  ; 
0x000dea6b: mov edi, 0x65000000 ; call dword [0x00000010] ; 
0x00112942: mov edi, 0x810000D1 ; ret  ; 
0x000f6f42: mov edi, 0x8100028B ; ret  ; 
0x000f6d42: mov edi, 0x8100028D ; ret  ; 
0x000e8842: mov edi, 0x81000372 ; ret  ; 
0x000e5742: mov edi, 0x810003A3 ; ret  ; 
0x000e2342: mov edi, 0x810003D7 ; ret  ; 
0x000a0d42: mov edi, 0x810007ED ; ret  ; 
0x0002fa42: mov edi, 0x81000F00 ; ret  ; 
0x00019b42: mov edi, 0x8100105F ; ret  ; 
0x00143b42: mov edi, 0x81FFFDBF ; ret  ; 
0x0013d642: mov edi, 0x81FFFE24 ; ret  ; 
0x0013d142: mov edi, 0x81FFFE29 ; ret  ; 
0x00123d42: mov edi, 0x81FFFFBD ; ret  ; 
0x0000287f: mov edi, 0xA9011612 ; ret  ; 
0x000ffb33: mov edi, dword [ecx+edx] ; call dword [0x00000010] ; 
0x000abde6: mov edi, dword [edx+ecx] ; call dword [0x00000010] ; 
0x001530c6: mov edi, dword [edx] ; ret  ; 
0x000e8ea3: mov edi, dword [esp+0x10] ; call dword [0x00000010] ; 
0x000e8d07: mov edi, dword [esp+0x14] ; call dword [0x00000010] ; 
0x000e8e0c: mov edi, dword [esp+0x18] ; call dword [0x00000010] ; 
0x00119c86: mov edi, dword [esp+0x1C] ; call dword [0x00000010] ; 
0x000e8e5c: mov edi, dword [esp+0x24] ; call dword [0x00000010] ; 
0x000e70bb: mov edi, dword [esp+0x2C] ; call dword [0x00000010] ; 
0x000dd2cb: mov edi, dword [esp] ; call dword [0x00000010] ; 
0x0011fb15: mov edi, dword [esp] ; ret  ; 
0x0009c18c: mov edi, eax ; call dword [eax+0x396FE853] ; 
0x000df27b: mov edi, ebp ; call dword [0x00000010] ; 
0x0017e229: mov edi, ebp ; call ebx ; 
0x00158109: mov edi, ebp ; jmp dword [ebx-0x06001087] ; 
0x000e8c87: mov edi, esi ; call dword [0x00000010] ; 
0x000ac3bc: mov edi, esp ; call dword [eax+0x0824448B] ; 
0x000e919d: mov edx, 0x00000040 ; call dword [0x00000010] ; 
0x000d66ef: mov edx, 0x00088000 ; call dword [0x00000010] ; 
0x000abebe: mov edx, 0x00098800 ; call dword [0x00000010] ; 
0x0002c69b: mov edx, 0x65000000 ; call dword [0x00000010] ; 
0x00113947: mov edx, 0x810000C1 ; ret  ; 
0x000fcd47: mov edx, 0x8100022D ; ret  ; 
0x000f5f47: mov edx, 0x8100029B ; ret  ; 
0x000b1f47: mov edx, 0x810006DB ; ret  ; 
0x0006a647: mov edx, 0x81000B54 ; ret  ; 
0x0006a147: mov edx, 0x81000B59 ; ret  ; 
0x00068e47: mov edx, 0x81000B6C ; ret  ; 
0x00065b47: mov edx, 0x81000B9F ; ret  ; 
0x00061647: mov edx, 0x81000BE4 ; ret  ; 
0x00060d47: mov edx, 0x81000BED ; ret  ; 
0x0003b447: mov edx, 0x81000E46 ; ret  ; 
0x00018f47: mov edx, 0x8100106B ; ret  ; 
0x0012bd47: mov edx, 0x81FFFF3D ; ret  ; 
0x00093212: mov edx, 0x83000000 ; ret  ; 
0x0007d0fc: mov edx, 0x83FFFFFE ; retn 0xEB01 ; 
0x0006b7b5: mov edx, 0xFFFFFFFF ; ret  ; 
0x0004a19a: mov edx, dword [edx+0x00000EEC] ; call dword [edx+eax*4] ; 
0x000d5e83: mov edx, dword [esp+0x00000098] ; call dword [0x00000010] ; 
0x0002ccd6: mov edx, dword [esp+0x000000A8] ; call dword [0x00000010] ; 
0x000dfbf0: mov edx, dword [esp+0x08] ; call dword [0x00000010] ; 
0x000d5819: mov edx, dword [esp+0x0C] ; call dword [0x00000010] ; 
0x000debae: mov edx, dword [esp+0x34] ; call dword [0x00000010] ; 
0x000e2b21: mov edx, dword [esp+0x74] ; call dword [0x00000010] ; 
0x0011fb0d: mov edx, dword [esp] ; ret  ; 
0x000dfe48: mov edx, eax ; call dword [0x00000010] ; 
0x00069082: mov edx, ebp ; call dword [0x00000010] ; 
0x000df65b: mov edx, ebx ; call dword [0x00000010] ; 
0x0011eeb2: mov edx, ebx ; call dword [esi+0x000001F0] ; 
0x00023125: mov edx, edi ; call dword [0x00000010] ; 
0x0011d002: mov edx, edi ; call dword [esi+0x000001E4] ; 
0x0016a031: mov edx, edi ; jmp dword [eax-0x08] ; 
0x000b007f: mov edx, esi ; call dword [0x00000010] ; 
0x000fb09b: mov edx, esp ; ret  ; 
0x000f3fe4: mov es, word [eax+0x39000038] ; retn 0x840F ; 
0x0011737a: mov es, word [eax-0x77000000] ; retn 0xE2C1 ; 
0x000dd9b5: mov es, word [ebx-0x7EFFFFFC] ; jmp esp ; 
0x00098aa7: mov es, word [ecx-0x76FFFFFA] ; ret  ; 
0x0003672c: mov es, word [esi-0x7CFFFFF1] ; call dword [0x0F408F0F] ; 
0x0003f356: mov esi, 0x39051044 ; ret  ; 
0x0003eed9: mov esi, 0x39132454 ; retn 0x8D0F ; 
0x0010d443: mov esi, 0x81000126 ; ret  ; 
0x000f1e43: mov esi, 0x810002DC ; ret  ; 
0x000cba43: mov esi, 0x81000540 ; ret  ; 
0x0007db4b: mov esi, 0x81000A1F ; retn 0x44B1 ; 
0x00079443: mov esi, 0x81000A66 ; ret  ; 
0x00076c43: mov esi, 0x81000A8E ; ret  ; 
0x00073443: mov esi, 0x81000AC6 ; ret  ; 
0x0005e343: mov esi, 0x81000C17 ; ret  ; 
0x0002f143: mov esi, 0x81000F09 ; ret  ; 
0x0002f043: mov esi, 0x81000F0A ; ret  ; 
0x00121e43: mov esi, 0x81FFFFDC ; ret  ; 
0x000a5aad: mov esi, 0x83D3890A ; retn 0xF601 ; 
0x00040749: mov esi, 0x89998304 ; ret  ; 
0x00150dfe: mov esi, 0xC2C1C0BF ; ret  ; 
0x0016496c: mov esi, 0xC8FFFCC3 ; retn 0xFFFC ; 
0x001424fe: mov esi, 0xF6000000 ; retn 0x0F0F ; 
0x00002c45: mov esi, 0xF8CBEB8F ; rep ret  ; 
0x000025cb: mov esi, dword [eax+0x32BF11B7] ; jmp dword [esi-0x74A6AAF1] ; 
0x000d52d4: mov esi, dword [esp+0x00000080] ; call dword [0x00000010] ; 
0x000e7324: mov esi, dword [esp+0x14] ; call dword [0x00000010] ; 
0x0011a470: mov esi, dword [esp+0x14] ; call dword [ebx-0x00000CDC] ; 
0x000e7153: mov esi, dword [esp+0x18] ; call dword [0x00000010] ; 
0x0011a4d0: mov esi, dword [esp+0x18] ; call dword [ebx-0x00000CDC] ; 
0x000f4393: mov esi, dword [esp+0x1C] ; call dword [0x00000010] ; 
0x000e8be7: mov esi, dword [esp+0x40] ; call dword [0x00000010] ; 
0x000dcedc: mov esi, dword [esp+0x4C] ; call dword [0x00000010] ; 
0x0011fb11: mov esi, dword [esp] ; ret  ; 
0x00175ccc: mov esi, ebp ; jmp edi ; 
0x000dfc0b: mov esi, ebx ; jmp dword [esi-0x70] ; 
0x000fb42b: mov esi, ebx ; ret  ; 
0x000dd635: mov esi, ecx ; call dword [0x00000010] ; 
0x00188241: mov esi, ecx ; jmp dword [esi] ; 
0x0005f78d: mov esi, edx ; call dword [0x00000010] ; 
0x001442b1: mov esi, edx ; jmp dword [esi-0x70] ; 
0x000770ef: mov esi, edx ; ret  ; 
0x000daea6: mov esi, esi ; retn 0x0F40 ; 
0x00164898: mov esp, 0x0CFFFCC1 ; retn 0xFFFC ; 
0x00164990: mov esp, 0x0CFFFCC2 ; ret  ; 
0x000900b1: mov esp, 0x10448DC0 ; ret  ; 
0x0016ac1c: mov esp, 0x24000163 ; retn 0xFFFB ; 
0x00040684: mov esp, 0x39FFFFFB ; ret  ; 
0x00040921: mov esp, 0x39FFFFFB ; retn 0x870F ; 
0x0008f9f1: mov esp, 0x5FF801C0 ; ret  ; 
0x00119cc8: mov esp, 0x65000000 ; call dword [0x00000010] ; 
0x00112d45: mov esp, 0x810000CD ; ret  ; 
0x0010ce45: mov esp, 0x8100012C ; ret  ; 
0x0010b445: mov esp, 0x81000146 ; ret  ; 
0x0010b045: mov esp, 0x8100014A ; ret  ; 
0x00105545: mov esp, 0x810001A5 ; ret  ; 
0x00103c45: mov esp, 0x810001BE ; ret  ; 
0x000ef945: mov esp, 0x81000301 ; ret  ; 
0x000eb945: mov esp, 0x81000341 ; ret  ; 
0x000d6c45: mov esp, 0x8100048E ; ret  ; 
0x000bdc45: mov esp, 0x8100061E ; ret  ; 
0x000ae845: mov esp, 0x81000712 ; ret  ; 
0x000ae345: mov esp, 0x81000717 ; ret  ; 
0x0009f445: mov esp, 0x81000806 ; ret  ; 
0x00071e45: mov esp, 0x81000ADC ; ret  ; 
0x0006d145: mov esp, 0x81000B29 ; ret  ; 
0x00063145: mov esp, 0x81000BC9 ; ret  ; 
0x00061c45: mov esp, 0x81000BDE ; ret  ; 
0x0005b445: mov esp, 0x81000C46 ; ret  ; 
0x00018e45: mov esp, 0x8100106C ; ret  ; 
0x0012a245: mov esp, 0x81FFFF58 ; ret  ; 
0x00128245: mov esp, 0x81FFFF78 ; ret  ; 
0x00121845: mov esp, 0x81FFFFE2 ; ret  ; 
0x0007d1e9: mov esp, 0x83110488 ; retn 0x3901 ; 
0x000876f3: mov esp, 0x83CE01D2 ; retn 0x2910 ; 
0x0010eedb: mov esp, 0x90669066 ; rep ret  ; 
0x00184d84: mov esp, 0xA800019B ; ret  ; 
0x00172a75: mov esp, ebp ; call dword [ebx+0x00] ; 
0x0002bd3f: mov esp, ecx ; jmp edx ; 
0x0017e3f9: mov gs, di ; call dword [ecx] ; 
0x00166031: mov gs, di ; jmp eax ; 
0x00175eed: mov gs, si ; call dword [ecx+eax+0x77040000] ; 
0x0019c1a0: mov seg?, bp ; jmp dword [eax+eax+0x41000000] ; 
0x0019c160: mov seg?, bp ; jmp dword [eax+eax] ; 
0x0007e12b: mov seg?, di ; jmp dword [esi-0x70] ; 
0x001a458d: mov seg?, si ; jmp dword [ebx+0x00000000] ; 
0x000fac96: mov seg?, sp ; call dword [eax-0x18] ; 
0x001643b9: mov sp, seg? ; jmp dword [eax] ; 
0x000397a4: mov ss, word [eax-0x7CFFFFF6] ; jmp dword [eax] ; 
0x000cfd76: mov word [0xE9020000], ds ; ret  ; 
0x00165944: mov word [eax+eax-0x13616C00], seg? ; jmp esp ; 
0x00183f54: mov word [ebp-0x44E7FFFF], cs ; call dword [ebx+eax+0x03000000] ; 
0x001ab344: mov word [ebx-0x09], es ; call dword [edx] ; 
0x00192a14: mov word [ebx-0x0C], cs ; jmp dword [esi] ; 
0x00166db4: mov word [ecx+eax-0x0EDB2C00], ss ; jmp dword [eax+0x24000194] ; 
0x0018cf94: mov word [ecx], cs ; call dword [eax+eax+0x00] ; 
0x0019ed48: mov word [edx+ecx], es ; ret  ; 
0x001a1609: mov word [edx], cs ; ret  ; 
0x00167fd0: movsb  ; ret  ; 
0x000331b3: movsb  ; retn 0x8902 ; 
0x000ea1e7: movsb  ; retn 0x8B11 ; 
0x000e9f24: movsb  ; retn 0x8B12 ; 
0x000334da: movsb  ; retn 0xC102 ; 
0x001652b0: movsb  ; retn 0xFFEB ; 
0x00167298: movsb  ; retn 0xFFF2 ; 
0x00168800: movsb  ; retn 0xFFF7 ; 
0x0003d9fe: movsd  ; ret  ; 
0x0002c77b: movzx eax, al ; ret  ; 
0x00024e35: movzx eax, ax ; ret  ; 
0x00067d72: movzx eax, byte [edx] ; ret  ; 
0x00021897: mul esi ; call dword [eax-0x01] ; 
0x000912d6: neg byte [ebp-0x02] ; jmp dword [esi-0x70] ; 
0x000cbe2b: neg eax ; rep ret  ; 
0x0005bf10: neg eax ; ret  ; 
0x001442df: nop  ; call dword [ebx] ; 
0x0018c389: nop  ; call dword [esi] ; 
0x00017746: nop  ; jmp dword [ebx-0x0000003C] ; 
0x0011bd16: nop  ; jmp dword [esi-0x70] ; 
0x000f7583: nop  ; jmp edx ; 
0x00025054: nop  ; rep ret  ; 
0x0000a22c: nop  ; ret  ; 
0x0000c29c: nop  ; retn 0x0006 ; 
0x00003046: nop  ; retn 0x5BDB ; 
0x00171221: or ah, ch ; jmp dword [edi] ; 
0x000a65c3: or al, 0x01 ; ret  ; 
0x00074555: or al, 0x01 ; retn 0x1089 ; 
0x00115856: or al, 0x01 ; retn 0x5189 ; 
0x001513cb: or al, 0x0C ; ret  ; 
0x0011287d: or al, 0x10 ; ret  ; 
0x00068f7a: or al, 0x21 ; retn 0xFA83 ; 
0x0011fb1e: or al, 0x24 ; ret  ; 
0x0009e73e: or al, 0x29 ; ret  ; 
0x000fc41b: or al, 0x29 ; retn 0xC283 ; 
0x00079706: or al, 0x29 ; retn 0xE801 ; 
0x0002a57b: or al, 0x31 ; call dword [eax-0x18] ; 
0x000d6983: or al, 0x31 ; call dword [esi-0x18] ; 
0x00047421: or al, 0x39 ; ret  ; 
0x001114ce: or al, 0x39 ; retn 0x1572 ; 
0x00132ffc: or al, 0x39 ; retn 0x1D72 ; 
0x00130e4c: or al, 0x39 ; retn 0x2D72 ; 
0x000a3063: or al, 0x39 ; retn 0x9275 ; 
0x0010cc37: or al, 0x39 ; retn 0x960F ; 
0x0011e52c: or al, 0x39 ; retn 0xA773 ; 
0x0004eeff: or al, 0x39 ; retn 0xFFB8 ; 
0x0016d1e7: or al, 0x41 ; ret  ; 
0x0016f2b9: or al, 0x43 ; ret  ; 
0x00170b16: or al, 0x44 ; ret  ; 
0x0017c0d2: or al, 0x45 ; ret  ; 
0x0016ed54: or al, 0x46 ; ret  ; 
0x0017c1e9: or al, 0x47 ; ret  ; 
0x0018ac23: or al, 0x48 ; ret  ; 
0x0005e011: or al, 0x50 ; call dword [eax+0x10] ; 
0x0002ee73: or al, 0x50 ; call dword [ebp+0x000007FC] ; 
0x0006c766: or al, 0x50 ; call dword [ebx+0x0000009C] ; 
0x00074834: or al, 0x50 ; call dword [ebx+0x20] ; 
0x00115d19: or al, 0x50 ; call dword [esp+0x60] ; 
0x0018b814: or al, 0x51 ; call dword [edx+0x01] ; 
0x001121d0: or al, 0x52 ; call dword [eax+0x10] ; 
0x000b356e: or al, 0x52 ; call dword [eax+0x20] ; 
0x00062e8a: or al, 0x52 ; call dword [ebx+0x0000009C] ; 
0x0011d162: or al, 0x52 ; call dword [ecx+0x08] ; 
0x0006a828: or al, 0x52 ; call eax ; 
0x00109275: or al, 0x53 ; call dword [eax+0x10] ; 
0x00063b45: or al, 0x53 ; call dword [ebx+0x10] ; 
0x000fdae3: or al, 0x53 ; call eax ; 
0x00110b4e: or al, 0x55 ; call dword [eax+0x10] ; 
0x000648b5: or al, 0x55 ; call dword [ebp+0x10] ; 
0x0006c463: or al, 0x55 ; call dword [esi+0x00000098] ; 
0x00110b65: or al, 0x55 ; call eax ; 
0x0010e367: or al, 0x56 ; call dword [eax+0x10] ; 
0x0004224e: or al, 0x56 ; call dword [eax+0x1C] ; 
0x00060477: or al, 0x56 ; call dword [eax+0x2C] ; 
0x00121775: or al, 0x56 ; call dword [eax+0x44] ; 
0x00074762: or al, 0x56 ; call dword [ebx+0x1C] ; 
0x00018709: or al, 0x56 ; call eax ; 
0x000ac9ae: or al, 0x56 ; call edi ; 
0x0010a2df: or al, 0x56 ; call edx ; 
0x00108741: or al, 0x57 ; call dword [eax+0x10] ; 
0x00063e6d: or al, 0x57 ; call dword [edi+0x10] ; 
0x0010a6b9: or al, 0x57 ; call dword [esi] ; 
0x0010875b: or al, 0x57 ; call eax ; 
0x000e1443: or al, 0x5B ; ret  ; 
0x00083fe4: or al, 0x5F ; ret  ; 
0x000d4f60: or al, 0x65 ; call dword [0x00000010] ; 
0x000d54fd: or al, 0x6A ; call dword [edi-0x01] ; 
0x000ab733: or al, 0x6B ; ret  ; 
0x000bfb43: or al, 0x74 ; retn 0xB60F ; 
0x0011d2b4: or al, 0x81 ; retn 0x01D0 ; 
0x00029e11: or al, 0x83 ; ret  ; 
0x0005a663: or al, 0x83 ; retn 0x3901 ; 
0x0010e812: or al, 0x83 ; retn 0x5208 ; 
0x000710fd: or al, 0x83 ; retn 0x8308 ; 
0x0009116d: or al, 0x83 ; retn 0x8310 ; 
0x000c96af: or al, 0x83 ; retn 0xE808 ; 
0x000259f1: or al, 0x89 ; ret  ; 
0x000909c8: or al, 0x89 ; retn 0x05EB ; 
0x000e596c: or al, 0x89 ; retn 0x50E9 ; 
0x000f218a: or al, 0x89 ; retn 0x64E9 ; 
0x0011d5e9: or al, 0x89 ; retn 0x75FF ; 
0x0011a969: or al, 0x89 ; retn 0x8365 ; 
0x00034aa8: or al, 0x89 ; retn 0xC031 ; 
0x0003ffb3: or al, 0x89 ; retn 0xC189 ; 
0x0006972b: or al, 0x89 ; retn 0xC483 ; 
0x00106b62: or al, 0x89 ; retn 0xD889 ; 
0x0006fd69: or al, 0x89 ; retn 0xE283 ; 
0x000a1a91: or al, 0x89 ; retn 0xE883 ; 
0x000fdcb1: or al, 0x89 ; retn 0xE889 ; 
0x0011e54c: or al, 0x89 ; retn 0xF089 ; 
0x000912b2: or al, 0x89 ; retn 0xF229 ; 
0x000c2395: or al, 0x89 ; retn 0xF389 ; 
0x000c1f3c: or al, 0x89 ; retn 0xF989 ; 
0x0002ba27: or al, 0x89 ; retn 0xFF25 ; 
0x000dfe47: or al, 0x89 ; retn 0xFF65 ; 
0x000f7582: or al, 0x90 ; jmp edx ; 
0x000876c3: or al, 0x91 ; jmp ecx ; 
0x000877ea: or al, 0x99 ; jmp ecx ; 
0x00144995: or al, 0xE7 ; call dword [eax+0x20FFE70D] ; 
0x00047d3a: or al, 0xE9 ; retn 0xFFF7 ; 
0x00173f79: or al, 0xED ; call dword [ebp+0x00] ; 
0x00173fb5: or al, 0xED ; call dword [ecx+0x00000023] ; 
0x0017aa25: or al, 0xEF ; call dword [eax+eax+0x41000000] ; 
0x0017a9e0: or al, 0xEF ; jmp dword [edi] ; 
0x00156eb5: or al, 0xF3 ; call dword [eax+0x0C] ; 
0x00156ebd: or al, 0xF3 ; jmp dword [eax-0x3F000CF4] ; 
0x00156ec5: or al, 0xF3 ; jmp eax ; 
0x00072283: or al, 0xF3 ; ret  ; 
0x000efdf0: or al, 0xF6 ; ret  ; 
0x0004a32a: or al, 0xF6 ; retn 0x0F08 ; 
0x00045dc6: or al, 0xF6 ; retn 0x0F50 ; 
0x000efffa: or al, 0xF6 ; retn 0x7504 ; 
0x001a98b5: or al, 0xF7 ; call dword [edi+0x00] ; 
0x001a9985: or al, 0xF7 ; jmp dword [ecx+0x00] ; 
0x00169511: or al, 0xF9 ; jmp dword [ebp+esi*2+0x03] ; 
0x000e3fee: or al, 0xFF ; call edi ; 
0x000f314c: or al, byte [ebp-0x0CF08B37] ; ret  ; 
0x000ef8c1: or al, byte [ebx+0x5E5B14C4] ; ret  ; 
0x000ae1c5: or al, byte [ebx+0x5E5B24C4] ; ret  ; 
0x00000877: or al, byte [ecx] ; ret  ; 
0x000de187: or al, ch ; ret  ; 
0x000577a8: or al, ch ; retn 0x00AE ; 
0x000c5898: or al, ch ; retn 0xFFEF ; 
0x00158584: or al, dh ; call eax ; 
0x00158589: or al, dh ; jmp eax ; 
0x0016aea1: or bh, ah ; call dword [eax-0x3BFFFE40] ; 
0x0016aea9: or bh, ah ; jmp dword [eax+eax*8+0x10440001] ; 
0x00168b19: or bh, al ; call dword [esp] ; 
0x00168b29: or bh, al ; jmp dword [esp+0x03] ; 
0x00168b39: or bh, al ; jmp dword [esp+0x0B040003] ; 
0x0001c16b: or bh, bl ; call dword [eax+0x68] ; 
0x0001c18e: or bh, bl ; call dword [eax-0x73] ; 
0x0017a599: or bh, ch ; jmp dword [eax+0x00] ; 
0x0002090a: or bl, bh ; call dword [eax+0x68] ; 
0x00020145: or bl, bh ; call dword [eax-0x73] ; 
0x000e7335: or bl, byte [ebx+0x5E] ; ret  ; 
0x00068263: or bl, ch ; retn 0x768D ; 
0x000b1ca7: or bl, dh ; ret  ; 
0x000de356: or byte [0x0000100F], ah ; ret  ; 
0x00156ed8: or byte [0x0DB0FFF3], 0xFFFFFFF3 ; jmp eax ; 
0x000d5b06: or byte [eax+0x00000003], bh ; call dword [0x00000010] ; 
0x000d5b76: or byte [eax+0x00000004], bh ; call dword [0x00000010] ; 
0x000d56f6: or byte [eax+0x00000005], bh ; call dword [0x00000010] ; 
0x000b0116: or byte [eax+0x00000007], bh ; call dword [0x00000010] ; 
0x000d63ed: or byte [eax+0x00000008], bh ; call dword [0x00000010] ; 
0x000b07ec: or byte [eax+0x0000000B], bh ; call dword [0x00000010] ; 
0x000d5bdc: or byte [eax+0x00000013], bh ; call dword [0x00000010] ; 
0x000df14c: or byte [eax+0x00000036], bh ; call dword [0x00000010] ; 
0x000d75dc: or byte [eax+0x00000055], bh ; call dword [0x00000010] ; 
0x000def5c: or byte [eax+0x00000061], bh ; call dword [0x00000010] ; 
0x000e6f0c: or byte [eax+0x00000065], bh ; call dword [0x00000010] ; 
0x000e796c: or byte [eax+0x00000067], bh ; call dword [0x00000010] ; 
0x000a3b9c: or byte [eax+0x00000068], bh ; call dword [0x00000010] ; 
0x000e754c: or byte [eax+0x0000007B], bh ; call dword [0x00000010] ; 
0x000e2d5c: or byte [eax+0x0000007D], bh ; call dword [0x00000010] ; 
0x000e771c: or byte [eax+0x0000007F], bh ; call dword [0x00000010] ; 
0x000e774c: or byte [eax+0x00000081], bh ; call dword [0x00000010] ; 
0x000e2d96: or byte [eax+0x00000090], bh ; call dword [0x00000010] ; 
0x000df186: or byte [eax+0x00000091], bh ; call dword [0x00000010] ; 
0x000df1f6: or byte [eax+0x00000092], bh ; call dword [0x00000010] ; 
0x000cbc8c: or byte [eax+0x0000009C], bh ; call dword [0x00000010] ; 
0x000b03bd: or byte [eax+0x000000A2], bh ; call dword [0x00000010] ; 
0x000dce46: or byte [eax+0x000000A8], bh ; call dword [0x00000010] ; 
0x000e7a1c: or byte [eax+0x000000A9], bh ; call dword [0x00000010] ; 
0x000d6e1c: or byte [eax+0x000000C6], bh ; call dword [0x00000010] ; 
0x000d6dec: or byte [eax+0x000000CF], bh ; call dword [0x00000010] ; 
0x000b152c: or byte [eax+0x000000D1], bh ; call dword [0x00000010] ; 
0x000b155c: or byte [eax+0x000000D3], bh ; call dword [0x00000010] ; 
0x000d6dbc: or byte [eax+0x000000D4], bh ; call dword [0x00000010] ; 
0x000e2e2c: or byte [eax+0x000000DA], bh ; call dword [0x00000010] ; 
0x000e2dfc: or byte [eax+0x000000DB], bh ; call dword [0x00000010] ; 
0x000e5aac: or byte [eax+0x000000E8], bh ; call dword [0x00000010] ; 
0x000e5b0c: or byte [eax+0x000000E9], bh ; call dword [0x00000010] ; 
0x000e59dc: or byte [eax+0x000000EA], bh ; call dword [0x00000010] ; 
0x000e78cc: or byte [eax+0x00000124], bh ; call dword [0x00000010] ; 
0x000d56bc: or byte [eax+0x00000128], bh ; call dword [0x00000010] ; 
0x000d765c: or byte [eax+0x0000012D], bh ; call dword [0x00000010] ; 
0x000d75ac: or byte [eax+0x00000130], bh ; call dword [0x00000010] ; 
0x000d633c: or byte [eax+0x0000014A], bh ; call dword [0x00000010] ; 
0x000e7e26: or byte [eax+0x00000156], bh ; call dword [0x00000010] ; 
0x0016b6f7: or byte [eax+0x0A], cl ; ret  ; 
0x0002cc0b: or byte [eax+eax+0x00], 0x00000000 ; ret  ; 
0x00056f38: or byte [eax-0x01], 0xFFFFFFFF ; call ecx ; 
0x000f1bb3: or byte [eax-0x06], 0xFFFFFFFA ; call dword [eax+0x6A] ; 
0x00111a97: or byte [eax-0x18], dl ; retn 0xFFDE ; 
0x0008730c: or byte [eax-0x2F76F7BE], cl ; ret  ; 
0x00077755: or byte [eax-0x7D], dh ; retn 0x8B20 ; 
0x000d66f1: or byte [eax], 0x00000000 ; call dword [0x00000010] ; 
0x0008fcc5: or byte [eax], ah ; ret  ; 
0x000d66f2: or byte [eax], al ; call dword [0x00000010] ; 
0x0003f0e2: or byte [eax], al ; ret  ; 
0x0008fcd5: or byte [eax], dh ; ret  ; 
0x0008fcb5: or byte [eax], dl ; ret  ; 
0x000bc258: or byte [ebp+0x390474C0], al ; ret  ; 
0x000bc2cc: or byte [ebp+0x39EF74C0], al ; retn 0xD475 ; 
0x000e476f: or byte [ebp+0x53], dl ; call dword [esp+0x50] ; 
0x000741eb: or byte [ebp+0x56], dl ; call eax ; 
0x000e47fd: or byte [ebp+0x57], dl ; call dword [esp+0x40] ; 
0x00085ccd: or byte [ebp+0x5B5F0C42], cl ; ret  ; 
0x00085d0c: or byte [ebp+0x5B5F1042], cl ; ret  ; 
0x000ab72f: or byte [ebp+0x6B0C74C0], al ; ret  ; 
0x0011a492: or byte [ebp-0x000CDB7D], cl ; call dword [esi-0x01] ; 
0x00105188: or byte [ebp-0x0500537A], cl ; call dword [eax-0x73] ; 
0x000d8184: or byte [ebp-0x0508D77A], cl ; call dword [eax-0x73] ; 
0x000d81a7: or byte [ebp-0x0508E77A], cl ; call dword [eax-0x73] ; 
0x000cd2bb: or byte [ebp-0x050ACB7D], cl ; call dword [eax-0x73] ; 
0x00019a91: or byte [ebp-0x0531FB7A], cl ; call dword [eax-0x73] ; 
0x00105d91: or byte [ebp-0x0537CE7D], cl ; call dword [eax+0x57] ; 
0x000cef0b: or byte [ebp-0x054D6880], cl ; call dword [eax-0x01] ; 
0x000266a9: or byte [ebp-0x0552B880], cl ; call dword [eax+0x52] ; 
0x00035b35: or byte [ebp-0x0567197A], cl ; call dword [ebx+0x6A] ; 
0x0011e969: or byte [ebp-0x0CFD8A37], al ; ret  ; 
0x000d76d8: or byte [ebp-0x0D983F6D], cl ; call dword [edx+0x56] ; 
0x000b48ee: or byte [ebp-0x50], 0xFFFFFFFA ; call dword [eax-0x18] ; 
0x000245a8: or byte [ebp-0x5CF000BA], cl ; retn 0x8F72 ; 
0x000d237d: or byte [ebp-0x76B3DBB4], cl ; retn 0x9C8B ; 
0x0016d943: or byte [ebx+0x018D0302], al ; ret  ; 
0x00187e2d: or byte [ebx+0x040E4502], al ; ret  ; 
0x0017e23c: or byte [ebx+0x040E4602], al ; ret  ; 
0x0018169d: or byte [ebx+0x040E4702], al ; ret  ; 
0x00187d38: or byte [ebx+0x040E4802], al ; ret  ; 
0x0018142f: or byte [ebx+0x040E4902], al ; ret  ; 
0x00181a88: or byte [ebx+0x040E4B02], al ; ret  ; 
0x00181aa3: or byte [ebx+0x040E4E02], al ; ret  ; 
0x00181ad0: or byte [ebx+0x040E4F02], al ; ret  ; 
0x00181a76: or byte [ebx+0x040E5002], al ; ret  ; 
0x00181a6d: or byte [ebx+0x040E5102], al ; ret  ; 
0x00181a7f: or byte [ebx+0x040E5202], al ; ret  ; 
0x00173010: or byte [ebx+0x040E5702], al ; ret  ; 
0x0018092a: or byte [ebx+0x040E5902], al ; ret  ; 
0x0017e233: or byte [ebx+0x040E5B02], al ; ret  ; 
0x00181b3e: or byte [ebx+0x040E5D02], al ; ret  ; 
0x00181b6b: or byte [ebx+0x040E5F02], al ; ret  ; 
0x0017fe6a: or byte [ebx+0x040E6002], al ; ret  ; 
0x00181b11: or byte [ebx+0x040E6102], al ; ret  ; 
0x0017fe61: or byte [ebx+0x040E6202], al ; ret  ; 
0x00181b74: or byte [ebx+0x040E6302], al ; ret  ; 
0x00181b1a: or byte [ebx+0x040E6502], al ; ret  ; 
0x00181759: or byte [ebx+0x040E6602], al ; ret  ; 
0x00181ee9: or byte [ebx+0x040E6702], al ; ret  ; 
0x00181f4c: or byte [ebx+0x040E6902], al ; ret  ; 
0x0017fec6: or byte [ebx+0x040E6A02], al ; ret  ; 
0x0017fea2: or byte [ebx+0x040E6B02], al ; ret  ; 
0x00181f04: or byte [ebx+0x040E6D02], al ; ret  ; 
0x00181b7d: or byte [ebx+0x040E6F02], al ; ret  ; 
0x0017fe90: or byte [ebx+0x040E7002], al ; ret  ; 
0x00181125: or byte [ebx+0x040E7102], al ; ret  ; 
0x0017fe87: or byte [ebx+0x040E7202], al ; ret  ; 
0x00181750: or byte [ebx+0x040E7302], al ; ret  ; 
0x0017ffa6: or byte [ebx+0x040E7A02], al ; ret  ; 
0x0017feea: or byte [ebx+0x040E7B02], al ; ret  ; 
0x0016d97f: or byte [ebx+0x0A400202], al ; ret  ; 
0x0019b593: or byte [ebx+0x0A410202], al ; ret  ; 
0x00187cb3: or byte [ebx+0x0A4C0202], al ; ret  ; 
0x0019757f: or byte [ebx+0x0A530202], al ; ret  ; 
0x0018bd6b: or byte [ebx+0x0A6C0202], al ; ret  ; 
0x0018540f: or byte [ebx+0x0A6E0202], al ; ret  ; 
0x00060e85: or byte [ebx+0x0CC48302], cl ; ret  ; 
0x00132ff8: or byte [ebx+0x390C2454], cl ; retn 0x1D72 ; 
0x00130e48: or byte [ebx+0x390C2454], cl ; retn 0x2D72 ; 
0x00003e77: or byte [ebx+0x4E], ch ; retn 0x6BBA ; 
0x00108686: or byte [ebx+0x50532050], cl ; call dword [edx+0x08] ; 
0x0010851e: or byte [ebx+0x50572050], cl ; call dword [edx+0x04] ; 
0x0011d10a: or byte [ebx+0x51], dl ; call dword [edx+0x04] ; 
0x0010f19a: or byte [ebx+0x56530446], cl ; call dword [eax+0x24] ; 
0x000bc242: or byte [ebx+0x56], dl ; call edi ; 
0x0008bae6: or byte [ebx+0x5E082444], cl ; ret  ; 
0x000ee7d4: or byte [ebx+0x5E5B04C4], al ; ret  ; 
0x0006c881: or byte [ebx+0x5E5B14C4], al ; ret  ; 
0x000910a2: or byte [ebx+0x5E], bl ; ret  ; 
0x0003af38: or byte [ebx-0x00008763], cl ; call dword [edx-0x01] ; 
0x000f29d8: or byte [ebx-0x0000BB63], cl ; call dword [edi-0x01] ; 
0x000b4f6c: or byte [ebx-0x0000FB63], cl ; call dword [esi+0x50] ; 
0x000b3e01: or byte [ebx-0x0000FB63], cl ; call dword [esi-0x01] ; 
0x000b80b9: or byte [ebx-0x00010B63], cl ; call dword [esi+0x50] ; 
0x000b6f39: or byte [ebx-0x00010B63], cl ; call dword [esi-0x01] ; 
0x00023c32: or byte [ebx-0x0001B363], cl ; call dword [ecx+0x52] ; 
0x00023283: or byte [ebx-0x0001B363], cl ; call dword [esi-0x01] ; 
0x00056ad3: or byte [ebx-0x0004AB63], cl ; call dword [edx+0x50] ; 
0x0005576f: or byte [ebx-0x0004B343], cl ; call dword [esi-0x01] ; 
0x000505ed: or byte [ebx-0x00055B63], cl ; call dword [ecx+0x50] ; 
0x000540f7: or byte [ebx-0x00055B63], cl ; call dword [ecx+0x52] ; 
0x0004fc1f: or byte [ebx-0x00055B63], cl ; call dword [edx+0x50] ; 
0x00054e8a: or byte [ebx-0x0005937B], cl ; jmp dword [edi+edi*2] ; 
0x00073318: or byte [ebx-0x09EBDBA4], cl ; ret  ; 
0x0018c2f8: or byte [ebx-0x0E], dh ; call dword [ecx+0x1D] ; 
0x0016df88: or byte [ebx-0x15], dh ; call dword [edi] ; 
0x0006bfd2: or byte [ebx-0x2FD6F7BF], cl ; ret  ; 
0x00173d48: or byte [ebx-0x43CC0000], 0xFFFFFFEC ; jmp dword [eax+0x02] ; 
0x00075211: or byte [ebx-0x69F0F606], al ; retn 0xC931 ; 
0x000e6235: or byte [ebx-0x6C7297BE], cl ; retn 0xFAB8 ; 
0x00035764: or byte [ebx-0x768778C4], al ; retn 0x840F ; 
0x000909c4: or byte [ebx-0x76F3DBB4], cl ; retn 0x05EB ; 
0x0002b1d3: or byte [ebx-0x76FBDBB4], cl ; retn 0xF8C1 ; 
0x0005da4e: or byte [ebx-0x76FEFBBE], al ; retn 0xE281 ; 
0x000befbb: or byte [ebx-0x77], dl ; ret  ; 
0x001178bc: or byte [ebx-0x7BF0FA08], al ; retn 0x0000 ; 
0x00077df7: or byte [ebx-0x7CFBDBBC], cl ; retn 0x8301 ; 
0x000f2aeb: or byte [ebx], 0xFFFFFFFB ; call dword [eax-0x75] ; 
0x0003b172: or byte [ecx+0x01C083F8], 0x00000039 ; retn 0x1477 ; 
0x0002b61d: or byte [ecx+0x04C48310], cl ; ret  ; 
0x000c121b: or byte [ecx+0x08478937], 0xFFFFFF89 ; ret  ; 
0x000de252: or byte [ecx+0x1FFEC1D6], cl ; call dword [0x00000010] ; 
0x00112e1a: or byte [ecx+0x50], dl ; call dword [edx+0x0C] ; 
0x0010a242: or byte [ecx+0x52], dl ; call dword [ebx+esi*4-0x00000260] ; 
0x0011d0a2: or byte [ecx+0x52], dl ; call dword [ebx] ; 
0x0002c296: or byte [ecx+0x5F5E5BD0], 0x0000005D ; ret  ; 
0x000d8279: or byte [ecx-0x0000B37B], cl ; call dword [edi+0x50] ; 
0x000d94c9: or byte [ecx-0x0000C37B], cl ; call dword [edi+0x50] ; 
0x00028d68: or byte [ecx-0x0001C36B], cl ; call dword [eax-0x01] ; 
0x00041c75: or byte [ecx-0x00043B73], cl ; call dword [eax+0x57] ; 
0x00041bc9: or byte [ecx-0x00044373], cl ; call dword [eax+0x57] ; 
0x000fd90f: or byte [ecx-0x00047B7B], cl ; call dword [edi+0x52] ; 
0x00051f53: or byte [ecx-0x00056B6B], cl ; call dword [eax+0x56] ; 
0x00054b5b: or byte [ecx-0x0005EF73], cl ; call dword [eax-0x01] ; 
0x0005d967: or byte [ecx-0x000FFF1E], al ; jmp dword [0x00000FFF] ; 
0x0017d138: or byte [ecx-0x04], ch ; jmp dword [edx] ; 
0x0016535c: or byte [ecx-0x090C0000], 0xFFFFFFEB ; call eax ; 
0x0019a938: or byte [ecx-0x0B], al ; jmp dword [edx+0x00] ; 
0x000cd70f: or byte [ecx-0x142976EA], cl ; retn 0x458B ; 
0x0016cf98: or byte [ecx-0x15], al ; jmp dword [edi] ; 
0x0008736c: or byte [ecx-0x2F76F7BE], cl ; ret  ; 
0x000d44e7: or byte [ecx-0x3FCEFBB0], cl ; ret  ; 
0x000644df: or byte [ecx-0x7617D638], cl ; ret  ; 
0x0003c6c5: or byte [ecx-0x763CA428], cl ; retn 0x748D ; 
0x00077b8b: or byte [ecx-0x76F7DBA4], cl ; ret  ; 
0x0011e108: or byte [ecx-0x76F7DBBC], cl ; ret  ; 
0x00090712: or byte [ecx-0x76FBDBB4], cl ; retn 0x850F ; 
0x0001f2cb: or byte [ecx], 0xFFFFFFFB ; call dword [eax+0x68] ; 
0x0001f351: or byte [ecx], 0xFFFFFFFB ; call dword [eax-0x73] ; 
0x0002aaa8: or byte [ecx], al ; ret  ; 
0x000a1908: or byte [ecx], al ; retn 0x048D ; 
0x00119b17: or byte [ecx], al ; retn 0x5439 ; 
0x0002af98: or byte [ecx], al ; retn 0x5489 ; 
0x0002adcc: or byte [ecx], al ; retn 0x8952 ; 
0x000a3541: or byte [ecx], al ; retn 0xF8C1 ; 
0x0006f2eb: or byte [ecx], bh ; ret  ; 
0x0003f430: or byte [ecx], bh ; retn 0x0489 ; 
0x0012fd2c: or byte [ecx], bh ; retn 0x1D72 ; 
0x0012bafc: or byte [ecx], bh ; retn 0x2D72 ; 
0x00116864: or byte [ecx], bh ; retn 0x3F75 ; 
0x00022c34: or byte [ecx], bh ; retn 0x820F ; 
0x000bfbda: or byte [ecx], bh ; retn 0x8C0F ; 
0x000c90b9: or byte [ecx], bh ; retn 0xD972 ; 
0x0007110d: or byte [ecx], bh ; retn 0xE675 ; 
0x0009637f: or byte [ecx], bh ; retn 0xF475 ; 
0x00044704: or byte [ecx], bh ; retn 0xFFB8 ; 
0x00063616: or byte [ecx], ch ; ret  ; 
0x00061dd1: or byte [ecx], ch ; retn 0x4489 ; 
0x0007a483: or byte [ecx], ch ; retn 0xC183 ; 
0x000a08b3: or byte [ecx], ch ; retn 0xF089 ; 
0x00085c95: or byte [edi+0x5B], bl ; ret  ; 
0x000a0377: or byte [edi+0x5E], bl ; ret  ; 
0x000c4812: or byte [edi+eax-0x77], dh ; retn 0x0EE9 ; 
0x000600ad: or byte [edi+edi*8], 0xFFFFFFFF ; call dword [ebx-0x75] ; 
0x0016db38: or byte [edi-0x15], ch ; jmp eax ; 
0x000f7933: or byte [edi], 0x00000044 ; retn 0x66C3 ; 
0x000ff325: or byte [edi], 0x00000045 ; retn 0xEC83 ; 
0x000a0f36: or byte [edi], 0x0000004F ; retn 0xC483 ; 
0x000baf77: or byte [edi], 0xFFFFFFA3 ; retn 0x0973 ; 
0x00156f28: or byte [edi], 0xFFFFFFF3 ; jmp dword [eax-0x3F000CF1] ; 
0x000003c9: or byte [edx+0x22], ah ; retn 0x0224 ; 
0x00077e63: or byte [edx+ebx-0x7D], dh ; ret  ; 
0x0015811c: or byte [edx-0x11], bh ; jmp dword [edi+0x14FFEF76] ; 
0x0011d2c5: or byte [edx-0x77], dl ; retn 0x458B ; 
0x00173d9a: or byte [edx], cl ; ret  ; 
0x0005e1e6: or byte [esi-0x18], dl ; ret  ; 
0x00142c1d: or byte [esi-0x7D], bl ; retn 0x830C ; 
0x00003e76: or byte [fs:ebx+0x4E], ch ; retn 0x6BBA ; 
0x000d4741: or ch, 0xFFFFFF80 ; call dword [0x00000010] ; 
0x0005e9eb: or ch, al ; call dword [eax+0x09] ; 
0x0017a715: or ch, bh ; call dword [eax+0x00000000] ; 
0x0017a82d: or ch, bh ; jmp dword [edx] ; 
0x000e20d2: or ch, byte [eax-0x0D] ; jmp dword [esi-0x70] ; 
0x001394a2: or ch, byte [esi-0x0B] ; call dword [ebx-0x18] ; 
0x001694f1: or cl, bh ; call dword [eax] ; 
0x0017032b: or cl, byte [0x4108] ; ret  ; 
0x001711e2: or cl, byte [0x410C] ; ret  ; 
0x0017b312: or cl, byte [0x4114] ; ret  ; 
0x00194d99: or cl, byte [0x430C] ; ret  ; 
0x001880db: or cl, byte [0x4314] ; ret  ; 
0x0018bfde: or cl, byte [0x4614] ; ret  ; 
0x001298f5: or cl, byte [ebx+0x5B082444] ; ret  ; 
0x0007d5de: or cl, byte [ebx-0x7CCFDBBC] ; retn 0x2902 ; 
0x000adc25: or cl, byte [ecx+0x5F5E5BF0] ; ret  ; 
0x00041afc: or cl, byte [ecx-0x00043B63] ; call dword [ebx+0x50] ; 
0x00040ad9: or cl, byte [ecx-0x00043B7B] ; call dword [eax-0x01] ; 
0x00058467: or cl, ch ; retn 0xFFE7 ; 
0x00029fe8: or cl, ch ; retn 0xFFFD ; 
0x000e8ccb: or dh, 0x00000001 ; call dword [0x00000010] ; 
0x00190539: or dh, ah ; jmp dword [ebp+0x00] ; 
0x00166451: or dh, al ; call dword [eax+0x14000132] ; 
0x00156e81: or dh, bl ; call dword [eax-0x4F000CF6] ; 
0x00156e90: or dh, bl ; call dword [eax] ; 
0x00156e89: or dh, bl ; call eax ; 
0x0003f1c0: or dh, byte [ebp+ebp*2-0x7D] ; call dword [eax] ; 
0x000cd551: or dh, byte [ecx+edx-0x7D] ; retn 0x8014 ; 
0x00174be9: or dh, ch ; jmp dword [edi] ; 
0x00166c98: or dh, cl ; jmp dword [eax-0x3BFFFE73] ; 
0x0010696c: or dh, dh ; call dword [eax-0x6E7017AD] ; 
0x00025ff7: or dh, dh ; retn 0x0FDF ; 
0x00108c28: or dh, dh ; retn 0x7401 ; 
0x000e8d24: or dl, bh ; jmp dword [esi-0x70] ; 
0x000ae107: or dl, byte [esi-0x18] ; retn 0xFBCC ; 
0x000559da: or dword [eax+0x3E], 0xCB01FFFA ; jmp ebx ; 
0x0009170e: or dword [eax-0x14], 0xFFFFFFFA ; call dword [eax-0x73] ; 
0x00063952: or dword [eax-0x24], 0xFFFFFFFA ; call dword [eax-0x73] ; 
0x00019c58: or dword [eax-0x32], 0xFFFFFFFA ; call dword [eax-0x73] ; 
0x000e245d: or dword [eax-0x4B], 0xFFFFFFFA ; call dword [eax-0x75] ; 
0x000288f8: or dword [eax-0x6D], 0xFFFFFFFA ; call dword [eax+0x56] ; 
0x000f58d1: or dword [eax-0x6D], 0xFFFFFFFA ; call dword [eax-0x73] ; 
0x000abec1: or dword [eax], eax ; call dword [0x00000010] ; 
0x0005c0b9: or dword [eax], eax ; rep ret  ; 
0x001562b4: or dword [ebp-0x16], ecx ; jmp eax ; 
0x000fd638: or dword [ebp-0x50], 0xFFFFFFFA ; call dword [eax-0x18] ; 
0x00142f8e: or dword [ebx+0x5E], ebx ; ret  ; 
0x000a0756: or dword [ebx+0x75CA3910], ecx ; rep ret  ; 
0x00117c5b: or dword [ebx-0x4C], 0xFFFFFFFA ; call dword [eax+0x6A] ; 
0x000e2ddf: or dword [ecx+ebx*2-0x0D], 0xFFFFFFFF ; ret  ; 
0x0009e732: or dword [ecx], edi ; ret  ; 
0x000e94b5: or dword [edi+edi*4], 0xFFFFFFFA ; call dword [eax+0x52] ; 
0x00157ab4: or dword [edx-0x11], esp ; call dword [ebx] ; 
0x0010d566: or dword [edx-0x36], 0xFFFFFFFA ; call dword [eax-0x18] ; 
0x000e0b25: or dword [esi+ecx-0x7D], esi ; retn 0x0F01 ; 
0x000443df: or dword [esi+edx*8], 0xFFFFFFFA ; call dword [eax-0x18] ; 
0x000ad37b: or dword [esi-0x52], 0xFFFFFFFA ; call dword [eax+0x57] ; 
0x000ae2f1: or dword [esi-0x52], 0xFFFFFFFA ; call dword [eax-0x18] ; 
0x0016334c: or dword [esp+edi*8], ebx ; jmp dword [esi-0x390003E5] ; 
0x00156ecd: or eax, 0x0D20FFF3 ; call dword [eax+0x0D] ; 
0x00156ed9: or eax, 0x0DB0FFF3 ; jmp eax ; 
0x00156edd: or eax, 0x0DE0FFF3 ; call dword [eax] ; 
0x0013fd32: or eax, 0x0EC083C3 ; ret  ; 
0x000420c9: or eax, 0x35C38100 ; call dword [esi] ; 
0x0006c763: or eax, 0x500CEC83 ; call dword [ebx+0x0000009C] ; 
0x00067f72: or eax, 0x5B08C483 ; ret  ; 
0x0018bf39: or eax, 0x60040002 ; call dword [eax] ; 
0x0018bf69: or eax, 0x60E40002 ; jmp dword [ebp+0x07] ; 
0x00154e69: or eax, 0x73950000 ; retn 0x0048 ; 
0x0010c3f4: or eax, 0x81000137 ; ret  ; 
0x0006b4f4: or eax, 0x81000B46 ; ret  ; 
0x000605f4: or eax, 0x81000BF5 ; ret  ; 
0x00024bf4: or eax, 0x81000FAF ; ret  ; 
0x0001aff4: or eax, 0x8100104B ; ret  ; 
0x000b2e74: or eax, 0x8101CC80 ; retn 0x0108 ; 
0x0012d0f4: or eax, 0x81FFFF2A ; ret  ; 
0x0012c5f4: or eax, 0x81FFFF35 ; ret  ; 
0x00129ef4: or eax, 0x81FFFF5C ; ret  ; 
0x00127ef4: or eax, 0x81FFFF7C ; ret  ; 
0x0002a2d6: or eax, 0x83000000 ; retn 0xC702 ; 
0x000196c4: or eax, 0x8300768D ; retn 0x0F01 ; 
0x000cd234: or eax, 0x8300768D ; retn 0xD101 ; 
0x0001e841: or eax, 0x8301B60F ; retn 0x8301 ; 
0x0012e7e0: or eax, 0x8B1C035F ; jmp ebx ; 
0x00177535: or eax, dword [ebx+0x0A] ; ret  ; 
0x00175eca: or eax, dword [ecx+0x0A] ; ret  ; 
0x0016d989: or eax, dword [edi+0x0A] ; ret  ; 
0x00171ab8: or eax, dword [edx] ; retn 0xD40E ; 
0x00173feb: or eax, dword [esi+0x0A] ; ret  ; 
0x000e7205: or eax, ecx ; ret  ; 
0x00168b09: or eax, edi ; jmp esp ; 
0x001585bd: or eax, esi ; jmp eax ; 
0x00178a08: or ebp, dword [eax+0x0A] ; ret  ; 
0x00175a41: or ebp, dword [ebp+0x0A] ; ret  ; 
0x0018fcfd: or ebp, dword [ebx+0x0A] ; ret  ; 
0x0016b837: or ebp, dword [ecx+0x0A] ; ret  ; 
0x000a0825: or ebp, dword [ecx] ; retn 0x448B ; 
0x00040f97: or ebp, dword [ecx] ; retn 0x9589 ; 
0x000411f0: or ebp, dword [ecx] ; retn 0xC985 ; 
0x00175f19: or ebp, dword [edx+0x0A] ; ret  ; 
0x00072c28: or ebp, eax ; retn 0x080E ; 
0x00173f45: or ebp, ebp ; call dword [edi+0x02] ; 
0x00173e91: or ebp, ebp ; jmp dword [esi] ; 
0x0017a8a5: or ebp, edi ; call esp ; 
0x0018f59a: or ebx, dword [eax+0x0A] ; ret  ; 
0x0017f2aa: or ebx, dword [ebp+0x0A] ; ret  ; 
0x0018bd83: or ebx, dword [ebx+0x0A] ; ret  ; 
0x0006539c: or ebx, dword [ebx+0x5E] ; ret  ; 
0x00173f2b: or ebx, dword [ecx+0x0A] ; ret  ; 
0x0018c97f: or ebx, dword [esi+0x0A] ; ret  ; 
0x0001d3c1: or ebx, edi ; call dword [eax+0x68] ; 
0x0001d407: or ebx, edi ; call dword [eax-0x73] ; 
0x00067f54: or ebx, edi ; jmp dword [esi-0x70] ; 
0x0018d021: or ebx, esi ; call dword [0x00000000] ; 
0x0018cf95: or ebx, esi ; call dword [eax+eax+0x00] ; 
0x0018cfe1: or ebx, esi ; call dword [ebx+0x00] ; 
0x00156f01: or ebx, esi ; jmp eax ; 
0x0017f96e: or ecx, dword [eax+0x0A] ; ret  ; 
0x001a5b58: or ecx, dword [ebp+0x0A] ; ret  ; 
0x0017f984: or ecx, dword [ebx+0x0A] ; ret  ; 
0x00195b2f: or ecx, dword [ecx+0x0A] ; ret  ; 
0x0002e935: or ecx, dword [ecx-0x7CEC003D] ; ret  ; 
0x0017f9ea: or ecx, dword [edi+0x0A] ; ret  ; 
0x001738e0: or ecx, dword [edx+0x0A] ; ret  ; 
0x0017f94d: or ecx, dword [esi+0x0A] ; ret  ; 
0x00069a4c: or ecx, dword [esp+0x28] ; call dword [0x00000010] ; 
0x00166c89: or ecx, esi ; call dword [esp+ecx*4+0x09A40001] ; 
0x000f31d4: or edi, dword [eax+0x00000001] ; ret  ; 
0x00175d95: or edi, dword [ebp+0x0A] ; ret  ; 
0x0016d9da: or edi, dword [ebx+0x0A] ; ret  ; 
0x001a00dc: or edi, dword [ecx+0x0A] ; ret  ; 
0x0009e805: or edi, dword [ecx] ; ret  ; 
0x000f25f6: or edi, dword [ecx] ; retn 0x0F7E ; 
0x0001de4e: or edi, dword [ecx] ; retn 0x8E0F ; 
0x00175a9a: or edi, dword [edi+0x0A] ; ret  ; 
0x001766de: or edi, dword [edx+0x0A] ; ret  ; 
0x00168b59: or edi, eax ; call dword [0x0BE40003] ; 
0x00168b49: or edi, eax ; call esp ; 
0x000a0b49: or edi, ebx ; call dword [eax+0x57] ; 
0x0001bd1a: or edi, ebx ; call dword [eax+0x68] ; 
0x0001bcf0: or edi, ebx ; call dword [eax-0x73] ; 
0x000f2aec: or edi, ebx ; call dword [eax-0x75] ; 
0x0016a619: or edi, ebx ; jmp eax ; 
0x00169501: or edi, ecx ; jmp eax ; 
0x001754ee: or edx, dword [eax+0x0A] ; ret  ; 
0x00173dd7: or edx, dword [ebp+0x0A] ; ret  ; 
0x001a01d4: or edx, dword [ebx+0x0A] ; ret  ; 
0x001a3036: or edx, dword [ecx+0x0A] ; ret  ; 
0x00187e5a: or edx, dword [edi+0x0A] ; ret  ; 
0x00173836: or edx, dword [edx+0x0A] ; ret  ; 
0x00175876: or edx, dword [esi+0x0A] ; ret  ; 
0x0016e3db: or esi, dword [eax+0x0A] ; ret  ; 
0x0016d71e: or esi, dword [ebx+0x0A] ; ret  ; 
0x001764eb: or esi, dword [ecx+0x0A] ; ret  ; 
0x00178a92: or esi, dword [edi+0x0A] ; ret  ; 
0x001a93ab: or esi, dword [edx+0x0A] ; ret  ; 
0x00176091: or esi, dword [esi+0x0A] ; ret  ; 
0x000f0451: or esi, dword [esp+edx-0x7D] ; ret  ; 
0x00166459: or esi, eax ; call esp ; 
0x00156e99: or esi, ebx ; call dword [eax+0x0B] ; 
0x00156ea1: or esi, ebx ; call dword [eax-0x4F000CF5] ; 
0x00156ea9: or esi, ebx ; call eax ; 
0x00156eb0: or esi, ebx ; jmp dword [eax] ; 
0x001a9870: or esi, edi ; call dword [ebx+0x00] ; 
0x00168239: or esi, edi ; call dword [esi+ecx*8+0x0BA40002] ; 
0x001a9819: or esi, edi ; jmp dword [eax+eax+0x00] ; 
0x001a97e9: or esi, edi ; jmp dword [eax+eax] ; 
0x00120991: or esi, edi ; jmp dword [ecx] ; 
0x001a97fd: or esi, edi ; jmp dword [esi] ; 
0x000f0eb9: or esi, esi ; retn 0x0F08 ; 
0x001708ac: or esp, dword [eax+0x0A] ; ret  ; 
0x001a3044: or esp, dword [ebx+0x0A] ; ret  ; 
0x00129c37: or esp, dword [ebx+eax-0x74E3FD00] ; jmp ebx ; 
0x00170057: or esp, dword [ecx+0x0A] ; ret  ; 
0x0017cfa3: or esp, dword [edi+0x0A] ; ret  ; 
0x0018bd8a: or esp, dword [edx+0x0A] ; ret  ; 
0x00071111: out 0x83, al ; retn 0xC708 ; 
0x000576d0: out 0x83, eax ; ret  ; 
0x000a91dd: out 0x89, al ; ret  ; 
0x00002436: out 0xA9, al ; retn 0xBD07 ; 
0x0017039d: out 0xEB, eax ; call dword [edx+0x00] ; 
0x001572f1: out 0xED, eax ; call dword [0xD0FFEDE9] ; 
0x00157301: out 0xED, eax ; jmp ebx ; 
0x0011ebd8: out 0xF0, al ; call dword [eax+0x0026748D] ; 
0x00166b08: out 0xF0, eax ; call dword [eax+0x7400017F] ; 
0x001975a5: out 0xF4, al ; call dword [edx+edx] ; 
0x001974f5: out 0xF4, al ; jmp dword [eax+eax] ; 
0x00197499: out 0xF4, al ; jmp dword [esi] ; 
0x00169329: out 0xF8, al ; jmp eax ; 
0x00169341: out 0xF8, eax ; call dword [eax+ebp*2-0x185BFFFD] ; 
0x00169349: out 0xF8, eax ; call esp ; 
0x001a57fc: out 0xF9, al ; jmp dword [edi] ; 
0x000666c5: out 0xFB, al ; call dword [eax+0x0026B48D] ; 
0x00164d05: out 0xFC, al ; jmp eax ; 
0x0016b0d1: out 0xFD, eax ; jmp esp ; 
0x000a6115: out 0xFF, al ; call dword [eax+0x0026B48D] ; 
0x000a64fb: out 0xFF, al ; call dword [ebx-0x18] ; 
0x00044438: out 0xFF, al ; call dword [ecx+0x51] ; 
0x000a6baf: out 0xFF, al ; call dword [edi-0x17] ; 
0x000a5fc5: out 0xFF, al ; call dword [edi-0x77] ; 
0x000a64cd: out 0xFF, al ; call dword [esi-0x18] ; 
0x000a5f20: out 0xFF, eax ; call dword [eax+0x0026748D] ; 
0x000a8f8b: out 0xFF, eax ; jmp dword [esi-0x70] ; 
0x00179632: out dx, al ; call dword [eax+0x00000000] ; 
0x00175afe: out dx, al ; call dword [eax+eax+0x00] ; 
0x0017968e: out dx, al ; call dword [eax+eax+0x41000000] ; 
0x000a1483: out dx, al ; call dword [eax-0x01] ; 
0x00165e8a: out dx, al ; call dword [eax-0x08] ; 
0x00177a6a: out dx, al ; call dword [ebp+0x01] ; 
0x001776ca: out dx, al ; call dword [ebx+0x00000000] ; 
0x00176b22: out dx, al ; call dword [ebx] ; 
0x0017a196: out dx, al ; call dword [ecx+0x00000000] ; 
0x00176196: out dx, al ; call dword [ecx+0x00] ; 
0x00175eee: out dx, al ; call dword [ecx+eax+0x77040000] ; 
0x00175892: out dx, al ; call dword [ecx+eax] ; 
0x00179e56: out dx, al ; call dword [edi+0x00] ; 
0x00175c8a: out dx, al ; call dword [edi] ; 
0x0017625e: out dx, al ; call dword [edx+0x00000000] ; 
0x000a3c55: out dx, al ; call dword [edx+0x50] ; 
0x00165ec2: out dx, al ; call dword [edx+edi*8] ; 
0x0000378d: out dx, al ; call dword [edx+esi*8+0x3F] ; 
0x00175926: out dx, al ; call dword [edx] ; 
0x00177b46: out dx, al ; call dword [esi+0x00000001] ; 
0x001756f2: out dx, al ; call dword [esi+0x00] ; 
0x00175e02: out dx, al ; call dword [esi+0x01] ; 
0x00179a69: out dx, al ; call dword [esi+0x02] ; 
0x001784ea: out dx, al ; call dword [esi] ; 
0x00165e1a: out dx, al ; call eax ; 
0x00178986: out dx, al ; call esp ; 
0x00179536: out dx, al ; jmp dword [0x00000000] ; 
0x00177736: out dx, al ; jmp dword [0x00000002] ; 
0x0017811e: out dx, al ; jmp dword [eax+0x00000000] ; 
0x00177bd6: out dx, al ; jmp dword [eax+0x02] ; 
0x00165e9a: out dx, al ; jmp dword [eax+0x240000F8] ; 
0x00175c12: out dx, al ; jmp dword [eax+eax+0x00] ; 
0x0017685e: out dx, al ; jmp dword [eax+eax+0x41000000] ; 
0x0017546e: out dx, al ; jmp dword [eax+eax] ; 
0x0017788e: out dx, al ; jmp dword [eax+ecx+0x41000000] ; 
0x00165e82: out dx, al ; jmp dword [eax+edi*8] ; 
0x00177846: out dx, al ; jmp dword [ebp+0x04000005] ; 
0x00178152: out dx, al ; jmp dword [ebx+0x00000000] ; 
0x00175402: out dx, al ; jmp dword [ebx] ; 
0x00178d92: out dx, al ; jmp dword [edi+0x00000001] ; 
0x0017802a: out dx, al ; jmp dword [edi+0x00] ; 
0x00174bea: out dx, al ; jmp dword [edi] ; 
0x001754ca: out dx, al ; jmp dword [edx+0x00] ; 
0x00165eca: out dx, al ; jmp dword [edx+edi*8+0x00] ; 
0x00174da9: out dx, al ; jmp dword [edx] ; 
0x0017876a: out dx, al ; jmp dword [esi+0x00000000] ; 
0x001436d6: out dx, al ; jmp dword [esi-0x70] ; 
0x001753de: out dx, al ; jmp dword [esi] ; 
0x00165e42: out dx, al ; jmp eax ; 
0x001755f2: out dx, al ; jmp edi ; 
0x00179eaa: out dx, al ; jmp edx ; 
0x00175852: out dx, al ; jmp esi ; 
0x00165eba: out dx, al ; jmp esp ; 
0x000538ed: out dx, al ; retn 0xFFFF ; 
0x00157a25: out dx, ax ; call dword [ebx] ; 
0x00157d65: out dx, ax ; call ebp ; 
0x00165f39: out dx, ax ; jmp dword [edi+edi*8+0x00] ; 
0x0017f406: out dx, eax ; call dword [0x00000000] ; 
0x000df27c: out dx, eax ; call dword [0x00000010] ; 
0x00165fba: out dx, eax ; call dword [0x71A40001+eax] ; 
0x00157f1a: out dx, eax ; call dword [0x9DFFEF8B] ; 
0x0017a716: out dx, eax ; call dword [eax+0x00000000] ; 
0x0017aa86: out dx, eax ; call dword [eax+0x00] ; 
0x00166282: out dx, eax ; call dword [eax+0x2400011F] ; 
0x001663c2: out dx, eax ; call dword [eax+0x2400012D] ; 
0x00157766: out dx, eax ; call dword [eax+0x2F] ; 
0x00157b22: out dx, eax ; call dword [eax+0x5E] ; 
0x001662e2: out dx, eax ; call dword [eax+0x64000122] ; 
0x00157a92: out dx, eax ; call dword [eax+0x65] ; 
0x00157b12: out dx, eax ; call dword [eax+0x7AFFEF5F] ; 
0x0017da8e: out dx, eax ; call dword [eax+eax+0x00] ; 
0x0017aa26: out dx, eax ; call dword [eax+eax+0x41000000] ; 
0x0015814e: out dx, eax ; call dword [eax-0x02] ; 
0x000adbe7: out dx, eax ; call dword [eax-0x18] ; 
0x00157986: out dx, eax ; call dword [eax] ; 
0x0017ec26: out dx, eax ; call dword [ebp+0x00] ; 
0x0017d53a: out dx, eax ; call dword [ebp+0x01] ; 
0x00157d4a: out dx, eax ; call dword [ebp+0x58] ; 
0x0016624a: out dx, eax ; call dword [ebp+ebx+0x01] ; 
0x00157e9a: out dx, eax ; call dword [ebp-0x37001075] ; 
0x0015809a: out dx, eax ; call dword [ebx+0x74] ; 
0x0017ee92: out dx, eax ; call dword [ebx+eax] ; 
0x001661fa: out dx, eax ; call dword [ebx+ebx+0x01] ; 
0x001580da: out dx, eax ; call dword [ebx-0x77] ; 
0x00157992: out dx, eax ; call dword [ebx] ; 
0x0017a326: out dx, eax ; call dword [ecx+0x00000000] ; 
0x00157d1d: out dx, eax ; call dword [ecx+0x00FFEF53] ; 
0x0017aeb6: out dx, eax ; call dword [ecx+0x00] ; 
0x00157d51: out dx, eax ; call dword [ecx+0x01FFEF53] ; 
0x0017c492: out dx, eax ; call dword [ecx+0x01] ; 
0x001577e2: out dx, eax ; call dword [ecx+0x08FFEF29] ; 
0x00157caa: out dx, eax ; call dword [ecx+0x17FFEF53] ; 
0x00157d3e: out dx, eax ; call dword [ecx+0x28FFEF53] ; 
0x001577ee: out dx, eax ; call dword [ecx+0x3AFFEF40] ; 
0x00157cb6: out dx, eax ; call dword [ecx+0x43FFEF53] ; 
0x0017cf61: out dx, eax ; call dword [ecx+eax] ; 
0x00158122: out dx, eax ; call dword [ecx+edi*2] ; 
0x0015805a: out dx, eax ; call dword [ecx-0x06001083] ; 
0x00157cbe: out dx, eax ; call dword [ecx-0x1D0010AD] ; 
0x00157d36: out dx, eax ; call dword [ecx-0x1F0010AD] ; 
0x0015771a: out dx, eax ; call dword [ecx-0x350010D6] ; 
0x00157d12: out dx, eax ; call dword [ecx-0x540010AD] ; 
0x00157b7e: out dx, eax ; call dword [ecx-0x6E0010AD] ; 
0x00157eb2: out dx, eax ; call dword [ecx-0x75] ; 
0x00157c7a: out dx, eax ; call dword [ecx-0x770010AD] ; 
0x0017ae4a: out dx, eax ; call dword [ecx] ; 
0x0017c9f2: out dx, eax ; call dword [edi+0x00] ; 
0x001577ca: out dx, eax ; call dword [edi+0x2B] ; 
0x00157cae: out dx, eax ; call dword [edi] ; 
0x00157d0e: out dx, eax ; call dword [edx] ; 
0x00157a22: out dx, eax ; call dword [esi+0x66] ; 
0x00165f29: out dx, eax ; call dword [esi+edi*8] ; 
0x0016635a: out dx, eax ; call dword [esi-0x1F0BFFFF] ; 
0x0015770a: out dx, eax ; call dword [esi] ; 
0x00165faa: out dx, eax ; call dword [esp+eax+0x70640001] ; 
0x00166212: out dx, eax ; call dword [esp+ebx] ; 
0x00166082: out dx, eax ; call dword [esp+ecx+0x01] ; 
0x0015785a: out dx, eax ; call eax ; 
0x00157d66: out dx, eax ; call ebp ; 
0x0017d676: out dx, eax ; call ebx ; 
0x00157f12: out dx, eax ; call ecx ; 
0x001580ae: out dx, eax ; call esi ; 
0x0017a8a6: out dx, eax ; call esp ; 
0x0017c9b2: out dx, eax ; jmp dword [0x00000000] ; 
0x001580b2: out dx, eax ; jmp dword [0x60FFEF7C] ; 
0x0017bc6a: out dx, eax ; jmp dword [eax+0x00000000] ; 
0x0017e6e2: out dx, eax ; jmp dword [eax+0x00000001] ; 
0x0017a59a: out dx, eax ; jmp dword [eax+0x00] ; 
0x001660d2: out dx, eax ; jmp dword [eax+0x0F] ; 
0x001660fa: out dx, eax ; jmp dword [eax+0x11] ; 
0x00157b62: out dx, eax ; jmp dword [eax+0x13FFEF5D] ; 
0x00166192: out dx, eax ; jmp dword [eax+0x17] ; 
0x001577da: out dx, eax ; jmp dword [eax+0x37] ; 
0x00157816: out dx, eax ; jmp dword [eax+0x3AFFEF3D] ; 
0x00157932: out dx, eax ; jmp dword [eax+0x3F] ; 
0x0017d14e: out dx, eax ; jmp dword [eax+eax+0x00] ; 
0x0017f5f2: out dx, eax ; jmp dword [eax+eax] ; 
0x00157d0a: out dx, eax ; jmp dword [eax+ebp*2] ; 
0x00157b56: out dx, eax ; jmp dword [eax+ebx*2] ; 
0x00158182: out dx, eax ; jmp dword [eax-0x02] ; 
0x001663a2: out dx, eax ; jmp dword [eax-0x0BFFFED5] ; 
0x00166322: out dx, eax ; jmp dword [eax-0x3BFFFEDC] ; 
0x001580b6: out dx, eax ; jmp dword [eax-0x7C] ; 
0x0015781e: out dx, eax ; jmp dword [eax] ; 
0x0017b7b2: out dx, eax ; jmp dword [ebp+0x00] ; 
0x001663ca: out dx, eax ; jmp dword [ebp+ebp-0x04CBFFFF] ; 
0x0016615a: out dx, eax ; jmp dword [ebp+edx+0x01] ; 
0x00157e82: out dx, eax ; jmp dword [ebp-0x75] ; 
0x00157eca: out dx, eax ; jmp dword [ebx+0x30FFEF72] ; 
0x0016606a: out dx, eax ; jmp dword [ebx+ecx-0x6B6BFFFF] ; 
0x0016612a: out dx, eax ; jmp dword [ebx+edx+0x01] ; 
0x0015810a: out dx, eax ; jmp dword [ebx-0x06001087] ; 
0x0017ac0e: out dx, eax ; jmp dword [ebx] ; 
0x0017dfee: out dx, eax ; jmp dword [ecx+0x01] ; 
0x00157f32: out dx, eax ; jmp dword [ecx+0x0EFFEF76] ; 
0x0017b832: out dx, eax ; jmp dword [ecx] ; 
0x0017c44e: out dx, eax ; jmp dword [edi+0x00000000] ; 
0x0017bb82: out dx, eax ; jmp dword [edi+0x00000003] ; 
0x0017c2ba: out dx, eax ; jmp dword [edi+0x02] ; 
0x0015811e: out dx, eax ; jmp dword [edi+0x14FFEF76] ; 
0x00157aaa: out dx, eax ; jmp dword [edi+0x62] ; 
0x0016628a: out dx, eax ; jmp dword [edi+ebx-0x2FABFFFF] ; 
0x00165f3a: out dx, eax ; jmp dword [edi+edi*8+0x00] ; 
0x00157af2: out dx, eax ; jmp dword [edi] ; 
0x0017c5b6: out dx, eax ; jmp dword [edx+0x00000000] ; 
0x0017c7f6: out dx, eax ; jmp dword [edx+0x00000001] ; 
0x0017c432: out dx, eax ; jmp dword [edx+0x00] ; 
0x0017a82e: out dx, eax ; jmp dword [edx] ; 
0x0017dada: out dx, eax ; jmp dword [esi+0x00000000] ; 
0x00119ca6: out dx, eax ; jmp dword [esi-0x70] ; 
0x0017a502: out dx, eax ; jmp dword [esi] ; 
0x0016622a: out dx, eax ; jmp dword [esp+ebx-0x34FBFFFF] ; 
0x0016630a: out dx, eax ; jmp dword [esp] ; 
0x00157d3a: out dx, eax ; jmp eax ; 
0x00157f0e: out dx, eax ; jmp ebp ; 
0x00157eee: out dx, eax ; jmp ebx ; 
0x00157cc2: out dx, eax ; jmp edx ; 
0x00157ce2: out dx, eax ; jmp esi ; 
0x00158056: out dx, eax ; jmp esp ; 
0x00152acc: outsb  ; call dword [ecx-0x66] ; 
0x00164968: outsb  ; ret  ; 
0x0015872d: outsd  ; call dword [eax+0x42FFF06E] ; 
0x00151f35: outsd  ; ret  ; 
0x00152f45: outsd  ; retn 0x5AE4 ; 
0x000a054d: pcmpeqb mm4, qword [eax] ; ret  ; 
0x00102b23: pcmpeqd mm1, qword [edx+0x39] ; retn 0x4677 ; 
0x0005d9cc: pcmpeqw mm6, qword [eax-0x0000C517] ; jmp dword [esi-0x70] ; 
0x000d3e6a: pop ds ; call dword [0x00000010] ; 
0x00156fe5: pop ds ; call dword [eax-0x4F000CE1] ; 
0x00156ff4: pop ds ; call dword [eax] ; 
0x00189c9d: pop ds ; call dword [edx+0x00] ; 
0x000a0dbf: pop ds ; call eax ; 
0x00166539: pop ds ; call esp ; 
0x0018d891: pop ds ; jmp dword [ecx+eax+0x41000000] ; 
0x00189d05: pop ds ; jmp dword [esi+0x00] ; 
0x000f69ca: pop ds ; jmp dword [esi-0x70] ; 
0x0002b222: pop ds ; ret  ; 
0x000e22ed: pop ds ; retn 0xFFF9 ; 
0x001580a8: pop dword [edi+ebp*8-0x107AC501] ; call esi ; 
0x0018bc41: pop eax ; call dword [eax] ; 
0x00166741: pop eax ; call dword [ebx+edx*2+0x5A840001] ; 
0x00153d0e: pop eax ; call dword [edi+0x4656EE7E] ; 
0x0001e061: pop eax ; call edi ; 
0x0001e3e9: pop eax ; call esi ; 
0x0018bc05: pop eax ; jmp dword [eax+eax] ; 
0x0018bbf1: pop eax ; jmp dword [eax] ; 
0x0018bc89: pop eax ; jmp dword [esi] ; 
0x0002406e: pop eax ; ret  ; 
0x000f38b1: pop eax ; retn 0x0002 ; 
0x00184cb8: pop eax ; retn 0xFFF0 ; 
0x00166779: pop ebp ; jmp dword [ebp+edx*2+0x01] ; 
0x0004f006: pop ebp ; rep ret  ; 
0x000179a7: pop ebp ; ret  ; 
0x00019550: pop ebp ; retn 0x0004 ; 
0x00017ac4: pop ebp ; retn 0x0008 ; 
0x000199ed: pop ebp ; retn 0x000C ; 
0x000b8823: pop ebp ; retn 0x0010 ; 
0x000c99b7: pop ebp ; retn 0x0014 ; 
0x000c4d5d: pop ebp ; retn 0x0018 ; 
0x000c9cd7: pop ebp ; retn 0x001C ; 
0x000be8af: pop ebx ; rep ret  ; 
0x00018395: pop ebx ; ret  ; 
0x00154dfc: pop ebx ; retn 0x06F9 ; 
0x00001a20: pop ebx ; retn 0x2A63 ; 
0x000f0151: pop ecx ; call dword [eax+0x0026748D] ; 
0x0018bd31: pop ecx ; call ebp ; 
0x000b5377: pop ecx ; ret  ; 
0x00166789: pop edi ; jmp dword [esi+edx*2] ; 
0x00070d67: pop edi ; rep ret  ; 
0x000177db: pop edi ; ret  ; 
0x00025ad0: pop edi ; retn 0x0004 ; 
0x000bc680: pop edi ; retn 0x000C ; 
0x000e2c9b: pop edx ; jmp dword [esi-0x70] ; 
0x00001aa6: pop edx ; ret  ; 
0x00158369: pop es ; call dword [ebx-0x62000FFC] ; 
0x00158281: pop es ; call dword [edi] ; 
0x00158199: pop es ; call dword [esi+0x07] ; 
0x00158405: pop es ; jmp dword [ebx+0x78FFF005] ; 
0x0015819d: pop es ; jmp dword [edx+0x07] ; 
0x001581b5: pop es ; jmp dword [edx] ; 
0x001581a5: pop es ; jmp ebx ; 
0x001583b5: pop es ; jmp edi ; 
0x00001a36: pop es ; ret  ; 
0x0018bdc9: pop esi ; jmp dword [ebx+0x00000000] ; 
0x00017828: pop esi ; ret  ; 
0x00107701: pop esi ; retn 0x0004 ; 
0x000ac424: pop esp ; call dword [ebp-0x18] ; 
0x000f8714: pop esp ; call dword [esp+0x38] ; 
0x000ae3fb: pop esp ; call dword [esp+0x3C] ; 
0x00166761: pop esp ; jmp eax ; 
0x00003980: pop esp ; ret  ; 
0x00177424: pop esp ; retn 0x0000 ; 
0x000738a5: pop esp ; retn 0x000A ; 
0x00003265: pop esp ; retn 0x52C0 ; 
0x001664f9: pop ss ; call dword [eax+0x39] ; 
0x0018d3f9: pop ss ; call dword [edx+0x00000000] ; 
0x00020ca5: pop ss ; retn 0x000F ; 
0x0013c6d9: pop ss ; retn 0x2C73 ; 
0x0013d09a: pop ss ; retn 0x3273 ; 
0x0013c6c4: pop ss ; retn 0x3E73 ; 
0x0013d080: pop ss ; retn 0x4C73 ; 
0x0013c6af: pop ss ; retn 0x5073 ; 
0x0013c69a: pop ss ; retn 0x6273 ; 
0x0013d066: pop ss ; retn 0x6673 ; 
0x0013c035: pop ss ; retn 0x830F ; 
0x0000311a: popad  ; call dword [ecx] ; 
0x00082493: popad  ; jmp dword [esi+0x0F] ; 
0x00166799: popad  ; jmp eax ; 
0x0016b7a2: popad  ; ret  ; 
0x000f766d: popad  ; retn 0xFFFA ; 
0x000a2559: popfd  ; retn 0xB60F ; 
0x000a258b: popfd  ; retn 0xCF39 ; 
0x0005623f: psadbw mm7, mm7 ; call dword [eax+0x0026748D] ; 
0x000e7732: psllq mm7, mm7 ; ret  ; 
0x0007714f: psubb mm7, mm7 ; ret  ; 
0x0006da65: push 0x00000000 ; call dword [eax] ; 
0x0006ef84: push 0x00000000 ; call dword [esi] ; 
0x000ab2c0: push 0x00000000 ; call eax ; 
0x0003cdc8: push 0x00000001 ; call eax ; 
0x00175f1a: push 0x0000000A ; ret  ; 
0x000ef463: push 0x02000004 ; call eax ; 
0x000aa624: push 0x29FFFFFF ; retn 0xD089 ; 
0x0018a839: push 0x41080E0A ; ret  ; 
0x00198a0f: push 0x41100E0A ; ret  ; 
0x001732b0: push 0x41140E0A ; ret  ; 
0x0019f233: push 0x430C0E0A ; ret  ; 
0x0016d527: push 0x43140E0A ; ret  ; 
0x000a3b9e: push 0x65000000 ; call dword [0x00000010] ; 
0x0016695d: push 0x7E240001 ; jmp dword [eax+ebp*2+0x7FD40001] ; 
0x00104c99: push 0x810001AE ; ret  ; 
0x000f4ca1: push 0x810002AE ; retn 0xD35B ; 
0x000f3aa1: push 0x810002C0 ; retn 0xE55B ; 
0x000f35a1: push 0x810002C5 ; retn 0xEA5B ; 
0x000eaaa1: push 0x81000350 ; retn 0x755B ; 
0x000e21a1: push 0x810003D9 ; retn 0xFE5B ; 
0x000b2d99: push 0x810006CD ; ret  ; 
0x000a2499: push 0x810007D6 ; ret  ; 
0x00092699: push 0x810008D4 ; ret  ; 
0x00092599: push 0x810008D5 ; ret  ; 
0x00092499: push 0x810008D6 ; ret  ; 
0x00092399: push 0x810008D7 ; ret  ; 
0x000759a1: push 0x81000AA1 ; retn 0xC65B ; 
0x000757a1: push 0x81000AA3 ; retn 0xC85B ; 
0x0006a5a1: push 0x81000B55 ; retn 0x7A5B ; 
0x00143da1: push 0x81FFFDBD ; retn 0xE25B ; 
0x00164978: push 0xB8FFFCC3 ; ret  ; 
0x001875a8: push 0xE4000000 ; ret  ; 
0x000c62ca: push 0xE801FFFA ; jmp eax ; 
0x0001b3c6: push 0xEBFFF928 ; retn 0xD231 ; 
0x00002c55: push 0xF8CD6EB0 ; rep ret  ; 
0x0004764f: push 0xFFFFFF89 ; retn 0x8166 ; 
0x001656b1: push 0xFFFFFFEC ; jmp dword [eax] ; 
0x00175400: push 0xFFFFFFEE ; jmp dword [ebx] ; 
0x001753b1: push 0xFFFFFFEE ; jmp dword [edi] ; 
0x001753dd: push 0xFFFFFFEE ; jmp dword [esi] ; 
0x00157a91: push 0xFFFFFFEF ; call dword [eax+0x65] ; 
0x00157b11: push 0xFFFFFFEF ; call dword [eax+0x7AFFEF5F] ; 
0x00157995: push 0xFFFFFFEF ; call dword [ebx] ; 
0x00157a21: push 0xFFFFFFEF ; call dword [esi+0x66] ; 
0x00157b55: push 0xFFFFFFEF ; jmp dword [eax+ebx*2] ; 
0x00157b29: push 0xFFFFFFEF ; jmp dword [edi+0x62] ; 
0x001585e9: push 0xFFFFFFF0 ; call dword [ebx+0x32FFF06A] ; 
0x0010ed95: push 0xFFFFFFF1 ; call dword [eax-0x73] ; 
0x0018c2a9: push 0xFFFFFFF2 ; jmp dword [edi+0x08] ; 
0x00193379: push 0xFFFFFFF4 ; jmp esp ; 
0x00167e81: push 0xFFFFFFF6 ; call dword [eax-0x6BFFFD5B] ; 
0x00167e89: push 0xFFFFFFF6 ; call esp ; 
0x00089db4: push 0xFFFFFFF6 ; retn 0x7520 ; 
0x00089db9: push 0xFFFFFFF6 ; retn 0x7540 ; 
0x00169079: push 0xFFFFFFF8 ; jmp dword [ecx+ecx*2] ; 
0x0007e279: push 0xFFFFFFFA ; jmp dword [esi-0x70] ; 
0x00156ef1: push cs ; call eax ; 
0x00076f94: push cs ; call ecx ; 
0x00156eed: push cs ; jmp dword [eax-0x2F000CF2] ; 
0x00084184: push cs ; ret  ; 
0x000f6adc: push ds ; call dword [eax+0x57E58955] ; 
0x0018d77d: push ds ; call dword [ebx+0x00000001] ; 
0x00157061: push ds ; jmp dword [eax] ; 
0x00003c2d: push ds ; ret  ; 
0x0016486c: push ds ; retn 0xFFFC ; 
0x00167332: push dword [0xD5240002+eax] ; jmp dword [ebp+eax+0x02] ; 
0x001648b7: push dword [eax+0x00FFFCC1] ; retn 0xFFFC ; 
0x001649af: push dword [eax+0x00FFFCC2] ; ret  ; 
0x000f3c91: push dword [eax+0x04] ; call dword [eax] ; 
0x000918ab: push dword [eax+0x08] ; call esi ; 
0x00156e9e: push dword [eax+0x0B] ; call dword [eax-0x4F000CF5] ; 
0x00156eea: push dword [eax+0x0E] ; jmp dword [eax-0x2F000CF2] ; 
0x00156f46: push dword [eax+0x10] ; call dword [eax-0x4F000CF0] ; 
0x00156f66: push dword [eax+0x11] ; call dword [eax-0x4F000CEF] ; 
0x00156fe2: push dword [eax+0x1F] ; call dword [eax-0x4F000CE1] ; 
0x00157002: push dword [eax+0x20] ; jmp dword [eax-0x2F000CE0] ; 
0x00157072: push dword [eax+0x24] ; call dword [eax-0x4F000CDC] ; 
0x001570b5: push dword [eax+0x26] ; call dword [eax-0x4F000CDA] ; 
0x00163bd7: push dword [eax+ebp-0x04] ; jmp dword [eax+ebp+0x28D4FFFC] ; 
0x000e9e05: push dword [eax+ebp-0x18] ; ret  ; 
0x000d44ad: push dword [eax+ecx-0x0D] ; ret  ; 
0x000acbb9: push dword [eax+edi-0x77] ; retn 0xE283 ; 
0x0003c583: push dword [eax+esi-0x77] ; ret  ; 
0x000b43dc: push dword [eax+esi] ; call dword [edi+0x20] ; 
0x00164aab: push dword [eax-0x04] ; call esp ; 
0x001570ad: push dword [eax] ; call dword [eax+0x26] ; 
0x00106ee4: push dword [eax] ; call dword [esp+0x3C] ; 
0x000916fa: push dword [eax] ; call ebp ; 
0x00164933: push dword [eax] ; ret  ; 
0x0016800b: push dword [eax] ; retn 0x0002 ; 
0x0016483b: push dword [eax] ; retn 0xFFFC ; 
0x000e4341: push dword [ebp+0x08] ; call dword [ebp+0x10] ; 
0x000f452d: push dword [ebp+0x08] ; call dword [edi+0x00002918] ; 
0x000f453a: push dword [ebp+0x08] ; call dword [edi+0x0000291C] ; 
0x000465e2: push dword [ebp+0x08] ; call ecx ; 
0x001211a7: push dword [ebp+eax+0x01] ; retn 0x5689 ; 
0x0011f818: push dword [ebp+ecx*2-0x77] ; retn 0xE283 ; 
0x00112b10: push dword [ebp+edi*2-0x7D] ; retn 0x3901 ; 
0x00163d5f: push dword [ebp+edx*2-0x04] ; jmp dword [esi+edx*2] ; 
0x0007b2b1: push dword [ebp+edx*2-0x09] ; retn 0x0000 ; 
0x000d83a1: push dword [ebp-0x00000098] ; call dword [ebp-0x80] ; 
0x000d95f4: push dword [ebp-0x000000A0] ; call dword [ebp-0x00000088] ; 
0x000b3dc3: push dword [ebp-0x00000104] ; call dword [edi+0x20] ; 
0x000b6efb: push dword [ebp-0x00000114] ; call dword [edi+0x20] ; 
0x000b349f: push dword [ebp-0x00000190] ; call dword [eax+0x10] ; 
0x000b3005: push dword [ebp-0x00000190] ; call dword [eax+0x14] ; 
0x000b5c23: push dword [ebp-0x000001AC] ; call dword [eax+0x18] ; 
0x000b5c6f: push dword [ebp-0x000001AC] ; call dword [ebp+0x08] ; 
0x000b33ce: push dword [ebp-0x000001B0] ; call dword [eax+0x18] ; 
0x000b341a: push dword [ebp-0x000001B0] ; call dword [ebp+0x08] ; 
0x0004a056: push dword [ebp-0x00000470] ; call eax ; 
0x00163953: push dword [ebp-0x04] ; jmp dword [ebp+0x25D4FFFC] ; 
0x0011d453: push dword [ebp-0x64] ; call eax ; 
0x000ce14b: push dword [ebp-0x74] ; call ebx ; 
0x000176a0: push dword [ebx+0x00000004] ; jmp dword [ebx+0x00000008] ; 
0x000199bb: push dword [ebx+0x04] ; call esi ; 
0x000746aa: push dword [ebx+0x24] ; call dword [ebx+0x1C] ; 
0x000747aa: push dword [ebx+0x24] ; call dword [ebx+0x20] ; 
0x000fc522: push dword [ebx+edx*8-0x77] ; retn 0xB70F ; 
0x0010af51: push dword [ebx] ; call dword [ebx+0x08] ; 
0x0010ab7a: push dword [ebx] ; call dword [ebx+0x20] ; 
0x0011cf34: push dword [ebx] ; call dword [edx+0x000001F8] ; 
0x0005e550: push dword [ecx+0x00000098] ; call edx ; 
0x001585e6: push dword [ecx+0x6A] ; call dword [ebx+0x32FFF06A] ; 
0x0016425f: push dword [ecx+edx*4-0x04] ; jmp dword [edx+edx*4] ; 
0x0016758a: push dword [ecx+esi-0x431BFFFE] ; jmp eax ; 
0x000f2245: push dword [ecx+esi-0x77] ; retn 0xF889 ; 
0x001636bf: push dword [ecx-0x04] ; jmp dword [ecx+0x21D4FFFC] ; 
0x00127f15: push dword [ecx] ; call dword [eax+0x0026B48D] ; 
0x0011671f: push dword [ecx] ; call dword [eax+0x6A] ; 
0x00091531: push dword [edi+0x08] ; call esi ; 
0x0010234e: push dword [edi+ebx*8-0x77] ; ret  ; 
0x00163463: push dword [edi+ebx-0x04] ; jmp dword [edi+ebx+0x1FD4FFFC] ; 
0x00100804: push dword [edi+edx-0x7D] ; ret  ; 
0x0005dc9b: push dword [edi-0x77] ; retn 0xE283 ; 
0x0009135f: push dword [edi] ; call ebx ; 
0x0005e456: push dword [edx+0x00000098] ; call eax ; 
0x0011d19c: push dword [edx+0x000001CC] ; call dword [esi+0x000001F0] ; 
0x000f22c7: push dword [edx+0x30] ; call eax ; 
0x0016498b: push dword [edx-0x4300033D] ; retn 0xFFFC ; 
0x0005e499: push dword [esi+0x00000098] ; call eax ; 
0x0002ef06: push dword [esi+0x04] ; call eax ; 
0x001648a7: push dword [esi+0x06FFFCC1] ; retn 0xFFFC ; 
0x0016499f: push dword [esi+0x06FFFCC2] ; ret  ; 
0x000d7998: push dword [esi+0x0C] ; call dword [esi+0x24] ; 
0x000e4314: push dword [esi+ebx*2-0x77] ; ret  ; 
0x0016406b: push dword [esi+esi*2-0x04] ; jmp esp ; 
0x0010acfe: push dword [esi] ; call dword [esi+0x20] ; 
0x00106c0d: push dword [esi] ; call dword [esp+0x2C] ; 
0x000e3fef: push dword [esi] ; call edi ; 
0x00164923: push dword [esi] ; ret  ; 
0x0016482b: push dword [esi] ; retn 0xFFFC ; 
0x00106e40: push dword [esp+0x0000008C] ; call dword [esp+0x48] ; 
0x00020cbf: push dword [esp+0x0000009C] ; call edi ; 
0x00020d67: push dword [esp+0x0000009C] ; call esi ; 
0x000fb0d5: push dword [esp+0x0000046C] ; call eax ; 
0x000fb465: push dword [esp+0x00000470] ; call eax ; 
0x0010a6a2: push dword [esp+0x000022A0] ; call dword [eax+0x08] ; 
0x0010a7d7: push dword [esp+0x000022A0] ; call dword [eax+0x10] ; 
0x00109a01: push dword [esp+0x00002964] ; call dword [esp+0x0000296C] ; 
0x000fe4ec: push dword [esp+0x10] ; call ebx ; 
0x000fe36b: push dword [esp+0x10] ; call edi ; 
0x0011178b: push dword [esp+0x14] ; call dword [eax+0x10] ; 
0x00074782: push dword [esp+0x14] ; call dword [ebx+0x20] ; 
0x000fdd06: push dword [esp+0x14] ; call dword [esp+0x3C] ; 
0x001096d4: push dword [esp+0x14] ; call eax ; 
0x0011cea7: push dword [esp+0x18] ; call dword [eax+0x000001EC] ; 
0x0002d66d: push dword [esp+0x18] ; call edi ; 
0x0011cfb3: push dword [esp+0x1C] ; call dword [eax+0x000001FC] ; 
0x0011a67f: push dword [esp+0x1C] ; call dword [eax+0x04] ; 
0x0011a963: push dword [esp+0x1C] ; call dword [eax+0x0C] ; 
0x0011a6eb: push dword [esp+0x1C] ; call dword [eax+0x10] ; 
0x0006eb67: push dword [esp+0x1C] ; call dword [eax] ; 
0x000fe3b9: push dword [esp+0x1C] ; call dword [esp+0x40] ; 
0x00018906: push dword [esp+0x1C] ; call eax ; 
0x0002d639: push dword [esp+0x24] ; call edi ; 
0x0002d53d: push dword [esp+0x2C] ; call dword [esp+0x40] ; 
0x0009ed3a: push dword [esp+0x38] ; call ebx ; 
0x000e41ad: push dword [esp+0x3C] ; call dword [esp+0x48] ; 
0x0001bc34: push dword [esp+0x3C] ; call ebp ; 
0x0001bcc0: push dword [esp+0x3C] ; call edi ; 
0x0001c440: push dword [esp+0x3C] ; call esi ; 
0x0001c05e: push dword [esp+0x40] ; call ebp ; 
0x0001be06: push dword [esp+0x40] ; call edi ; 
0x0001c87e: push dword [esp+0x44] ; call ebp ; 
0x0001d59d: push dword [esp+0x44] ; call ebx ; 
0x0001c636: push dword [esp+0x44] ; call edi ; 
0x0001cdd6: push dword [esp+0x48] ; call edi ; 
0x00073e73: push dword [esp+0x4C] ; call eax ; 
0x0001f436: push dword [esp+0x4C] ; call edi ; 
0x0001f6bf: push dword [esp+0x4C] ; call esi ; 
0x0001cac6: push dword [esp+0x50] ; call edi ; 
0x0001f05e: push dword [esp+0x50] ; call esi ; 
0x0001e05e: push dword [esp+0x58] ; call edi ; 
0x0001e3e6: push dword [esp+0x58] ; call esi ; 
0x000f8711: push dword [esp+0x5C] ; call dword [esp+0x38] ; 
0x000ae3f8: push dword [esp+0x5C] ; call dword [esp+0x3C] ; 
0x00106a89: push dword [esp+0x60] ; call dword [esp+0x60] ; 
0x0001862f: push dword [esp+0x70] ; call dword [esp+0x70] ; 
0x000185bf: push dword [esp+0x70] ; call dword [esp+0x7C] ; 
0x0005a639: push dword [esp+edx*8+0x39] ; ret  ; 
0x000644af: push eax ; call dword [eax+0x04] ; 
0x000635d6: push eax ; call dword [eax+0x0C] ; 
0x0005e012: push eax ; call dword [eax+0x10] ; 
0x0006c5d8: push eax ; call dword [ebp+0x00000098] ; 
0x0002ee74: push eax ; call dword [ebp+0x000007FC] ; 
0x0006c767: push eax ; call dword [ebx+0x0000009C] ; 
0x00074835: push eax ; call dword [ebx+0x20] ; 
0x00111037: push eax ; call dword [ecx+0x04] ; 
0x001112c5: push eax ; call dword [ecx+0x0C] ; 
0x000497ce: push eax ; call dword [ecx+0x1C] ; 
0x000402f0: push eax ; call dword [ecx+edx*4] ; 
0x0011cb5f: push eax ; call dword [edi+0x000007F8] ; 
0x00108523: push eax ; call dword [edx+0x04] ; 
0x00108671: push eax ; call dword [edx+0x08] ; 
0x00063824: push eax ; call dword [edx+0x0C] ; 
0x00108874: push eax ; call dword [edx+0x10] ; 
0x00111acc: push eax ; call dword [edx+0x14] ; 
0x0006b33a: push eax ; call dword [edx+0x20] ; 
0x0006b4e0: push eax ; call dword [edx+0x24] ; 
0x00067de9: push eax ; call dword [edx+0x30] ; 
0x001089b7: push eax ; call dword [edx] ; 
0x00062d30: push eax ; call dword [esi+0x00000098] ; 
0x0011c986: push eax ; call dword [esi+0x000007F8] ; 
0x000a1282: push eax ; call dword [esp+0x000000E4] ; 
0x0010d9fd: push eax ; call dword [esp+0x24] ; 
0x00114be3: push eax ; call dword [esp+0x40] ; 
0x00115d1a: push eax ; call dword [esp+0x60] ; 
0x000cefae: push eax ; call ebx ; 
0x0001cac9: push eax ; call edi ; 
0x000713e5: push eax ; call edx ; 
0x0001f061: push eax ; call esi ; 
0x0018b761: push eax ; call esp ; 
0x00166709: push eax ; jmp dword [eax+0x51] ; 
0x00166c00: push eax ; jmp dword [eax-0x78] ; 
0x001570c5: push eax ; jmp dword [eax] ; 
0x000da25a: push eax ; jmp dword [esi-0x7D] ; 
0x0018b745: push eax ; jmp dword [esi] ; 
0x0011f716: push eax ; ret  ; 
0x00168023: push eax ; retn 0x0002 ; 
0x001648ff: push eax ; retn 0xFFFC ; 
0x00111018: push ebp ; call dword [eax+0x04] ; 
0x00119faf: push ebp ; call dword [eax+0x0C] ; 
0x00110b4f: push ebp ; call dword [eax+0x10] ; 
0x00111001: push ebp ; call dword [eax+0x14] ; 
0x0006801a: push ebp ; call dword [eax+0x1C] ; 
0x0005fee8: push ebp ; call dword [eax+0x24] ; 
0x000648b6: push ebp ; call dword [ebp+0x10] ; 
0x00064960: push ebp ; call dword [ebp+0x18] ; 
0x000f783f: push ebp ; call dword [ebx+0x0000292C] ; 
0x0011bea5: push ebp ; call dword [ebx-0x00000CC4] ; 
0x0005dd75: push ebp ; call dword [edx+0x40] ; 
0x0006c464: push ebp ; call dword [esi+0x00000098] ; 
0x000eee95: push ebp ; call dword [esi+0x14] ; 
0x00111050: push ebp ; call dword [esp+0x00000118] ; 
0x00071a57: push ebp ; call eax ; 
0x00091b0a: push ebp ; call esi ; 
0x0016b21a: push ebp ; ret  ; 
0x0010aa8e: push ebx ; call dword [eax+0x04] ; 
0x00114b58: push ebx ; call dword [eax+0x08] ; 
0x000625db: push ebx ; call dword [eax+0x0C] ; 
0x00062333: push ebx ; call dword [eax+0x10] ; 
0x001092c7: push ebx ; call dword [eax+0x14] ; 
0x00062a30: push ebx ; call dword [eax+0x18] ; 
0x0004b115: push ebx ; call dword [eax+0x1C] ; 
0x00069025: push ebx ; call dword [eax+0x20] ; 
0x000600f6: push ebx ; call dword [eax+0x24] ; 
0x000624fe: push ebx ; call dword [eax+0x34] ; 
0x000683e0: push ebx ; call dword [eax+0x3C] ; 
0x0006819f: push ebx ; call dword [eax+0x40] ; 
0x0006991e: push ebx ; call dword [eax+0x44] ; 
0x00108e6a: push ebx ; call dword [eax] ; 
0x00063b46: push ebx ; call dword [ebx+0x10] ; 
0x000640d8: push ebx ; call dword [ebx+0x18] ; 
0x000648d4: push ebx ; call dword [ecx+0x40] ; 
0x001093c4: push ebx ; call dword [edx+0x10] ; 
0x000629ca: push ebx ; call dword [edx+0x18] ; 
0x000f78bd: push ebx ; call dword [esi+0x00002930] ; 
0x001092a1: push ebx ; call dword [esi+0x14] ; 
0x00068440: push ebx ; call dword [esi+0x40] ; 
0x000e4771: push ebx ; call dword [esp+0x50] ; 
0x000f42af: push ebx ; call eax ; 
0x000e3f56: push ebx ; call esi ; 
0x0018ba6d: push ebx ; jmp dword [ebp+0x00000004] ; 
0x00182065: push ebx ; jmp dword [esi] ; 
0x000e8a64: push ebx ; ret  ; 
0x00114c2a: push ecx ; call dword [eax+0x04] ; 
0x00107d6e: push ecx ; call dword [eax+0x0C] ; 
0x00043654: push ecx ; call dword [eax+0x1C] ; 
0x00159429: push ecx ; call dword [eax+0x35FFF1FF] ; 
0x00159465: push ecx ; call dword [eax-0x18000E01] ; 
0x001593e1: push ecx ; call dword [eax-0x21000E01] ; 
0x001593d5: push ecx ; call dword [eax-0x6F000E01] ; 
0x00114c42: push ecx ; call dword [eax] ; 
0x00156d55: push ecx ; call dword [ecx+0x00] ; 
0x00156da1: push ecx ; call dword [edi+0x0BFFF1FF] ; 
0x0018b815: push ecx ; call dword [edx+0x01] ; 
0x0011d10c: push ecx ; call dword [edx+0x04] ; 
0x00042a53: push ecx ; call dword [edx+0x1C] ; 
0x00152f24: push ecx ; call dword [esi] ; 
0x00071507: push ecx ; call eax ; 
0x0002ecf9: push ecx ; call edx ; 
0x00156d90: push ecx ; jmp dword [ebp+0x19FFF1FF] ; 
0x00156d85: push ecx ; jmp dword [edi] ; 
0x0018b8d1: push ecx ; jmp dword [esi+0x01] ; 
0x001593cd: push ecx ; jmp edi ; 
0x001786d3: push ecx ; ret  ; 
0x0010850a: push edi ; call dword [eax+0x04] ; 
0x001127ec: push edi ; call dword [eax+0x08] ; 
0x00108628: push edi ; call dword [eax+0x0C] ; 
0x00108555: push edi ; call dword [eax+0x10] ; 
0x00108573: push edi ; call dword [eax+0x14] ; 
0x00109f38: push edi ; call dword [eax+0x18] ; 
0x00040669: push edi ; call dword [eax+0x1C] ; 
0x000691e3: push edi ; call dword [eax+0x20] ; 
0x0006bbe8: push edi ; call dword [eax+0x2C] ; 
0x0011277d: push edi ; call dword [eax] ; 
0x0010a077: push edi ; call dword [ecx+0x18] ; 
0x00040234: push edi ; call dword [ecx+0x1C] ; 
0x00064218: push edi ; call dword [edi+0x04] ; 
0x000633ea: push edi ; call dword [edi+0x0C] ; 
0x0006337e: push edi ; call dword [edi+0x10] ; 
0x0006418b: push edi ; call dword [edi+0x18] ; 
0x0010a033: push edi ; call dword [edx+0x18] ; 
0x00003753: push edi ; call dword [esi+0x6F] ; 
0x0010a6ba: push edi ; call dword [esi] ; 
0x0010853c: push edi ; call dword [esp+0x00000088] ; 
0x00109901: push edi ; call dword [esp+0x00002964] ; 
0x000e47ff: push edi ; call dword [esp+0x40] ; 
0x000401be: push edi ; call eax ; 
0x0002d86d: push edi ; call ebp ; 
0x00064d1e: push edi ; call ebx ; 
0x000e42bd: push edi ; call esi ; 
0x0018bb31: push edi ; jmp dword [eax+eax] ; 
0x0017c419: push edi ; ret  ; 
0x000c9635: push edi ; retn 0xFFF5 ; 
0x00018690: push edx ; call dword [eax+0x000001E0] ; 
0x0011cb0b: push edx ; call dword [eax+0x000007FC] ; 
0x0011a8c6: push edx ; call dword [eax+0x08] ; 
0x00113298: push edx ; call dword [eax+0x0C] ; 
0x00108f2b: push edx ; call dword [eax+0x10] ; 
0x0004295f: push edx ; call dword [eax+0x1C] ; 
0x000b356f: push edx ; call dword [eax+0x20] ; 
0x00062e8b: push edx ; call dword [ebx+0x0000009C] ; 
0x0010a244: push edx ; call dword [ebx+esi*4-0x00000260] ; 
0x0011d0a4: push edx ; call dword [ebx] ; 
0x0011d163: push edx ; call dword [ecx+0x08] ; 
0x0010f65b: push edx ; call dword [ecx+0x0C] ; 
0x0003f7fe: push edx ; call dword [ecx+0x1C] ; 
0x00108494: push edx ; call dword [esp+0x24] ; 
0x000745f3: push edx ; call dword [esp+0x4C] ; 
0x0001a830: push edx ; call eax ; 
0x0013ce48: push edx ; ret  ; 
0x0013cee8: push edx ; retn 0xC2BB ; 
0x00143616: push es ; call edx ; 
0x00158551: push es ; jmp dword [ebp-0x7D000FFA] ; 
0x001581d9: push es ; jmp dword [ebx+0x06] ; 
0x00158395: push es ; jmp ebp ; 
0x00158205: push es ; jmp ebx ; 
0x0008409c: push es ; ret  ; 
0x001648ac: push es ; retn 0xFFFC ; 
0x0010dca3: push esi ; call dword [eax+0x04] ; 
0x0005dac4: push esi ; call dword [eax+0x08] ; 
0x0006239b: push esi ; call dword [eax+0x0C] ; 
0x000628a1: push esi ; call dword [eax+0x10] ; 
0x00062771: push esi ; call dword [eax+0x14] ; 
0x0010f0d8: push esi ; call dword [eax+0x18] ; 
0x0004224f: push esi ; call dword [eax+0x1C] ; 
0x0010f19f: push esi ; call dword [eax+0x24] ; 
0x00060296: push esi ; call dword [eax+0x2C] ; 
0x0005decb: push esi ; call dword [eax+0x30] ; 
0x00060438: push esi ; call dword [eax+0x34] ; 
0x00063ade: push esi ; call dword [eax+0x40] ; 
0x00121776: push esi ; call dword [eax+0x44] ; 
0x0005d8f3: push esi ; call dword [eax+0x48] ; 
0x000b2ca1: push esi ; call dword [eax] ; 
0x0007347b: push esi ; call dword [ebx+0x000018F0] ; 
0x00109200: push esi ; call dword [ebx+0x0C] ; 
0x00109bae: push esi ; call dword [ebx+0x14] ; 
0x00074763: push esi ; call dword [ebx+0x1C] ; 
0x000446fa: push esi ; call dword [ecx+0x1C] ; 
0x00063565: push esi ; call dword [ecx+0x38] ; 
0x00063c6f: push esi ; call dword [ecx+0x40] ; 
0x0011cf8a: push esi ; call dword [edi+0x000001F0] ; 
0x000692a9: push esi ; call dword [edx+0x38] ; 
0x0010dcd8: push esi ; call dword [esp+0x00000088] ; 
0x0010deff: push esi ; call dword [esp+0x00000090] ; 
0x00115271: push esi ; call dword [esp+0x30] ; 
0x00115a36: push esi ; call dword [esp+0x4C] ; 
0x0011ca39: push esi ; call dword [esp+0x70] ; 
0x0001870a: push esi ; call eax ; 
0x001149cd: push esi ; call ebp ; 
0x00091e14: push esi ; call ebx ; 
0x00063d89: push esi ; call ecx ; 
0x0002d626: push esi ; call edi ; 
0x0010a2e0: push esi ; call edx ; 
0x00168121: push esi ; jmp dword [eax] ; 
0x00151bee: push esi ; ret  ; 
0x000d8ae5: push esi ; retn 0x0F01 ; 
0x0005537b: push esi ; retn 0x0F02 ; 
0x000474d2: push esi ; retn 0x0F50 ; 
0x00151991: push esp ; jmp dword [ebx-0x40] ; 
0x0011f786: push esp ; ret  ; 
0x001661c8: push esp ; retn 0xFFEF ; 
0x00167a08: push esp ; retn 0xFFF4 ; 
0x0018bf3d: pushad  ; call dword [eax] ; 
0x00106a8c: pushad  ; call dword [esp+0x60] ; 
0x0018bf6d: pushad  ; jmp dword [ebp+0x07] ; 
0x00182991: pushad  ; jmp esi ; 
0x000079ec: pushad  ; ret  ; 
0x0000b18c: pushad  ; retn 0x0006 ; 
0x0000057c: pushad  ; retn 0x2096 ; 
0x0011d455: pushfd  ; call eax ; 
0x000962e9: pushfd  ; ret  ; 
0x00168014: pushfd  ; retn 0x0002 ; 
0x000b9ee9: rcl bh, 0xFFFFFFFF ; jmp dword [0x00FFFFFF] ; 
0x000e9e83: rcl byte [eax], 0xFFFFFF83 ; retn 0x3904 ; 
0x001341ff: rcl byte [eax], 0xFFFFFF83 ; retn 0x5310 ; 
0x00137055: rcl byte [eax], 0xFFFFFF83 ; retn 0x5710 ; 
0x0012ea8d: rcl byte [eax], 0xFFFFFF83 ; retn 0x8310 ; 
0x0009f739: rcl byte [eax], 0xFFFFFF83 ; retn 0x8910 ; 
0x00067742: rcl byte [ebp-0x15], 1  ; call dword [eax-0x01] ; 
0x001a4588: rcl byte [ebx-0x71FBFFFD], 0xFFFFFFF6 ; jmp dword [ebx+0x00000000] ; 
0x001642b4: rcl byte [ecx-0x6DAF0004], 0xFFFFFFFC ; jmp eax ; 
0x00163e44: rcl byte [edi-0x04], 1  ; jmp dword [eax-0x7F0003A8] ; 
0x000f8e0a: rcl byte [edi-0x0B], 1  ; call dword [eax-0x73] ; 
0x00156dc0: rcl byte [edi-0x14], 1  ; jmp eax ; 
0x00158c80: rcl byte [edx-0x0F], cl ; call edx ; 
0x00156fc8: rcl byte [edx], 0xFFFFFFF3 ; call eax ; 
0x00136ffc: rcl byte [edx], 0xFFFFFFFB ; jmp dword [esi+0x0F] ; 
0x00156fcc: rcl byte [edx], 1  ; jmp eax ; 
0x00163d08: rcl byte [esi-0x04], cl ; jmp dword [edx+0x57] ; 
0x000f9f8a: rcl byte [esi-0x0B], 1  ; call dword [eax-0x73] ; 
0x0016437c: rcl byte [esp+edi*8-0x0387DF01], 1  ; jmp eax ; 
0x000af185: rcl ch, 0xFFFFFFEF ; call dword [eax-0x18] ; 
0x0018fdc0: rcl ch, 1  ; jmp dword [edx+0x01] ; 
0x0008fab5: rcl dword [eax], 0xFFFFFF83 ; retn 0x2910 ; 
0x000a06bc: rcl dword [eax], 0xFFFFFF83 ; retn 0x8310 ; 
0x000bc265: rcl dword [ebx+0x56], cl ; call edi ; 
0x0010acfb: rcl dword [ecx+0x53], 0xFFFFFFFF ; call dword [esi+0x20] ; 
0x0008b9a1: rcl dword [edi+esi*4+0x0C03000C], 0xFFFFFF91 ; jmp ecx ; 
0x00052bca: rcl esi, 0xFFFFFFFF ; jmp dword [esi-0x70] ; 
0x001859e0: rcr ah, 0xFFFFFFF0 ; jmp dword [ecx+0x00000005] ; 
0x00066680: rcr ah, 0xFFFFFFFA ; call dword [eax-0x18] ; 
0x00100835: rcr byte [eax+eax-0x34770000], 0x00000001 ; ret  ; 
0x00163e7c: rcr byte [eax-0x04], 1  ; jmp dword [eax] ; 
0x000ae183: rcr byte [eax-0x0B], 1  ; call dword [eax-0x73] ; 
0x0002cb6a: rcr byte [ebx+0x5E], 0x0000005F ; ret  ; 
0x00017826: rcr byte [ebx+0x5E], 1  ; ret  ; 
0x0007d3d7: rcr byte [ebx+0x5F], 1  ; ret  ; 
0x000ed4c3: rcr byte [ebx-0x0B], 1  ; call dword [eax-0x73] ; 
0x00184d98: rcr byte [ebx-0x3C5BFFFF], 1  ; jmp dword [eax+0x00] ; 
0x00163374: rcr byte [ebx], 0xFFFFFFFC ; jmp eax ; 
0x000f3d5e: rcr byte [ecx+eax], cl ; retn 0xD689 ; 
0x0013d9f2: rcr byte [edi+0x5D], 0x0000005B ; ret  ; 
0x000790f3: rcr byte [edi+0x5D], 1  ; ret  ; 
0x0007e4dd: rcr byte [edi+0x5E], 1  ; ret  ; 
0x00163f64: rcr byte [edx-0x04], 1  ; jmp dword [eax+0x5B] ; 
0x000648a2: rcr byte [esi+0x5F], 0x0000005D ; ret  ; 
0x000d1ac8: rcr byte [esi+0x5F], 0x0000005D ; retn 0x001C ; 
0x0003d575: rcr byte [esi+0x5F], 1  ; ret  ; 
0x0016455c: rcr byte [esi-0x60AF0004], 0xFFFFFFFC ; jmp eax ; 
0x00157060: rcr byte [esi], 0xFFFFFFF3 ; jmp dword [eax] ; 
0x0015b204: rcr cl, 0xFFFFFFF6 ; call dword [eax-0x26] ; 
0x00087865: rcr dword [esi+esi*8+0x0C03000C], 0xFFFFFF99 ; jmp ecx ; 
0x000f747b: rcr eax, 1  ; call dword [eax-0x72F3137D] ; 
0x00002c22: rep ret  ; 
0x00000417: ret  ; 
0x00000b10: retn 0x0000 ; 
0x00000ce8: retn 0x0001 ; 
0x00000eb0: retn 0x0002 ; 
0x000400ca: retn 0x0003 ; 
0x00001204: retn 0x0004 ; 
0x000087ad: retn 0x0005 ; 
0x00007a3d: retn 0x0006 ; 
0x0011f13a: retn 0x0007 ; 
0x00017ac5: retn 0x0008 ; 
0x001506c4: retn 0x0009 ; 
0x000060bd: retn 0x000A ; 
0x00006e98: retn 0x000B ; 
0x000199ee: retn 0x000C ; 
0x0000645d: retn 0x000D ; 
0x00020ca6: retn 0x000F ; 
0x00004bcd: retn 0x0010 ; 
0x00135a11: retn 0x0011 ; 
0x00075d48: retn 0x0013 ; 
0x00065d2b: retn 0x0014 ; 
0x00080b3a: retn 0x0015 ; 
0x000c4d5e: retn 0x0018 ; 
0x0005706d: retn 0x0019 ; 
0x000805ba: retn 0x001A ; 
0x00056352: retn 0x001B ; 
0x000c9cd8: retn 0x001C ; 
0x00005588: retn 0x001D ; 
0x000925fa: retn 0x001E ; 
0x0014d2f8: retn 0x0024 ; 
0x000fb9da: retn 0x0028 ; 
0x0004f7d3: retn 0x002B ; 
0x0014d7e8: retn 0x0033 ; 
0x00073a4a: retn 0x0035 ; 
0x0008ffd7: retn 0x003F ; 
0x00154e6e: retn 0x0048 ; 
0x00125055: retn 0x0080 ; 
0x00053e93: retn 0x008B ; 
0x0005f7e1: retn 0x009C ; 
0x000577aa: retn 0x00AE ; 
0x0002b218: retn 0x00B8 ; 
0x0010960a: retn 0x00C3 ; 
0x0002413c: retn 0x0100 ; 
0x00023347: retn 0x0101 ; 
0x0006f541: retn 0x0108 ; 
0x00127d30: retn 0x0110 ; 
0x00000209: retn 0x0120 ; 
0x00196175: retn 0x0158 ; 
0x000de64d: retn 0x0180 ; 
0x0003e155: retn 0x0189 ; 
0x000a0921: retn 0x0190 ; 
0x00154ee6: retn 0x0198 ; 
0x000a3281: retn 0x01B8 ; 
0x000a1017: retn 0x01B9 ; 
0x00021bf2: retn 0x01BE ; 
0x0011d2b6: retn 0x01D0 ; 
0x0014e2f0: retn 0x01D4 ; 
0x0014ea88: retn 0x01D5 ; 
0x000406ba: retn 0x01EE ; 
0x00024148: retn 0x0200 ; 
0x0004960a: retn 0x0217 ; 
0x000003cc: retn 0x0224 ; 
0x0008f4f9: retn 0x0275 ; 
0x0006bf8d: retn 0x028B ; 
0x0003e9bb: retn 0x02B8 ; 
0x0010c89f: retn 0x031C ; 
0x00175d71: retn 0x0359 ; 
0x000b1c9f: retn 0x0362 ; 
0x0003e1c4: retn 0x0389 ; 
0x0001d357: retn 0x038B ; 
0x00048e53: retn 0x03E8 ; 
0x000e332e: retn 0x03E9 ; 
0x0003ebd0: retn 0x03FF ; 
0x000747d1: retn 0x0476 ; 
0x0003f432: retn 0x0489 ; 
0x0001de35: retn 0x048B ; 
0x0002f545: retn 0x048D ; 
0x00154842: retn 0x048F ; 
0x00000356: retn 0x0510 ; 
0x00061a57: retn 0x05AA ; 
0x0001950a: retn 0x05DB ; 
0x00071eab: retn 0x05EB ; 
0x000919dd: retn 0x0624 ; 
0x0008fa57: retn 0x0676 ; 
0x0008fd17: retn 0x067C ; 
0x000a1711: retn 0x068B ; 
0x000b20dd: retn 0x06B8 ; 
0x00060ae2: retn 0x06F7 ; 
0x00154dfd: retn 0x06F9 ; 
0x000618d7: retn 0x072A ; 
0x0005f09f: retn 0x0774 ; 
0x000c8c54: retn 0x0775 ; 
0x0001795a: retn 0x0776 ; 
0x00021886: retn 0x077B ; 
0x0001bbe9: retn 0x07B8 ; 
0x000770ca: retn 0x07E7 ; 
0x000ff35a: retn 0x07E9 ; 
0x00090b60: retn 0x07EB ; 
0x0005eced: retn 0x07F6 ; 
0x000c12ee: retn 0x0804 ; 
0x00072c2a: retn 0x080E ; 
0x0007242a: retn 0x0816 ; 
0x000217e7: retn 0x081A ; 
0x00070d2a: retn 0x082D ; 
0x0004ed3e: retn 0x0875 ; 
0x00099f1b: retn 0x08EB ; 
0x000c0486: retn 0x0901 ; 
0x00103ec9: retn 0x093C ; 
0x000565fa: retn 0x0942 ; 
0x0011be40: retn 0x0961 ; 
0x000baf7a: retn 0x0973 ; 
0x000038cc: retn 0x0975 ; 
0x0010fc71: retn 0x0977 ; 
0x0005144a: retn 0x0998 ; 
0x000915cd: retn 0x0A34 ; 
0x00104ed5: retn 0x0A74 ; 
0x0007cec6: retn 0x0A76 ; 
0x0006ead3: retn 0x0A7E ; 
0x000bbc91: retn 0x0A8B ; 
0x00000532: retn 0x0AD0 ; 
0x000945b1: retn 0x0AEB ; 
0x0010b9e9: retn 0x0B10 ; 
0x000e86d2: retn 0x0B74 ; 
0x0003afe0: retn 0x0B76 ; 
0x0010baaa: retn 0x0B89 ; 
0x000218da: retn 0x0C29 ; 
0x00077e03: retn 0x0C72 ; 
0x000cae9d: retn 0x0C74 ; 
0x000c1c77: retn 0x0C78 ; 
0x00073350: retn 0x0CB8 ; 
0x000754c0: retn 0x0D73 ; 
0x000ad3c7: retn 0x0D74 ; 
0x001540c1: retn 0x0D8F ; 
0x0019e7b9: retn 0x0E0A ; 
0x0019babf: retn 0x0E41 ; 
0x000e57f5: retn 0x0E74 ; 
0x00154dd4: retn 0x0EC2 ; 
0x000c4816: retn 0x0EE9 ; 
0x0014114f: retn 0x0F00 ; 
0x00018e90: retn 0x0F01 ; 
0x0005537d: retn 0x0F02 ; 
0x001412d1: retn 0x0F03 ; 
0x0007e3cf: retn 0x0F04 ; 
0x001412e1: retn 0x0F05 ; 
0x00017cbb: retn 0x0F08 ; 
0x0014129c: retn 0x0F0C ; 
0x00142503: retn 0x0F0F ; 
0x0004bf39: retn 0x0F10 ; 
0x000454da: retn 0x0F20 ; 
0x000910c6: retn 0x0F3B ; 
0x00045147: retn 0x0F40 ; 
0x00045121: retn 0x0F50 ; 
0x0007e6f3: retn 0x0F66 ; 
0x00032dbc: retn 0x0F75 ; 
0x0009e427: retn 0x0F76 ; 
0x000f25f8: retn 0x0F7E ; 
0x0003eb74: retn 0x0F7F ; 
0x001038eb: retn 0x0F80 ; 
0x00025ff9: retn 0x0FDF ; 
0x00021353: retn 0x0FE7 ; 
0x0013cee4: retn 0x0FF3 ; 
0x0000098f: retn 0x1010 ; 
0x000ac73f: retn 0x1058 ; 
0x00074557: retn 0x1089 ; 
0x000006de: retn 0x1092 ; 
0x00097343: retn 0x10EB ; 
0x001187df: retn 0x116A ; 
0x0001c01d: retn 0x1189 ; 
0x00090de6: retn 0x121B ; 
0x0001b732: retn 0x1274 ; 
0x00070cf6: retn 0x130B ; 
0x000dee62: retn 0x1389 ; 
0x00029f97: retn 0x13E9 ; 
0x000f4eb7: retn 0x13EB ; 
0x000c96fc: retn 0x1474 ; 
0x0003b179: retn 0x1477 ; 
0x00033317: retn 0x1488 ; 
0x00090b26: retn 0x14DB ; 
0x001114d0: retn 0x1572 ; 
0x00090a66: retn 0x159B ; 
0x00020a5a: retn 0x15A7 ; 
0x00090a36: retn 0x15CB ; 
0x0001cf65: retn 0x15E9 ; 
0x000e07c8: retn 0x15EB ; 
0x00090a06: retn 0x15FB ; 
0x0008fa47: retn 0x1676 ; 
0x000ffdba: retn 0x1677 ; 
0x00090986: retn 0x167B ; 
0x0008fd07: retn 0x167C ; 
0x000c56f2: retn 0x16EB ; 
0x000c96de: retn 0x1774 ; 
0x0007e025: retn 0x1874 ; 
0x000ee4c4: retn 0x1876 ; 
0x0002b5d3: retn 0x1A74 ; 
0x000c7587: retn 0x1A8B ; 
0x00154616: retn 0x1AD4 ; 
0x00152dad: retn 0x1B49 ; 
0x00001b1d: retn 0x1BB7 ; 
0x000f3064: retn 0x1BE9 ; 
0x0000359b: retn 0x1BF9 ; 
0x00076979: retn 0x1C74 ; 
0x0006fd53: retn 0x1C8D ; 
0x0012fd2e: retn 0x1D72 ; 
0x0008f4de: retn 0x1D75 ; 
0x00024705: retn 0x1DB9 ; 
0x00002161: retn 0x1DD4 ; 
0x0014256e: retn 0x1F75 ; 
0x000a44e1: retn 0x1FB8 ; 
0x00104eb5: retn 0x2075 ; 
0x0000057d: retn 0x2096 ; 
0x0003e9ee: retn 0x20B9 ; 
0x00022baa: retn 0x20BD ; 
0x000e43fd: retn 0x21EB ; 
0x000afe0a: retn 0x21F7 ; 
0x0003324c: retn 0x2274 ; 
0x00104ece: retn 0x233C ; 
0x000a3444: retn 0x2374 ; 
0x0010a44e: retn 0x2394 ; 
0x000025bf: retn 0x23CB ; 
0x000027e4: retn 0x244F ; 
0x000755ca: retn 0x2474 ; 
0x00071390: retn 0x2475 ; 
0x0006a93f: retn 0x2501 ; 
0x0006338f: retn 0x2673 ; 
0x0008fa37: retn 0x2676 ; 
0x0011f98a: retn 0x2677 ; 
0x0008fcf7: retn 0x267C ; 
0x000caeb0: retn 0x267E ; 
0x0002cb45: retn 0x2775 ; 
0x0005f866: retn 0x279B ; 
0x0007e8ea: retn 0x280F ; 
0x0005b9d6: retn 0x2876 ; 
0x000df776: retn 0x288B ; 
0x0004622a: retn 0x2901 ; 
0x0007d5e4: retn 0x2902 ; 
0x000876f8: retn 0x2910 ; 
0x0010392d: retn 0x2937 ; 
0x0008fb88: retn 0x2940 ; 
0x0009f6ba: retn 0x2947 ; 
0x000a62da: retn 0x2964 ; 
0x00063b69: retn 0x2999 ; 
0x00001a21: retn 0x2A63 ; 
0x0006797a: retn 0x2BEB ; 
0x00104eae: retn 0x2C3C ; 
0x0013c6da: retn 0x2C73 ; 
0x000cd1fd: retn 0x2C74 ; 
0x0005e901: retn 0x2C75 ; 
0x000907a1: retn 0x2C77 ; 
0x000728f2: retn 0x2C8D ; 
0x000d2306: retn 0x2D3C ; 
0x00101328: retn 0x2D72 ; 
0x0003f0ca: retn 0x2F37 ; 
0x000df030: retn 0x2FD1 ; 
0x0002f63f: retn 0x3039 ; 
0x00001a9c: retn 0x306A ; 
0x00103d98: retn 0x3104 ; 
0x0013d09b: retn 0x3273 ; 
0x00091152: retn 0x3276 ; 
0x00071c03: retn 0x3374 ; 
0x00002720: retn 0x33B1 ; 
0x0014270a: retn 0x348D ; 
0x000aeb2a: retn 0x34D7 ; 
0x000ce53b: retn 0x3574 ; 
0x000ee9ac: retn 0x3655 ; 
0x000fdedd: retn 0x3678 ; 
0x0008fce7: retn 0x367C ; 
0x000b8cd0: retn 0x3774 ; 
0x00153ef6: retn 0x3827 ; 
0x0008f4c3: retn 0x3875 ; 
0x0003bdc3: retn 0x3880 ; 
0x00152586: retn 0x38AE ; 
0x0001bbda: retn 0x3901 ; 
0x0002acea: retn 0x3903 ; 
0x0001bf5e: retn 0x3904 ; 
0x0006cab7: retn 0x3908 ; 
0x000a388b: retn 0x3909 ; 
0x0004019e: retn 0x390C ; 
0x00070417: retn 0x3910 ; 
0x000ab5f1: retn 0x3934 ; 
0x0008fa24: retn 0x3976 ; 
0x00036581: retn 0x39EB ; 
0x000eda01: retn 0x3A3C ; 
0x00142553: retn 0x3A75 ; 
0x000a30e0: retn 0x3A80 ; 
0x00029f70: retn 0x3AE9 ; 
0x0007c613: retn 0x3B01 ; 
0x000e9313: retn 0x3B02 ; 
0x0009e370: retn 0x3B04 ; 
0x000c0d74: retn 0x3B20 ; 
0x0005a1b8: retn 0x3B30 ; 
0x00108ef4: retn 0x3B74 ; 
0x0002ae21: retn 0x3C01 ; 
0x0009dd42: retn 0x3C8D ; 
0x0005e2ea: retn 0x3D17 ; 
0x000a1c58: retn 0x3D74 ; 
0x0000044f: retn 0x3E00 ; 
0x0013c6c5: retn 0x3E73 ; 
0x0007e146: retn 0x3EBB ; 
0x0003ed2c: retn 0x3F74 ; 
0x00116866: retn 0x3F75 ; 
0x000008f5: retn 0x4081 ; 
0x00027ab0: retn 0x408B ; 
0x0009140a: retn 0x408D ; 
0x000bc3d0: retn 0x40C6 ; 
0x00103be9: retn 0x4189 ; 
0x000a177b: retn 0x4240 ; 
0x000f174e: retn 0x4274 ; 
0x000f0261: retn 0x428B ; 
0x000edcca: retn 0x4337 ; 
0x00051836: retn 0x4373 ; 
0x000fdb44: retn 0x4389 ; 
0x0007dc10: retn 0x43F1 ; 
0x000760c5: retn 0x4401 ; 
0x000e5814: retn 0x440F ; 
0x000bde3c: retn 0x4422 ; 
0x000324df: retn 0x442B ; 
0x000bd3c2: retn 0x4439 ; 
0x000a2f69: retn 0x446B ; 
0x0001ce2f: retn 0x4489 ; 
0x0001d287: retn 0x448B ; 
0x0001d300: retn 0x448D ; 
0x0007db50: retn 0x44B1 ; 
0x0002a14d: retn 0x44C7 ; 
0x00105b1a: retn 0x44F6 ; 
0x00028edc: retn 0x4577 ; 
0x0007becd: retn 0x4588 ; 
0x00025bee: retn 0x4589 ; 
0x00043f48: retn 0x458B ; 
0x000d7af7: retn 0x458D ; 
0x0007da2a: retn 0x45D7 ; 
0x00102b27: retn 0x4677 ; 
0x000219d3: retn 0x4689 ; 
0x0004f9fb: retn 0x468B ; 
0x00153084: retn 0x474C ; 
0x000bd88a: retn 0x4777 ; 
0x000f171b: retn 0x4789 ; 
0x0006ab02: retn 0x478B ; 
0x0004ab8f: retn 0x4877 ; 
0x000ccb2b: retn 0x4889 ; 
0x00064e21: retn 0x490F ; 
0x00140913: retn 0x498D ; 
0x00003a4b: retn 0x49EC ; 
0x0011c57f: retn 0x4A8D ; 
0x000da05a: retn 0x4B74 ; 
0x0006d488: retn 0x4B79 ; 
0x000ab4d7: retn 0x4B89 ; 
0x000905f4: retn 0x4BE9 ; 
0x0013d081: retn 0x4C73 ; 
0x000a49fa: retn 0x4C80 ; 
0x00034400: retn 0x4C89 ; 
0x00029daf: retn 0x4C8B ; 
0x00067214: retn 0x4D89 ; 
0x00022ef7: retn 0x4D8B ; 
0x0003ed33: retn 0x4E0F ; 
0x001542a3: retn 0x4E27 ; 
0x00025816: retn 0x4EE9 ; 
0x000c4bee: retn 0x4F0F ; 
0x000bd09a: retn 0x4F67 ; 
0x00058408: retn 0x5051 ; 
0x0006a260: retn 0x5052 ; 
0x000a2875: retn 0x5056 ; 
0x0010fc4d: retn 0x5057 ; 
0x0013c6b0: retn 0x5073 ; 
0x0010585d: retn 0x5074 ; 
0x00032de0: retn 0x508D ; 
0x000e596e: retn 0x50E9 ; 
0x0003742c: retn 0x5152 ; 
0x000a1920: retn 0x5180 ; 
0x00072ff2: retn 0x5189 ; 
0x00026e36: retn 0x5201 ; 
0x0010e814: retn 0x5208 ; 
0x000471c1: retn 0x5251 ; 
0x0007e86e: retn 0x528D ; 
0x00003266: retn 0x52C0 ; 
0x000bd122: retn 0x5303 ; 
0x00134202: retn 0x5310 ; 
0x0006ce53: retn 0x5356 ; 
0x000dcc9a: retn 0x5367 ; 
0x0008f4a8: retn 0x5375 ; 
0x000f0f8c: retn 0x538D ; 
0x0002cc46: retn 0x53BB ; 
0x001166b7: retn 0x53E8 ; 
0x000a3801: retn 0x53E9 ; 
0x0001e8b3: retn 0x5403 ; 
0x0003c487: retn 0x540A ; 
0x0003ca54: retn 0x542B ; 
0x000a13f3: retn 0x5438 ; 
0x00119b19: retn 0x5439 ; 
0x000ee132: retn 0x543B ; 
0x000904a8: retn 0x5484 ; 
0x000327e0: retn 0x5488 ; 
0x0002af9a: retn 0x5489 ; 
0x0003c601: retn 0x548B ; 
0x000d2176: retn 0x548D ; 
0x0015250c: retn 0x5508 ; 
0x0003aeff: retn 0x552B ; 
0x00117092: retn 0x553B ; 
0x00142538: retn 0x5575 ; 
0x00002412: retn 0x5576 ; 
0x0002134e: retn 0x5590 ; 
0x0001ca0a: retn 0x55F7 ; 
0x000b6524: retn 0x5601 ; 
0x000beb16: retn 0x5603 ; 
0x0013d394: retn 0x5608 ; 
0x00063912: retn 0x562B ; 
0x000e1ccf: retn 0x5652 ; 
0x0012110c: retn 0x5689 ; 
0x000bc989: retn 0x568B ; 
0x0013c0f5: retn 0x5708 ; 
0x00137058: retn 0x5710 ; 
0x000f17ab: retn 0x572B ; 
0x000e3494: retn 0x5751 ; 
0x0010ab77: retn 0x5752 ; 
0x0002c8ab: retn 0x5756 ; 
0x00019a88: retn 0x57E9 ; 
0x001547d4: retn 0x5803 ; 
0x000ec7da: retn 0x5827 ; 
0x0008fe8f: retn 0x583A ; 
0x00073708: retn 0x588D ; 
0x001521e0: retn 0x591C ; 
0x000ca0e1: retn 0x5958 ; 
0x00054ac4: retn 0x5975 ; 
0x00003359: retn 0x5A51 ; 
0x0003c37b: retn 0x5A88 ; 
0x00152f47: retn 0x5AE4 ; 
0x0003c067: retn 0x5AE9 ; 
0x00003047: retn 0x5BDB ; 
0x000e0d3d: retn 0x5C3C ; 
0x00090521: retn 0x5C89 ; 
0x000a0650: retn 0x5C8B ; 
0x0008006a: retn 0x5C8D ; 
0x00003111: retn 0x5CBE ; 
0x0006c306: retn 0x5CFB ; 
0x0006c2b6: retn 0x5D4B ; 
0x0013bfcc: retn 0x5D5E ; 
0x0008f780: retn 0x5DEB ; 
0x00075242: retn 0x5E5B ; 
0x0010c0db: retn 0x5F26 ; 
0x00069d27: retn 0x5F3C ; 
0x00024a23: retn 0x5F5E ; 
0x00002719: retn 0x617E ; 
0x0013c69b: retn 0x6273 ; 
0x00154c6e: retn 0x62C1 ; 
0x000f218c: retn 0x64E9 ; 
0x0010300b: retn 0x6501 ; 
0x0005e5c0: retn 0x6509 ; 
0x0002ba0f: retn 0x65F2 ; 
0x0013def1: retn 0x6610 ; 
0x00086fd3: retn 0x6640 ; 
0x00002833: retn 0x6642 ; 
0x0013d067: retn 0x6673 ; 
0x000e599c: retn 0x66C3 ; 
0x000216ad: retn 0x6774 ; 
0x001521ff: retn 0x67B2 ; 
0x000de90f: retn 0x6852 ; 
0x0002b6b7: retn 0x694A ; 
0x000a8bf1: retn 0x69E9 ; 
0x000e500a: retn 0x6A50 ; 
0x00023c81: retn 0x6A52 ; 
0x00003e7a: retn 0x6BBA ; 
0x0002b41d: retn 0x6BE4 ; 
0x000fb397: retn 0x6C6A ; 
0x0009c7bc: retn 0x6C83 ; 
0x0011b377: retn 0x6C8A ; 
0x000db32a: retn 0x6CD7 ; 
0x000aa5ee: retn 0x6EB8 ; 
0x00070f59: retn 0x6F74 ; 
0x0009085d: retn 0x6FE9 ; 
0x0005f362: retn 0x708D ; 
0x000faf38: retn 0x70C9 ; 
0x000b8c96: retn 0x7174 ; 
0x0003adad: retn 0x7254 ; 
0x000f80a3: retn 0x7274 ; 
0x0007007a: retn 0x7374 ; 
0x0006b526: retn 0x7401 ; 
0x00064682: retn 0x7402 ; 
0x00078f34: retn 0x7403 ; 
0x000c2088: retn 0x7404 ; 
0x0008fd6b: retn 0x7410 ; 
0x0005e219: retn 0x7420 ; 
0x00102cb1: retn 0x7474 ; 
0x000c9470: retn 0x7480 ; 
0x000a3527: retn 0x748B ; 
0x0003c6cb: retn 0x748D ; 
0x000eab16: retn 0x74EB ; 
0x000e3a8d: retn 0x74FF ; 
0x0003d9e3: retn 0x7501 ; 
0x00089d97: retn 0x7502 ; 
0x000f4630: retn 0x7503 ; 
0x00089d9c: retn 0x7504 ; 
0x0010199e: retn 0x7507 ; 
0x0013f49e: retn 0x7508 ; 
0x00089db1: retn 0x7510 ; 
0x00089db6: retn 0x7520 ; 
0x00089dbb: retn 0x7540 ; 
0x000eaaa6: retn 0x755B ; 
0x0006ffa6: retn 0x7574 ; 
0x0011d5eb: retn 0x75FF ; 
0x00032544: retn 0x768D ; 
0x00017c4d: retn 0x7800 ; 
0x000e434d: retn 0x7874 ; 
0x00105e66: retn 0x788B ; 
0x00002f84: retn 0x793B ; 
0x000605ac: retn 0x798B ; 
0x0006a5a6: retn 0x7A5B ; 
0x000653f3: retn 0x7B89 ; 
0x00028f2f: retn 0x7BE8 ; 
0x0003bf93: retn 0x7BE9 ; 
0x001412f1: retn 0x7C06 ; 
0x00141301: retn 0x7C07 ; 
0x00141311: retn 0x7C09 ; 
0x00141321: retn 0x7C0A ; 
0x00141331: retn 0x7C0B ; 
0x00141341: retn 0x7C0D ; 
0x00141351: retn 0x7C0E ; 
0x00141361: retn 0x7C0F ; 
0x0002aa52: retn 0x7C39 ; 
0x0006a3ad: retn 0x7C54 ; 
0x000182d6: retn 0x7C83 ; 
0x0002db78: retn 0x7C89 ; 
0x0009cad3: retn 0x7C8B ; 
0x00047756: retn 0x7CD9 ; 
0x00017e2c: retn 0x7D83 ; 
0x000ee1d7: retn 0x7D89 ; 
0x000f2c5d: retn 0x7D8B ; 
0x000660e5: retn 0x7D8D ; 
0x0013c135: retn 0x7E10 ; 
0x0004ed37: retn 0x7F3C ; 
0x0006a07a: retn 0x7F87 ; 
0x00029ee7: retn 0x8001 ; 
0x000a3a8b: retn 0x8008 ; 
0x000cd555: retn 0x8014 ; 
0x000fd885: retn 0x8080 ; 
0x0010ce6b: retn 0x808B ; 
0x00023756: retn 0x808D ; 
0x00003a04: retn 0x80FC ; 
0x0004b74f: retn 0x8104 ; 
0x00072518: retn 0x8108 ; 
0x0011227d: retn 0x8112 ; 
0x0002f81c: retn 0x813F ; 
0x0002bb2d: retn 0x8166 ; 
0x000b1a3e: retn 0x81C3 ; 
0x00022c36: retn 0x820F ; 
0x0005f701: retn 0x828B ; 
0x00073429: retn 0x828D ; 
0x00018fb7: retn 0x8301 ; 
0x0003ba7e: retn 0x8302 ; 
0x000ffdc5: retn 0x8303 ; 
0x0001bf36: retn 0x8304 ; 
0x000280b8: retn 0x8308 ; 
0x00101697: retn 0x830C ; 
0x0002f8b9: retn 0x830F ; 
0x00091057: retn 0x8310 ; 
0x000ddfd7: retn 0x8318 ; 
0x00022be6: retn 0x831C ; 
0x000b2f8e: retn 0x831E ; 
0x00076e95: retn 0x8320 ; 
0x0011ae02: retn 0x8328 ; 
0x0001a285: retn 0x833C ; 
0x00087024: retn 0x8340 ; 
0x0001aa3b: retn 0x8365 ; 
0x000e1a51: retn 0x8389 ; 
0x00028ca8: retn 0x838B ; 
0x000ee4c9: retn 0x838D ; 
0x00140dde: retn 0x8390 ; 
0x000fdc6b: retn 0x83C6 ; 
0x00116d47: retn 0x83E8 ; 
0x000338ce: retn 0x83FF ; 
0x00050db1: retn 0x8401 ; 
0x00074be5: retn 0x8404 ; 
0x000182e0: retn 0x840F ; 
0x000d2e9e: retn 0x848B ; 
0x000d9b1d: retn 0x84E4 ; 
0x00072fe4: retn 0x8501 ; 
0x00027d09: retn 0x8503 ; 
0x00048ca0: retn 0x8504 ; 
0x000a0649: retn 0x8506 ; 
0x0001c2f8: retn 0x8507 ; 
0x00017e06: retn 0x850F ; 
0x00090ba3: retn 0x8510 ; 
0x000ca418: retn 0x8516 ; 
0x000a79c3: retn 0x8530 ; 
0x0009002a: retn 0x8540 ; 
0x000274b0: retn 0x8589 ; 
0x00026e0c: retn 0x858B ; 
0x0010239a: retn 0x85C6 ; 
0x00040862: retn 0x85C7 ; 
0x0003b1b8: retn 0x860F ; 
0x000e968c: retn 0x8689 ; 
0x0002786d: retn 0x868D ; 
0x0001e11b: retn 0x870F ; 
0x00151b26: retn 0x871E ; 
0x00018189: retn 0x8789 ; 
0x00018ec9: retn 0x8801 ; 
0x00101c61: retn 0x8802 ; 
0x001a0aee: retn 0x880E ; 
0x0009d50b: retn 0x880F ; 
0x00045135: retn 0x8820 ; 
0x00108fc2: retn 0x8874 ; 
0x00002584: retn 0x88AD ; 
0x0001c6ed: retn 0x8901 ; 
0x0002a0c1: retn 0x8902 ; 
0x00077a9b: retn 0x8903 ; 
0x000573d0: retn 0x8904 ; 
0x00077a5b: retn 0x8905 ; 
0x00077a23: retn 0x8906 ; 
0x0010ca54: retn 0x8908 ; 
0x000177cb: retn 0x8909 ; 
0x000f87ba: retn 0x890F ; 
0x0009f73c: retn 0x8910 ; 
0x00114366: retn 0x8920 ; 
0x0002adce: retn 0x8952 ; 
0x000e1cc6: retn 0x8957 ; 
0x0006059b: retn 0x895B ; 
0x000daa6d: retn 0x8966 ; 
0x000cdc2d: retn 0x8980 ; 
0x000b1b45: retn 0x89C3 ; 
0x0007686d: retn 0x8A04 ; 
0x0000251f: retn 0x8A4C ; 
0x0001c82f: retn 0x8B01 ; 
0x000e8a81: retn 0x8B03 ; 
0x00055af1: retn 0x8B04 ; 
0x00074b81: retn 0x8B10 ; 
0x000ea1e8: retn 0x8B11 ; 
0x000e9f25: retn 0x8B12 ; 
0x000c78ad: retn 0x8B18 ; 
0x00077759: retn 0x8B20 ; 
0x0015434a: retn 0x8B36 ; 
0x0001a30f: retn 0x8B3C ; 
0x000b41a5: retn 0x8B52 ; 
0x000919f2: retn 0x8B65 ; 
0x000bfbdc: retn 0x8C0F ; 
0x000038ea: retn 0x8CBA ; 
0x0002a222: retn 0x8D01 ; 
0x000f4614: retn 0x8D03 ; 
0x00026d9a: retn 0x8D04 ; 
0x0003eede: retn 0x8D0F ; 
0x0008ff71: retn 0x8D10 ; 
0x000ebbac: retn 0x8D50 ; 
0x000feeb2: retn 0x8D89 ; 
0x000517f4: retn 0x8D8B ; 
0x0011c3b3: retn 0x8D8D ; 
0x0001cbb7: retn 0x8D90 ; 
0x0001b9a0: retn 0x8DC3 ; 
0x0001d36f: retn 0x8E0F ; 
0x00079176: retn 0x8E8B ; 
0x000c8976: retn 0x8F0F ; 
0x000245ae: retn 0x8F72 ; 
0x00028025: retn 0x8FE9 ; 
0x000680d3: retn 0x9066 ; 
0x000e8aa9: retn 0x90C3 ; 
0x0002a01a: retn 0x90E9 ; 
0x00070fc8: retn 0x9175 ; 
0x0002ac14: retn 0x91EB ; 
0x000a3065: retn 0x9275 ; 
0x0006ed6b: retn 0x9389 ; 
0x00064e24: retn 0x938B ; 
0x0003cbab: retn 0x938D ; 
0x00054c14: retn 0x940F ; 
0x00142589: retn 0x9474 ; 
0x00093804: retn 0x948B ; 
0x00054c17: retn 0x950A ; 
0x00048e27: retn 0x950F ; 
0x000549ba: retn 0x9522 ; 
0x0005320d: retn 0x952B ; 
0x000529df: retn 0x9539 ; 
0x000213f1: retn 0x953B ; 
0x000274d4: retn 0x953D ; 
0x00153173: retn 0x9576 ; 
0x00027c41: retn 0x9589 ; 
0x0004d47b: retn 0x958B ; 
0x000d838f: retn 0x958D ; 
0x00102aca: retn 0x960F ; 
0x000d887d: retn 0x9784 ; 
0x00071045: retn 0x9875 ; 
0x00018736: retn 0x98CB ; 
0x00154dd5: retn 0x990E ; 
0x00031e61: retn 0x99E9 ; 
0x000da0c0: retn 0x9A75 ; 
0x00046c9f: retn 0x9BE9 ; 
0x000fdf42: retn 0x9BEB ; 
0x000d2383: retn 0x9C8B ; 
0x000b3d2a: retn 0x9D8B ; 
0x0003c49f: retn 0x9EE9 ; 
0x000d6d91: retn 0xA175 ; 
0x0007b5b7: retn 0xA1E9 ; 
0x0002a008: retn 0xA2E9 ; 
0x00067c96: retn 0xA36B ; 
0x000dba37: retn 0xA375 ; 
0x000f0c69: retn 0xA474 ; 
0x00152e63: retn 0xA514 ; 
0x00068427: retn 0xA674 ; 
0x0011e52e: retn 0xA773 ; 
0x0007b4b4: retn 0xA7EB ; 
0x00077616: retn 0xA9EB ; 
0x00070763: retn 0xAA74 ; 
0x00077556: retn 0xAAAB ; 
0x00077506: retn 0xAAFB ; 
0x000774b6: retn 0xAB4B ; 
0x00077466: retn 0xAB9B ; 
0x00026690: retn 0xABE9 ; 
0x0016ed96: retn 0xAC0E ; 
0x001532e7: retn 0xAC65 ; 
0x0003a787: retn 0xAC74 ; 
0x00077376: retn 0xAC8B ; 
0x00153ca0: retn 0xACFC ; 
0x00077296: retn 0xAD6B ; 
0x0001fdc9: retn 0xADEB ; 
0x000006f1: retn 0xAE00 ; 
0x000771b6: retn 0xAE4B ; 
0x00077106: retn 0xAEFB ; 
0x00045c91: retn 0xAF0F ; 
0x00077066: retn 0xAF9B ; 
0x00076fc6: retn 0xB03B ; 
0x0011d311: retn 0xB0FF ; 
0x00076ef6: retn 0xB10B ; 
0x00120c27: retn 0xB174 ; 
0x001065a9: retn 0xB274 ; 
0x00052981: retn 0xB375 ; 
0x00076bd6: retn 0xB42B ; 
0x000769f6: retn 0xB60B ; 
0x000196ba: retn 0xB60F ; 
0x00078971: retn 0xB68D ; 
0x000cccc3: retn 0xB70F ; 
0x00101ce1: retn 0xB85B ; 
0x000bdea2: retn 0xB880 ; 
0x00090398: retn 0xB883 ; 
0x000ecf99: retn 0xB8EB ; 
0x001531ae: retn 0xB9B9 ; 
0x0000325d: retn 0xBA88 ; 
0x00090815: retn 0xBAEB ; 
0x000c56fc: retn 0xBB01 ; 
0x000664d8: retn 0xBB29 ; 
0x000d6d77: retn 0xBB75 ; 
0x000d9df5: retn 0xBCEB ; 
0x00002438: retn 0xBD07 ; 
0x0004c96c: retn 0xBD8B ; 
0x000a67e3: retn 0xBE0F ; 
0x00152f04: retn 0xBE57 ; 
0x0001ceda: retn 0xBF04 ; 
0x000ee8e6: retn 0xBF75 ; 
0x00031d73: retn 0xC031 ; 
0x00108133: retn 0xC069 ; 
0x0007723c: retn 0xC083 ; 
0x000e3283: retn 0xC084 ; 
0x0008f809: retn 0xC085 ; 
0x0007e79f: retn 0xC0BE ; 
0x00115f16: retn 0xC0EB ; 
0x0002eae8: retn 0xC101 ; 
0x000334db: retn 0xC102 ; 
0x0007a485: retn 0xC183 ; 
0x0003ffb5: retn 0xC189 ; 
0x000ee942: retn 0xC1EB ; 
0x000c88d4: retn 0xC209 ; 
0x000327de: retn 0xC220 ; 
0x0004b4d9: retn 0xC221 ; 
0x0002f6f2: retn 0xC269 ; 
0x000a0edf: retn 0xC26B ; 
0x000a0786: retn 0xC283 ; 
0x00075d46: retn 0xC2BB ; 
0x000801ee: retn 0xC301 ; 
0x000ab2f7: retn 0xC35B ; 
0x000180cd: retn 0xC389 ; 
0x00079e5b: retn 0xC3F3 ; 
0x0010f619: retn 0xC481 ; 
0x000199e4: retn 0xC483 ; 
0x00150e02: retn 0xC4C3 ; 
0x00152ab8: retn 0xC4FF ; 
0x000a662d: retn 0xC529 ; 
0x000ebbc4: retn 0xC589 ; 
0x000a2e34: retn 0xC601 ; 
0x000e0fed: retn 0xC604 ; 
0x000759a6: retn 0xC65B ; 
0x000c262a: retn 0xC683 ; 
0x00021a10: retn 0xC689 ; 
0x0007d197: retn 0xC701 ; 
0x0002a1b3: retn 0xC702 ; 
0x0001d717: retn 0xC704 ; 
0x00071113: retn 0xC708 ; 
0x00018f73: retn 0xC71E ; 
0x001114de: retn 0xC773 ; 
0x000bac8c: retn 0xC783 ; 
0x000bc670: retn 0xC789 ; 
0x00029de8: retn 0xC801 ; 
0x000757a6: retn 0xC85B ; 
0x00025bd6: retn 0xC889 ; 
0x00075756: retn 0xC8AB ; 
0x00075706: retn 0xC8FB ; 
0x00075217: retn 0xC931 ; 
0x000756b6: retn 0xC94B ; 
0x00075686: retn 0xC97B ; 
0x0006f93d: retn 0xC983 ; 
0x000e1d4a: retn 0xC984 ; 
0x00019a6d: retn 0xC985 ; 
0x0009ed4e: retn 0xCA20 ; 
0x0008fe53: retn 0xCA29 ; 
0x000a135d: retn 0xCA38 ; 
0x00075586: retn 0xCA7B ; 
0x000c13c3: retn 0xCA7D ; 
0x000ff31e: retn 0xCA83 ; 
0x000931a4: retn 0xCA89 ; 
0x000e34d6: retn 0xCAD8 ; 
0x0006551a: retn 0xCAE7 ; 
0x00118b52: retn 0xCB01 ; 
0x0007c46e: retn 0xCB38 ; 
0x000d0f38: retn 0xCB89 ; 
0x0001c543: retn 0xCBE9 ; 
0x00025386: retn 0xCC7B ; 
0x0015254a: retn 0xCCA7 ; 
0x00154629: retn 0xCD11 ; 
0x0002891a: retn 0xCE80 ; 
0x0006e8fe: retn 0xCE83 ; 
0x000a258c: retn 0xCF39 ; 
0x000ee1fd: retn 0xCF89 ; 
0x00075076: retn 0xCF8B ; 
0x00027c21: retn 0xD001 ; 
0x000c62ab: retn 0xD009 ; 
0x000a1f9d: retn 0xD020 ; 
0x000a1246: retn 0xD021 ; 
0x000b1915: retn 0xD029 ; 
0x00074f96: retn 0xD06B ; 
0x00020dd8: retn 0xD089 ; 
0x000cd239: retn 0xD101 ; 
0x0004f658: retn 0xD108 ; 
0x000c8bc2: retn 0xD109 ; 
0x00074ee6: retn 0xD11B ; 
0x0009edb9: retn 0xD121 ; 
0x00053009: retn 0xD129 ; 
0x000d4ed6: retn 0xD12B ; 
0x000a1212: retn 0xD138 ; 
0x000be208: retn 0xD139 ; 
0x000c13bc: retn 0xD178 ; 
0x0007dd80: retn 0xD184 ; 
0x0002d6ab: retn 0xD189 ; 
0x0001b3cb: retn 0xD231 ; 
0x00018675: retn 0xD284 ; 
0x00017963: retn 0xD285 ; 
0x000f4d66: retn 0xD29B ; 
0x000a2a92: retn 0xD2F7 ; 
0x000f4d06: retn 0xD2FB ; 
0x000778c8: retn 0xD310 ; 
0x00074ce6: retn 0xD31B ; 
0x00052e99: retn 0xD329 ; 
0x000f4ca6: retn 0xD35B ; 
0x0005a6db: retn 0xD389 ; 
0x000f4c46: retn 0xD3BB ; 
0x000dfd9e: retn 0xD3E9 ; 
0x00171aba: retn 0xD40E ; 
0x000bcfa9: retn 0xD473 ; 
0x000bc2d2: retn 0xD475 ; 
0x00074ae6: retn 0xD51B ; 
0x001068a3: retn 0xD589 ; 
0x0003f50d: retn 0xD601 ; 
0x0001c73f: retn 0xD639 ; 
0x00071aef: retn 0xD674 ; 
0x0006e80a: retn 0xD689 ; 
0x0006ff9d: retn 0xD739 ; 
0x000eeded: retn 0xD789 ; 
0x0003b2ad: retn 0xD883 ; 
0x0012477a: retn 0xD887 ; 
0x00027f14: retn 0xD889 ; 
0x00124726: retn 0xD8DB ; 
0x001246d6: retn 0xD92B ; 
0x0010ba92: retn 0xD931 ; 
0x0001eb1e: retn 0xD939 ; 
0x00124696: retn 0xD96B ; 
0x000c90bb: retn 0xD972 ; 
0x00064509: retn 0xD989 ; 
0x00124646: retn 0xD9BB ; 
0x00124606: retn 0xD9FB ; 
0x000bbcdc: retn 0xDA01 ; 
0x00103721: retn 0xDA29 ; 
0x000645c8: retn 0xDA39 ; 
0x001245c6: retn 0xDA3B ; 
0x0002c285: retn 0xDAF7 ; 
0x00086eea: retn 0xDB31 ; 
0x0003ae6b: retn 0xDB84 ; 
0x00070fdf: retn 0xDB85 ; 
0x0009f64e: retn 0xDC00 ; 
0x001541a2: retn 0xDCD9 ; 
0x0006ebe7: retn 0xDDE9 ; 
0x00153122: retn 0xDE5D ; 
0x00151eb5: retn 0xDE9E ; 
0x000d4be5: retn 0xDF89 ; 
0x000c23c7: retn 0xDFEB ; 
0x000003b8: retn 0xE000 ; 
0x000bd474: retn 0xE075 ; 
0x0002bb50: retn 0xE083 ; 
0x0012547d: retn 0xE0C1 ; 
0x00049e4e: retn 0xE183 ; 
0x000f3e3b: retn 0xE1C6 ; 
0x0004de77: retn 0xE1E9 ; 
0x00143da6: retn 0xE25B ; 
0x00140445: retn 0xE280 ; 
0x0001d8d6: retn 0xE281 ; 
0x0001dc81: retn 0xE283 ; 
0x000b4b5f: retn 0xE289 ; 
0x0002e8e4: retn 0xE2C1 ; 
0x00073c56: retn 0xE3AB ; 
0x000f3aa6: retn 0xE55B ; 
0x0007c97e: retn 0xE575 ; 
0x000f3a56: retn 0xE5AB ; 
0x000f3a16: retn 0xE5EB ; 
0x000f39d6: retn 0xE62B ; 
0x001039b7: retn 0xE64A ; 
0x000f3996: retn 0xE66B ; 
0x0007110f: retn 0xE675 ; 
0x0009080a: retn 0xE680 ; 
0x0013dc30: retn 0xE683 ; 
0x000f3946: retn 0xE6BB ; 
0x000f3906: retn 0xE6FB ; 
0x001542c2: retn 0xE71F ; 
0x000f38b6: retn 0xE74B ; 
0x0010389c: retn 0xE765 ; 
0x000f3866: retn 0xE79B ; 
0x00079708: retn 0xE801 ; 
0x000c519b: retn 0xE802 ; 
0x000bff80: retn 0xE804 ; 
0x000c96b1: retn 0xE808 ; 
0x000f37d6: retn 0xE82B ; 
0x00027665: retn 0xE860 ; 
0x000f3786: retn 0xE87B ; 
0x00091b23: retn 0xE883 ; 
0x00034552: retn 0xE889 ; 
0x000f3746: retn 0xE8BB ; 
0x00033312: retn 0xE8C1 ; 
0x0003c2d1: retn 0xE901 ; 
0x00026688: retn 0xE902 ; 
0x000a0ab9: retn 0xE907 ; 
0x000f36f6: retn 0xE90B ; 
0x000ca636: retn 0xE912 ; 
0x000f36b6: retn 0xE94B ; 
0x00152627: retn 0xE970 ; 
0x0001d6d1: retn 0xE983 ; 
0x000f3676: retn 0xE98B ; 
0x0003fff1: retn 0xE9C0 ; 
0x0010bfc1: retn 0xE9C1 ; 
0x000f3636: retn 0xE9CB ; 
0x000e362c: retn 0xE9D5 ; 
0x000f35f6: retn 0xEA0B ; 
0x0003c183: retn 0xEA29 ; 
0x000f35a6: retn 0xEA5B ; 
0x00090799: retn 0xEA81 ; 
0x000265bf: retn 0xEA83 ; 
0x0001cb16: retn 0xEA89 ; 
0x000f3556: retn 0xEAAB ; 
0x0004725a: retn 0xEAC0 ; 
0x00020b01: retn 0xEAC1 ; 
0x0001e371: retn 0xEAD3 ; 
0x000f3506: retn 0xEAFB ; 
0x0007d101: retn 0xEB01 ; 
0x0003e665: retn 0xEB04 ; 
0x00090d91: retn 0xEB08 ; 
0x00090d99: retn 0xEB0C ; 
0x000f34b6: retn 0xEB4B ; 
0x000eebb5: retn 0xEB89 ; 
0x000f3466: retn 0xEB9B ; 
0x000f3416: retn 0xEBEB ; 
0x000733cd: retn 0xEC34 ; 
0x000f33c6: retn 0xEC3B ; 
0x00116a11: retn 0xEC75 ; 
0x0007c931: retn 0xEC77 ; 
0x000184a6: retn 0xEC83 ; 
0x000f3376: retn 0xEC8B ; 
0x000f3326: retn 0xECDB ; 
0x00029fbe: retn 0xECE9 ; 
0x000f32d6: retn 0xED2B ; 
0x000f3296: retn 0xED6B ; 
0x0001d5e8: retn 0xED85 ; 
0x000f3256: retn 0xEDAB ; 
0x000f3216: retn 0xEDEB ; 
0x000f31c6: retn 0xEE3B ; 
0x000f638f: retn 0xEE75 ; 
0x0004625f: retn 0xEE7F ; 
0x00154a76: retn 0xEF32 ; 
0x00157ce0: retn 0xEF69 ; 
0x0007c8ce: retn 0xEF77 ; 
0x000c267e: retn 0xEF7F ; 
0x000e303c: retn 0xEFC5 ; 
0x00033a97: retn 0xEFD3 ; 
0x00028d15: retn 0xEFE9 ; 
0x00055502: retn 0xF001 ; 
0x000303c7: retn 0xF039 ; 
0x00067a79: retn 0xF076 ; 
0x0003232d: retn 0xF089 ; 
0x00102efd: retn 0xF104 ; 
0x00094e22: retn 0xF129 ; 
0x00032dcb: retn 0xF174 ; 
0x0001b744: retn 0xF175 ; 
0x00018131: retn 0xF189 ; 
0x0009eec5: retn 0xF1E9 ; 
0x00156d6c: retn 0xF200 ; 
0x000751fa: retn 0xF201 ; 
0x0004957d: retn 0xF229 ; 
0x0009d5d5: retn 0xF275 ; 
0x000e3236: retn 0xF289 ; 
0x000eea82: retn 0xF28C ; 
0x0002f6f4: retn 0xF31D ; 
0x000a67f6: retn 0xF329 ; 
0x0005546c: retn 0xF372 ; 
0x0003defa: retn 0xF375 ; 
0x000c2397: retn 0xF389 ; 
0x000a2e3c: retn 0xF472 ; 
0x00096381: retn 0xF475 ; 
0x000ccb82: retn 0xF4AB ; 
0x0005bb07: retn 0xF4E9 ; 
0x000f66ea: retn 0xF562 ; 
0x001074e8: retn 0xF575 ; 
0x000e32d3: retn 0xF589 ; 
0x000e2a5a: retn 0xF5A7 ; 
0x000a5ab2: retn 0xF601 ; 
0x00135514: retn 0xF608 ; 
0x0011cc24: retn 0xF610 ; 
0x0001be5a: retn 0xF685 ; 
0x00035306: retn 0xF689 ; 
0x000d26ca: retn 0xF6CA ; 
0x000c397e: retn 0xF775 ; 
0x0005bbe9: retn 0xF789 ; 
0x000cd690: retn 0xF7E9 ; 
0x00036bfa: retn 0xF7FF ; 
0x0007b2a1: retn 0xF800 ; 
0x00045b86: retn 0xF829 ; 
0x0009c94f: retn 0xF839 ; 
0x00151d94: retn 0xF869 ; 
0x0009d38a: retn 0xF879 ; 
0x00078842: retn 0xF883 ; 
0x00027563: retn 0xF889 ; 
0x000ee39a: retn 0xF88B ; 
0x0002b1d9: retn 0xF8C1 ; 
0x00033238: retn 0xF929 ; 
0x0004f47c: retn 0xF983 ; 
0x000b0f8a: retn 0xF989 ; 
0x000da49a: retn 0xF9CA ; 
0x00069d2e: retn 0xFA09 ; 
0x000c87e3: retn 0xFA73 ; 
0x00095845: retn 0xFA81 ; 
0x0001a8e1: retn 0xFA83 ; 
0x000d0aaa: retn 0xFAB2 ; 
0x000e5e8e: retn 0xFAB6 ; 
0x000e623b: retn 0xFAB8 ; 
0x000292ee: retn 0xFAC1 ; 
0x000ad883: retn 0xFACB ; 
0x00046f62: retn 0xFB01 ; 
0x000660fa: retn 0xFB15 ; 
0x000a1f8f: retn 0xFB80 ; 
0x0003b88a: retn 0xFB83 ; 
0x000671ac: retn 0xFB89 ; 
0x000ae10a: retn 0xFBCC ; 
0x0007222a: retn 0xFBDC ; 
0x000b64fa: retn 0xFBF0 ; 
0x000529fa: retn 0xFC4C ; 
0x000acfba: retn 0xFCA6 ; 
0x000acdba: retn 0xFCA8 ; 
0x001646c0: retn 0xFCB2 ; 
0x001646cc: retn 0xFCB3 ; 
0x001647c4: retn 0xFCB4 ; 
0x00164888: retn 0xFCC1 ; 
0x00164980: retn 0xFCC2 ; 
0x001649c4: retn 0xFCDD ; 
0x00164b94: retn 0xFCE1 ; 
0x00164b9c: retn 0xFCE2 ; 
0x00164c40: retn 0xFCEF ; 
0x00164c4c: retn 0xFCF0 ; 
0x0007408a: retn 0xFD55 ; 
0x0010e44a: retn 0xFD9B ; 
0x000e21a6: retn 0xFE5B ; 
0x000ab07a: retn 0xFE60 ; 
0x000bfe34: retn 0xFE83 ; 
0x001426aa: retn 0xFE89 ; 
0x000bf3ce: retn 0xFF00 ; 
0x00017c53: retn 0xFF04 ; 
0x0003428a: retn 0xFF0A ; 
0x0010848e: retn 0xFF0C ; 
0x00033b8a: retn 0xFF11 ; 
0x0002b3f9: retn 0xFF25 ; 
0x00107d68: retn 0xFF28 ; 
0x0006c830: retn 0xFF50 ; 
0x00040e71: retn 0xFF52 ; 
0x000dfe49: retn 0xFF65 ; 
0x000dd4da: retn 0xFF6A ; 
0x000c79ea: retn 0xFF72 ; 
0x000d44ab: retn 0xFF80 ; 
0x0004f4a1: retn 0xFF83 ; 
0x0009182c: retn 0xFF85 ; 
0x0007e54a: retn 0xFF8A ; 
0x0007e20a: retn 0xFF8E ; 
0x000dab1a: retn 0xFFAB ; 
0x00044706: retn 0xFFB8 ; 
0x0001b998: retn 0xFFBA ; 
0x000378f5: retn 0xFFBF ; 
0x000a0e3b: retn 0xFFC1 ; 
0x00052cca: retn 0xFFC6 ; 
0x000d348a: retn 0xFFCB ; 
0x00059225: retn 0xFFD6 ; 
0x00046f6a: retn 0xFFD9 ; 
0x00111a9a: retn 0xFFDE ; 
0x00044437: retn 0xFFE6 ; 
0x00058469: retn 0xFFE7 ; 
0x000577ff: retn 0xFFE9 ; 
0x0016b475: retn 0xFFEA ; 
0x001652b1: retn 0xFFEB ; 
0x000a5f6c: retn 0xFFEF ; 
0x00166a31: retn 0xFFF0 ; 
0x00109652: retn 0xFFF1 ; 
0x00100fbc: retn 0xFFF2 ; 
0x001679f9: retn 0xFFF4 ; 
0x000c9636: retn 0xFFF5 ; 
0x000ab3ff: retn 0xFFF6 ; 
0x00047d3c: retn 0xFFF7 ; 
0x000402aa: retn 0xFFF8 ; 
0x000e22ee: retn 0xFFF9 ; 
0x0003b81a: retn 0xFFFA ; 
0x0006485a: retn 0xFFFB ; 
0x0001ffc8: retn 0xFFFC ; 
0x00029fea: retn 0xFFFD ; 
0x00038ae6: retn 0xFFFE ; 
0x0002b661: retn 0xFFFF ; 
0x0016f050: rol ah, 0xFFFFFFEB ; call dword [eax] ; 
0x001a7350: rol ah, 0xFFFFFFF6 ; jmp dword [edx+0x00] ; 
0x0007dca1: rol byte [0x5BFB7089], 0x0000005E ; ret  ; 
0x000911c4: rol byte [0x751089D2+eax*4], 0xFFFFFFF4 ; rep ret  ; 
0x0001e298: rol byte [eax+0x0A7580FA], 0xFFFFFF89 ; ret  ; 
0x0014fcc0: rol byte [eax+eax], 0x00000000 ; retn 0x0004 ; 
0x000ee9f4: rol byte [eax-0x6AF0D207], cl ; retn 0xC984 ; 
0x000a1f97: rol byte [eax-0x6AF0D305], 1  ; retn 0xD020 ; 
0x000751f4: rol byte [eax-0x6BF0CF07], cl ; retn 0xF201 ; 
0x00125547: rol byte [eax], 0xFFFFFFF7 ; retn 0x000F ; 
0x00056288: rol byte [ebp-0x3F60F025], 0x00000029 ; ret  ; 
0x00142fa3: rol byte [ebx+0x5E5B02C0], 1  ; ret  ; 
0x0003cfbc: rol byte [ebx+0x5E5B04C4], 1  ; ret  ; 
0x0002fbdd: rol byte [ebx+0x5E5B10C4], 0x0000005F ; ret  ; 
0x00111f13: rol byte [ebx+0x5E5B20C4], 0x0000005F ; ret  ; 
0x000d5468: rol byte [ebx+0x5E5B40C4], 0x0000005F ; ret  ; 
0x000e867c: rol byte [ebx+0x5E5B60C4], 0x0000005F ; ret  ; 
0x0007e4e7: rol byte [ebx+0x5E5F10C0], 1  ; ret  ; 
0x0007e4f4: rol byte [ebx+0x5E5F20C0], 1  ; ret  ; 
0x0007e501: rol byte [ebx+0x5E5F30C0], 1  ; ret  ; 
0x0010e823: rol byte [ebx-0x3B7CFD40], 0x0000000C ; ret  ; 
0x0005b967: rol byte [ebx-0x49F0933C], 0xFFFFFFC0 ; ret  ; 
0x00115d79: rol byte [ebx-0x49F0D33C], 0xFFFFFFC0 ; ret  ; 
0x0010c124: rol byte [ebx-0x49F0E33C], 0xFFFFFFC0 ; ret  ; 
0x0003adcf: rol byte [ebx-0x49F0F33C], 0xFFFFFFC0 ; ret  ; 
0x000751e7: rol byte [ebx-0x69F0F606], 1  ; retn 0xB60F ; 
0x0006599f: rol byte [ebx-0x6BF00008], cl ; retn 0xDAF7 ; 
0x00141a66: rol byte [ebx], 0x0000005F ; ret  ; 
0x0010a061: rol byte [ebx], 0xFFFFFF83 ; retn 0x8303 ; 
0x0019b531: rol byte [ecx], 0x0000000A ; ret  ; 
0x0003f50a: rol byte [ecx], 0x00000029 ; retn 0xD601 ; 
0x00032cb3: rol byte [ecx], 0x00000039 ; ret  ; 
0x0003afdd: rol byte [ecx], 0x00000039 ; retn 0x0B76 ; 
0x00077e00: rol byte [ecx], 0x00000039 ; retn 0x0C72 ; 
0x0003b176: rol byte [ecx], 0x00000039 ; retn 0x1477 ; 
0x0003ed29: rol byte [ecx], 0x00000039 ; retn 0x3F74 ; 
0x0003b1b5: rol byte [ecx], 0x00000039 ; retn 0x860F ; 
0x000bd471: rol byte [ecx], 0x00000039 ; retn 0xE075 ; 
0x0007c97b: rol byte [ecx], 0x00000039 ; retn 0xE575 ; 
0x0007c92e: rol byte [ecx], 0x00000039 ; retn 0xEC77 ; 
0x0007c8cb: rol byte [ecx], 0x00000039 ; retn 0xEF77 ; 
0x000c267b: rol byte [ecx], 0x00000039 ; retn 0xEF7F ; 
0x0001d13a: rol byte [ecx], 0x00000039 ; retn 0xF175 ; 
0x0007728c: rol byte [ecx], 0x0000005B ; ret  ; 
0x00141e21: rol byte [ecx], 0x0000005F ; ret  ; 
0x00045cfb: rol byte [ecx], 0xFFFFFF83 ; ret  ; 
0x0002d6c7: rol byte [ecx], 0xFFFFFF83 ; retn 0x3901 ; 
0x000c0d71: rol byte [ecx], 0xFFFFFF83 ; retn 0x3B20 ; 
0x0002921a: rol byte [ecx], 0xFFFFFF83 ; retn 0x5201 ; 
0x000c3ce4: rol byte [ecx], 0xFFFFFF83 ; retn 0x8301 ; 
0x000b9f5a: rol byte [ecx], 0xFFFFFF83 ; retn 0x8D01 ; 
0x0010402c: rol byte [ecx], 0xFFFFFF89 ; retn 0x4489 ; 
0x0005320a: rol byte [ecx], 0xFFFFFF89 ; retn 0x952B ; 
0x0003c180: rol byte [ecx], 0xFFFFFF89 ; retn 0xEA29 ; 
0x0008fc06: rol byte [ecx], 0xFFFFFFC8 ; ret  ; 
0x000900c2: rol byte [ecx], 0xFFFFFFD0 ; ret  ; 
0x0007cdbc: rol byte [ecx], 1  ; ret  ; 
0x00174c89: rol byte [edi], 0x0000000A ; ret  ; 
0x00141a8c: rol byte [edi], 0x0000005F ; ret  ; 
0x00141e26: rol byte [edx], 0x0000005F ; ret  ; 
0x00141e3a: rol byte [esi], 0x0000005F ; ret  ; 
0x001151cc: rol byte [esi], 0xFFFFFFF1 ; call dword [eax-0x73] ; 
0x00150e00: rol cl, 0xFFFFFFC2 ; ret  ; 
0x000a054a: rol dword [eax+0x20740FE1], 1  ; ret  ; 
0x00041807: rol dword [eax-0x00043F43], cl ; call dword [ebx-0x73] ; 
0x0008fc96: rol dword [ebp+0x316575C0], 0xFFFFFFC0 ; ret  ; 
0x0008fc67: rol dword [ebp+0x317475C0], 0xFFFFFFC0 ; ret  ; 
0x000a67ea: rol dword [ebx+0x148D01E8], cl ; ret  ; 
0x00112276: rol dword [ebx-0x05D6FC26], 0xFFFFFF83 ; retn 0x8112 ; 
0x0006858f: rol dword [ebx-0x7BF00007], 1  ; ret  ; 
0x0019bac3: rol dword [ecx+0x0E], 0x04 ; ret  ; 
0x0001ae0f: rol dword [ecx], 0xFFFFFF83 ; ret  ; 
0x000ab5ee: rol dword [ecx], 0xFFFFFF83 ; retn 0x3934 ; 
0x00079051: rol dword [ecx], 0xFFFFFF83 ; retn 0x8B01 ; 
0x000f462d: rol dword [ecx], 0xFFFFFFF6 ; retn 0x7503 ; 
0x00118b70: rol dword [ecx], cl ; ret  ; 
0x0015232a: rol dword [edi+0x42923BBD], 1  ; jmp dword [edx-0x71] ; 
0x0003b421: rol dword [esi], 0xFFFFFF83 ; ret  ; 
0x000f7909: ror ax, 0x0008 ; ret  ; 
0x0014c0c8: ror byte [eax+eax], 0x00000000 ; ret  ; 
0x0010e51f: ror byte [eax], 0x00000050 ; call dword [esp+0x24] ; 
0x00141e44: ror byte [eax], 0x0000005F ; ret  ; 
0x0013d391: ror byte [eax], 0xFFFFFF83 ; retn 0x5608 ; 
0x0013c0f2: ror byte [eax], 0xFFFFFF83 ; retn 0x5708 ; 
0x00072515: ror byte [eax], 0xFFFFFF83 ; retn 0x8108 ; 
0x00136d31: ror byte [eax], 0xFFFFFF83 ; retn 0x8308 ; 
0x00116063: ror byte [eax], 0xFFFFFF83 ; retn 0x8908 ; 
0x00135511: ror byte [eax], 0xFFFFFF83 ; retn 0xF608 ; 
0x00091299: ror byte [eax], 0xFFFFFF89 ; retn 0xF229 ; 
0x00158588: ror byte [eax], 1  ; jmp eax ; 
0x000ccd33: ror byte [ebp+0x5B05C044], 0x0000005E ; ret  ; 
0x000a06f3: ror byte [ebp+0x5BFF0044], 0x0000005E ; ret  ; 
0x000ba8f4: ror byte [ebp-0x050F6F7F], 1  ; call dword [eax-0x73] ; 
0x0009d36e: ror byte [ebp-0x0512077A], 1  ; call dword [eax-0x73] ; 
0x00089cb7: ror byte [ebp-0x7AF0EFC0], cl ; ret  ; 
0x000ba5b3: ror byte [ebp-0x7CFFD98C], cl ; ret  ; 
0x000f3c13: ror byte [ebp-0x7EFFD98C], 1  ; ret  ; 
0x00036795: ror byte [ebx+0x0F082444], 0xFFFFFF95 ; ret  ; 
0x0003980d: ror byte [ebx+0x0F102444], 0xFFFFFF95 ; ret  ; 
0x000ee93b: ror byte [ebx+0x0F1C244C], 0xFFFFFF94 ; retn 0xC1EB ; 
0x000e1cc9: ror byte [ebx+0x29182454], 1  ; retn 0x5652 ; 
0x000528e5: ror byte [ebx-0x00056B6B], 1  ; jmp dword [0x00002100] ; 
0x000b9f33: ror byte [ebx-0x00285B63], 1  ; jmp dword [0x00FFFFFF] ; 
0x00141ab3: ror byte [ebx], 0x0000005F ; ret  ; 
0x0006f098: ror byte [ebx], 0xFFFFFF89 ; retn 0xE283 ; 
0x000c480f: ror byte [ecx+0x07740845], 0xFFFFFF89 ; retn 0x0EE9 ; 
0x00038c64: ror byte [ecx+0x0F082444], 0xFFFFFF84 ; ret  ; 
0x000911c7: ror byte [ecx-0x0C0B8AF0], cl ; ret  ; 
0x000cbf30: ror byte [ecx-0x7A072C08], 1  ; retn 0x1274 ; 
0x00141e49: ror byte [ecx], 0x0000005F ; ret  ; 
0x00023344: ror byte [ecx], 0xFFFFFF83 ; retn 0x0101 ; 
0x000e7204: ror byte [ecx], 0xFFFFFFC8 ; ret  ; 
0x0018d020: ror byte [ecx], 0xFFFFFFF3 ; call dword [0x00000000] ; 
0x0001deb3: ror byte [ecx], 0xFFFFFFFB ; call dword [eax+0x68] ; 
0x0001d97e: ror byte [ecx], 0xFFFFFFFB ; call dword [eax-0x73] ; 
0x0003c578: ror byte [edi], 0x00000044 ; ret  ; 
0x00091a67: ror byte [edi], 0x00000044 ; retn 0x4489 ; 
0x000e5999: ror byte [edi], 0x00000044 ; retn 0x66C3 ; 
0x00105e63: ror byte [edi], 0x00000044 ; retn 0x788B ; 
0x000ee1d4: ror byte [edi], 0x00000044 ; retn 0x7D89 ; 
0x000919ef: ror byte [edi], 0x00000044 ; retn 0x8B65 ; 
0x000ebba9: ror byte [edi], 0x00000044 ; retn 0x8D50 ; 
0x000a156b: ror byte [edi], 0x00000044 ; retn 0xC483 ; 
0x00073b51: ror byte [edi], 0x00000044 ; retn 0xC985 ; 
0x000184a3: ror byte [edi], 0x00000044 ; retn 0xEC83 ; 
0x000915d9: ror byte [edi], 0x00000044 ; retn 0xFF50 ; 
0x00091829: ror byte [edi], 0x00000044 ; retn 0xFF85 ; 
0x000e3280: ror byte [edi], 0x00000045 ; retn 0xC084 ; 
0x000cbe48: ror byte [edi], 0x00000047 ; retn 0x8DC3 ; 
0x0002f08f: ror byte [edi], 0x00000048 ; retn 0xC483 ; 
0x0006c82d: ror byte [edi], 0x00000048 ; retn 0xFF50 ; 
0x00141adc: ror byte [edi], 0x0000005F ; ret  ; 
0x000b8252: ror byte [edi], 0xFFFFFF84 ; ret  ; 
0x0001f939: ror byte [edi], 0xFFFFFF84 ; retn 0x0000 ; 
0x00058bb5: ror byte [edi], 0xFFFFFF84 ; retn 0x0002 ; 
0x0002a837: ror byte [edi], 0xFFFFFF84 ; retn 0x0006 ; 
0x0004559f: ror byte [edi], 0xFFFFFF84 ; retn 0xFFFC ; 
0x00058768: ror byte [edi], 0xFFFFFF85 ; jmp dword [ebx] ; 
0x000c01b8: ror byte [edi], 0xFFFFFF85 ; ret  ; 
0x000f2a57: ror byte [edi], 0xFFFFFF85 ; retn 0x0005 ; 
0x00052cc7: ror byte [edi], 0xFFFFFF85 ; retn 0xFFC6 ; 
0x00045d5a: ror byte [edi], 0xFFFFFF85 ; retn 0xFFFA ; 
0x000d6ec7: ror byte [edi], 0xFFFFFF88 ; retn 0x0001 ; 
0x0007b7b0: ror byte [edi], 0xFFFFFF88 ; retn 0x0002 ; 
0x000bfdec: ror byte [edi], 0xFFFFFF8E ; retn 0x0000 ; 
0x000b1912: ror byte [edi], 0xFFFFFF92 ; retn 0xD029 ; 
0x000ed9fe: ror byte [edi], 0xFFFFFF94 ; retn 0x3A3C ; 
0x000a13f0: ror byte [edi], 0xFFFFFF94 ; retn 0x5438 ; 
0x0004ed34: ror byte [edi], 0xFFFFFF94 ; retn 0x7F3C ; 
0x00111ca1: ror byte [edi], 0xFFFFFF94 ; retn 0x8365 ; 
0x000cc5d4: ror byte [edi], 0xFFFFFF94 ; retn 0x9389 ; 
0x000a135a: ror byte [edi], 0xFFFFFF94 ; retn 0xCA38 ; 
0x000548d7: ror byte [edi], 0xFFFFFF94 ; retn 0xD089 ; 
0x000c8bd1: ror byte [edi], 0xFFFFFF94 ; retn 0xD108 ; 
0x000fb97a: ror byte [edi], 0xFFFFFF94 ; retn 0xD285 ; 
0x00060484: ror byte [edi], 0xFFFFFF94 ; retn 0xDAF7 ; 
0x0002abb8: ror byte [edi], 0xFFFFFF95 ; ret  ; 
0x0009edb6: ror byte [edi], 0xFFFFFF95 ; retn 0xD121 ; 
0x0005ded5: ror byte [edi], 0xFFFFFF95 ; retn 0xDAF7 ; 
0x00091b20: ror byte [edi], 0xFFFFFF95 ; retn 0xE883 ; 
0x0009eec2: ror byte [edi], 0xFFFFFF95 ; retn 0xF1E9 ; 
0x00121d9b: ror byte [edi], 0xFFFFFF95 ; retn 0xF685 ; 
0x00091e44: ror byte [edi], 0xFFFFFF95 ; retn 0xF983 ; 
0x00156f30: ror byte [edi], 0xFFFFFFF3 ; jmp eax ; 
0x00183c88: ror byte [edx-0x475BFFFF], 0xFFFFFFF0 ; jmp esi ; 
0x00141e4e: ror byte [edx], 0x0000005F ; ret  ; 
0x00101325: ror byte [esi], 0x00000039 ; retn 0x2D72 ; 
0x00141e62: ror byte [esi], 0x0000005F ; ret  ; 
0x0001dc7a: ror dword [ebx+0x008B2404], 0xFFFFFF89 ; retn 0xE283 ; 
0x0006fd00: ror dword [ebx], 0xFFFFFF89 ; ret  ; 
0x000f28f4: ror dword [ecx+0x5F5E5BC8], 0x5D ; ret  ; 
0x0007e07a: ror dword [ecx-0x3E6BF032], 0x38 ; retn 0x940F ; 
0x00040e12: ror dword [ecx], cl ; ret  ; 
0x000a9d40: ror dword [edi], 0xFFFFFF94 ; ret  ; 
0x00099f18: ror dword [edi], 0xFFFFFF95 ; retn 0x08EB ; 
0x00097340: ror dword [edi], 0xFFFFFF95 ; retn 0x10EB ; 
0x00178258: ror dword [edx], 1  ; ret  ; 
0x000f790a: ror eax, 0x08 ; ret  ; 
0x001a08ea: sahf  ; ret  ; 
0x00152585: sahf  ; retn 0x38AE ; 
0x000a44a7: sahf  ; retn 0xD329 ; 
0x000a1266: sahf  ; retn 0xE8C1 ; 
0x00196861: sal ah, 1  ; call ebp ; 
0x001968ed: sal ah, cl ; jmp dword [ecx] ; 
0x00029df5: sal al, 0xFFFFFFF9 ; jmp dword [esi+0x39] ; 
0x00166a79: sal al, cl ; call dword [eax-0x3BFFFE87] ; 
0x000cbe2a: sal bh, 0xFFFFFFD8 ; rep ret  ; 
0x0005bf0f: sal bh, 0xFFFFFFD8 ; ret  ; 
0x0006da0c: sal bl, 0xFFFFFFFF ; call dword [ebp+0x57] ; 
0x00108f03: sal byte [eax-0x0B], 1  ; call dword [ecx-0x73] ; 
0x0002bd61: sal byte [ebp+0x04], cl ; ret  ; 
0x000d3c62: sal byte [ebp+0x1F], 0xFFFFFF83 ; ret  ; 
0x00081f41: sal byte [ebp+0x38], 0xFFFFFF83 ; ret  ; 
0x0001ab7f: sal byte [ebp+ebx+0x6B], cl ; retn 0x8B3C ; 
0x001640c8: sal byte [ebp-0x04], 1  ; jmp dword [eax+0x00FFFC76] ; 
0x000f0266: sal byte [ebp-0x09], 0xFFFFFF83 ; retn 0x8B18 ; 
0x0001a281: sal byte [ebp-0x0C], 0x0000006B ; retn 0x833C ; 
0x0006bf91: sal byte [ebp-0x0C], 0xFFFFFFF3 ; ret  ; 
0x0007487a: sal byte [ebp-0x0D], cl ; rep ret  ; 
0x0006201b: sal byte [ebp-0x0E], cl ; rep ret  ; 
0x000747dc: sal byte [ebp-0x0F], 0xFFFFFFF3 ; ret  ; 
0x0002a4a4: sal byte [ebp-0x20], cl ; rep ret  ; 
0x00156ba8: sal byte [ebp-0x49EF0016], 0xFFFFFFEA ; call dword [eax] ; 
0x00045481: sal byte [ebp-0x5E], 0xFFFFFF83 ; ret  ; 
0x000f25f4: sal byte [ebx+ecx+0x39], cl ; retn 0x0F7E ; 
0x000a4e83: sal byte [ebx+edx-0x7D], 1  ; ret  ; 
0x000f4610: sal byte [edi+0x3D], 0xFFFFFFF6 ; retn 0x8D03 ; 
0x000747cc: sal byte [edi+ebx-0x70], 0x00000039 ; retn 0x0476 ; 
0x000f9623: sal byte [edi-0x0C], 1  ; call dword [eax-0x18] ; 
0x001648c4: sal byte [edi-0x47AF0004], 0xFFFFFFFC ; jmp eax ; 
0x000e15f1: sal byte [edx+eax-0x77], 0x00000010 ; rep ret  ; 
0x00163f90: sal byte [edx-0x04], cl ; jmp dword [eax] ; 
0x001569c4: sal byte [edx-0x4D1F0016], 0xFFFFFFEA ; jmp eax ; 
0x00165904: sal byte [edx-0x663C0000], 0xFFFFFFEC ; jmp eax ; 
0x001640f0: sal byte [esi-0x04], 1  ; call dword [eax+0x40FFFC74] ; 
0x0017d860: sal byte [esi-0x11], 1  ; jmp dword [0x00000000] ; 
0x00167d69: sal ch, 1  ; call eax ; 
0x00164df8: sal cl, 0xFFFFFFFC ; call dword [eax] ; 
0x0008656c: sal dh, 0xFFFFFFFF ; jmp dword [esi+0x0F] ; 
0x0015b18d: sal dh, 1  ; jmp dword [eax-0x30] ; 
0x0015b1fd: sal dh, 1  ; jmp dword [eax] ; 
0x0015b165: sal dh, cl ; call dword [eax] ; 
0x001a8045: sal dh, cl ; jmp dword [0x00000001] ; 
0x0015b159: sal dh, cl ; jmp dword [eax-0x2E] ; 
0x0015b169: sal dh, cl ; jmp eax ; 
0x001672f1: sal dl, cl ; call eax ; 
0x000f3e5d: sal dword [ebp-0x20], 0x5B ; ret  ; 
0x001049ef: sal dword [edx+ecx-0x7D], 1  ; ret  ; 
0x000d525b: sal dword [esp+esi*8], 1  ; call dword [eax+0x7C835356] ; 
0x00166a91: sal eax, cl ; call dword [edx+edi*2] ; 
0x001688c9: sal edi, cl ; call dword [ecx+edx] ; 
0x00167300: sal edx, cl ; call dword [esp+eax] ; 
0x000b7164: sal esi, 0xFFFFFFFF ; call dword [eax+0x0026B48D] ; 
0x000bb68b: sal esi, 0xFFFFFFFF ; call dword [ebx+0x57] ; 
0x0015b175: sal esi, 1  ; call dword [eax-0x2F] ; 
0x0015b181: sal esi, 1  ; jmp eax ; 
0x00196971: sal esp, cl ; call dword [edx+0x00] ; 
0x001969b1: sal esp, cl ; jmp dword [ecx] ; 
0x0005f78e: salc  ; call dword [0x00000010] ; 
0x0018fe39: salc  ; call dword [ebx+0x0000001D] ; 
0x00002280: salc  ; ret  ; 
0x000025be: salc  ; retn 0x23CB ; 
0x0009e866: salc  ; retn 0xFFF7 ; 
0x000f8a8b: salc  ; retn 0xFFFA ; 
0x0010653a: sar ah, 0xFFFFFFFF ; jmp dword [esi-0x70] ; 
0x00068c45: sar bh, 0xFFFFFF89 ; retn 0x468B ; 
0x0013d05b: sar bh, 0xFFFFFFFF ; jmp dword [esi+0x0F] ; 
0x00058558: sar bh, cl ; call dword [eax+0x0026748D] ; 
0x00040832: sar bl, 0xFFFFFFFF ; call dword [ebx+0x0F] ; 
0x0004180a: sar bl, 0xFFFFFFFF ; call dword [ebx-0x73] ; 
0x0003fc57: sar bl, 0xFFFFFFFF ; call dword [ebx] ; 
0x000410f4: sar bl, 0xFFFFFFFF ; call dword [edi-0x01] ; 
0x0002bfbc: sar byte [eax+0x000000AE], 1  ; call dword [0x00000010] ; 
0x0006552b: sar byte [eax+0x02], 0xFFFFFFF3 ; ret  ; 
0x0005f2e3: sar byte [eax+0x0B], 0xFFFFFF83 ; retn 0x8301 ; 
0x00072281: sar byte [eax+0x0C], 0xFFFFFFF3 ; ret  ; 
0x000d5454: sar byte [eax+0x19], 0x0000006A ; call dword [edi-0x01] ; 
0x0006b20f: sar byte [eax-0x00000001], cl ; ret  ; 
0x0011e17c: sar byte [eax-0x2F], 0xFFFFFF83 ; ret  ; 
0x000d481f: sar byte [eax-0x52], 0xFFFFFF89 ; ret  ; 
0x0007c455: sar byte [eax], cl ; ret  ; 
0x00164ee4: sar byte [ebp-0x03], 1  ; jmp dword [eax+0x7E] ; 
0x0015ac98: sar byte [ebx-0x454F000B], 0xFFFFFFF5 ; call dword [eax-0x1F] ; 
0x0001bf0f: sar byte [ecx], 1  ; ret  ; 
0x0003e153: sar byte [ecx], 1  ; retn 0x0189 ; 
0x00046468: sar byte [ecx], cl ; retn 0x8D0F ; 
0x00095d45: sar byte [edi-0x00000001], 0x00000029 ; retn 0x448B ; 
0x001a6c88: sar byte [edx-0x424BFFFD], 0xFFFFFFF6 ; call dword [edi+0x00] ; 
0x000b122b: sar byte [esi+0x02], 1  ; rep ret  ; 
0x001016c0: sar ch, 0xFFFFFFFA ; call dword [eax-0x73] ; 
0x0002e644: sar ch, 0xFFFFFFFF ; call dword [eax+0x0026B48D] ; 
0x000c3cfa: sar dh, 0xFFFFFFFF ; jmp dword [eax] ; 
0x000c3d2b: sar dh, 0xFFFFFFFF ; jmp dword [ebp-0x5F] ; 
0x000c3c7b: sar dh, 0xFFFFFFFF ; jmp dword [ebp-0x75] ; 
0x0002c6b0: sar dh, 0xFFFFFFFF ; ret  ; 
0x000244aa: sar dl, 1  ; call dword [eax+0x57] ; 
0x0001c9a0: sar dl, 1  ; call dword [eax-0x73] ; 
0x0016a271: sar dl, 1  ; jmp dword [eax+0x16] ; 
0x0016a291: sar dl, cl ; call dword [eax+0x44000417] ; 
0x00024d6b: sar dl, cl ; call dword [eax-0x18] ; 
0x000b0358: sar dword [eax+0x0000001D], 0x65 ; call dword [0x00000010] ; 
0x000cbd88: sar dword [eax+0x000000F2], 0x65 ; call dword [0x00000010] ; 
0x0002be9c: sar dword [eax+0x0000010E], 0x65 ; call dword [0x00000010] ; 
0x000d7c18: sar dword [eax+0x00000127], 0x65 ; call dword [0x00000010] ; 
0x00088ea5: sar dword [ecx+0x0C03000C], 0xFFFFFF99 ; jmp ecx ; 
0x00063134: sar eax, 0x02 ; ret  ; 
0x0002b837: sar eax, 0x10 ; ret  ; 
0x00119c61: sar eax, 0x1F ; ret  ; 
0x00169271: sar eax, cl ; call esp ; 
0x000dd020: sar ebp, 0x1F ; call dword [0x00000010] ; 
0x000b3e97: sar ebx, 0xFFFFFFFF ; call dword [eax+0x0026748D] ; 
0x000d3e68: sar edi, 0x1F ; call dword [0x00000010] ; 
0x0013cf9b: sar edi, 0xFFFFFFFF ; jmp dword [esi+0x0F] ; 
0x000dcf8a: sar edx, 0x1F ; call dword [0x00000010] ; 
0x00023d75: sar edx, 1  ; call dword [eax-0x73] ; 
0x00032fa8: sar edx, cl ; call dword [eax-0x18] ; 
0x0002eb66: sar edx, cl ; call dword [eax-0x73] ; 
0x000de20d: sar esi, 0x1F ; call dword [0x00000010] ; 
0x000d78d4: sar esi, 0xFFFFFFFF ; call dword [eax+0x0026B48D] ; 
0x0002e9eb: sar esi, 0xFFFFFFFF ; call dword [eax+0x110FE853] ; 
0x000447cd: sar esi, 0xFFFFFFFF ; jmp dword [esi-0x70] ; 
0x000ff92a: sar esp, 0xFFFFFFFF ; jmp dword [esi-0x70] ; 
0x00164885: sar esp, 0xFFFFFFFF ; retn 0xFCC1 ; 
0x00164829: sar esp, 0xFFFFFFFF ; retn 0xFFFC ; 
0x00164b65: sar esp, 1  ; call eax ; 
0x000f3cdf: sbb ah, byte [eax-0x7CFFFFC9] ; retn 0x8104 ; 
0x000f2225: sbb al, 0x01 ; retn 0x448B ; 
0x000f3d5f: sbb al, 0x01 ; retn 0xD689 ; 
0x000767c1: sbb al, 0x24 ; ret  ; 
0x0007e023: sbb al, 0x38 ; retn 0x1874 ; 
0x000bdf1f: sbb al, 0x38 ; retn 0x860F ; 
0x000bde40: sbb al, 0x38 ; retn 0x870F ; 
0x000beb00: sbb al, 0x39 ; ret  ; 
0x0010aa31: sbb al, 0x50 ; call dword [edx+0x04] ; 
0x0006b339: sbb al, 0x50 ; call dword [edx+0x20] ; 
0x001155d1: sbb al, 0x50 ; call dword [edx+0x24] ; 
0x0010aa19: sbb al, 0x50 ; call dword [edx] ; 
0x00114c29: sbb al, 0x51 ; call dword [eax+0x04] ; 
0x00114c41: sbb al, 0x51 ; call dword [eax] ; 
0x0011a8c5: sbb al, 0x52 ; call dword [eax+0x08] ; 
0x0005f817: sbb al, 0x52 ; call eax ; 
0x0010aaa2: sbb al, 0x53 ; call dword [eax+0x04] ; 
0x00069024: sbb al, 0x53 ; call dword [eax+0x20] ; 
0x0006819e: sbb al, 0x53 ; call dword [eax+0x40] ; 
0x0010aac1: sbb al, 0x53 ; call dword [eax] ; 
0x000f78bc: sbb al, 0x53 ; call dword [esi+0x00002930] ; 
0x000f42ae: sbb al, 0x53 ; call eax ; 
0x001201e7: sbb al, 0x55 ; call eax ; 
0x0006239a: sbb al, 0x56 ; call dword [eax+0x0C] ; 
0x0007383c: sbb al, 0x56 ; call eax ; 
0x000e5113: sbb al, 0x5B ; ret  ; 
0x000f4396: sbb al, 0x65 ; call dword [0x00000010] ; 
0x000f4508: sbb al, 0x82 ; call dword [edi+0x00002920] ; 
0x000c1f13: sbb al, 0x83 ; retn 0x3904 ; 
0x000cf3fa: sbb al, 0x83 ; retn 0x8501 ; 
0x000c2b29: sbb al, 0x83 ; retn 0x8904 ; 
0x000d7cc9: sbb al, 0x83 ; retn 0x8B01 ; 
0x00090f33: sbb al, 0x83 ; retn 0x8B04 ; 
0x0002a80e: sbb al, 0x89 ; ret  ; 
0x00024730: sbb al, 0x89 ; retn 0x4489 ; 
0x0001d2fe: sbb al, 0x89 ; retn 0x448D ; 
0x00048cab: sbb al, 0x89 ; retn 0x542B ; 
0x000f17a9: sbb al, 0x89 ; retn 0x572B ; 
0x0010ce69: sbb al, 0x89 ; retn 0x808B ; 
0x001442b0: sbb al, 0x8B ; jmp dword [esi-0x70] ; 
0x00127b36: sbb al, 0x8B ; jmp ebx ; 
0x00127b9b: sbb al, 0xBB ; jmp ebx ; 
0x000e8830: sbb al, 0xC5 ; jmp dword [esi-0x70] ; 
0x000925f8: sbb al, 0xE8 ; retn 0x001E ; 
0x000ccb80: sbb al, 0xE8 ; retn 0xF4AB ; 
0x00048287: sbb al, 0xE9 ; ret  ; 
0x00189aa9: sbb al, 0xF2 ; call dword [eax+eax+0x00] ; 
0x000f6c53: sbb al, 0xF2 ; jmp dword [esi-0x70] ; 
0x0011cef3: sbb al, 0xF3 ; ret  ; 
0x001a0311: sbb al, 0xF6 ; jmp dword [ebx] ; 
0x000ddfef: sbb al, 0xF6 ; retn 0x7420 ; 
0x001682e9: sbb al, 0xF7 ; call dword [eax-0x2C] ; 
0x00066c81: sbb al, 0xFB ; jmp dword [esi-0x70] ; 
0x0016337d: sbb al, 0xFC ; call ebx ; 
0x0016336d: sbb al, 0xFC ; jmp dword [eax-0x3F0003E5] ; 
0x0016335d: sbb al, 0xFC ; jmp dword [ebx-0x3C0003E5] ; 
0x0016334d: sbb al, 0xFC ; jmp dword [esi-0x390003E5] ; 
0x0006306b: sbb al, 0xFC ; jmp dword [esi-0x70] ; 
0x000bfaa7: sbb al, ch ; ret  ; 
0x000d522d: sbb bh, byte [eax+0x0000000E] ; call dword [0x00000010] ; 
0x000ffdb8: sbb bh, byte [ecx] ; retn 0x1677 ; 
0x001695f1: sbb bh, cl ; call dword [ebx+edi*2+0x03] ; 
0x00184cf8: sbb bl, al ; jmp dword [esi+0x00000000] ; 
0x00151a0d: sbb bl, byte [esi] ; ret  ; 
0x0008fe8d: sbb bl, ch ; retn 0x583A ; 
0x001002e6: sbb byte [eax+0x00000006], bh ; call dword [0x00000010] ; 
0x000b0339: sbb byte [eax+0x0000001D], bh ; call dword [0x00000010] ; 
0x0003accc: sbb byte [eax+0x00000025], bh ; call dword [0x00000010] ; 
0x000e7b83: sbb byte [eax+0x00000139], bh ; call dword [0x00000010] ; 
0x000ee4c6: sbb byte [eax+0x29], dl ; retn 0x838D ; 
0x000218d7: sbb byte [eax-0x18], dl ; retn 0x0C29 ; 
0x00194a48: sbb byte [eax-0x60CBFFFE], 0xFFFFFFF4 ; call esp ; 
0x000f0135: sbb byte [eax-0x77], dh ; retn 0x08EB ; 
0x001135e7: sbb byte [eax], 0xFFFFFFF6 ; call dword [eax-0x73] ; 
0x00002410: sbb byte [eax], cl ; retn 0x5576 ; 
0x000adb66: sbb byte [ebp+0x52142454], cl ; call eax ; 
0x000d4f5c: sbb byte [ebp+0x650C245C], cl ; call dword [0x00000010] ; 
0x00035b7f: sbb byte [ebp-0x000BBF79], cl ; call dword [eax-0x73] ; 
0x000fddf7: sbb byte [ebp-0x05034B7E], cl ; call dword [eax-0x73] ; 
0x000ad904: sbb byte [ebp-0x0510AF80], cl ; call dword [eax-0x18] ; 
0x00091f9a: sbb byte [ebp-0x05136B79], cl ; call dword [eax-0x73] ; 
0x00091c70: sbb byte [ebp-0x05137779], cl ; call dword [eax-0x73] ; 
0x00090613: sbb byte [ebp-0x05146B7A], cl ; call dword [eax+0x68] ; 
0x00038aca: sbb byte [ebp-0x052AB37F], cl ; call dword [eax-0x73] ; 
0x00035a9a: sbb byte [ebp-0x052ACB7F], cl ; call dword [eax-0x73] ; 
0x000d2c5b: sbb byte [ebp-0x054D2580], cl ; call dword [eax-0x18] ; 
0x000d3342: sbb byte [ebp-0x054D3D80], cl ; call dword [eax-0x18] ; 
0x000bb186: sbb byte [ebp-0x054F9D79], cl ; call dword [eax-0x18] ; 
0x00158950: sbb byte [ebp-0x0F], al ; call dword [eax-0x5F000EBB] ; 
0x000f0264: sbb byte [ebp-0x7C088A40], al ; retn 0x8B18 ; 
0x000cac62: sbb byte [ebp-0x7C168B37], al ; retn 0x8901 ; 
0x000b061a: sbb byte [ebp-0x7CCE8B40], al ; ret  ; 
0x00078274: sbb byte [ebx+0x0108245C], cl ; ret  ; 
0x001845c8: sbb byte [ebx+0x140E5206], al ; ret  ; 
0x00197f4d: sbb byte [ebx+0x140E6506], al ; ret  ; 
0x000f4aa2: sbb byte [ebx+0x293C244C], cl ; retn 0x4489 ; 
0x00112f4a: sbb byte [ebx+0x50510850], cl ; call dword [edx+0x0C] ; 
0x0008bd34: sbb byte [ebx+0x5E082444], cl ; ret  ; 
0x0007d4f8: sbb byte [ebx+0x5E5B02C0], al ; ret  ; 
0x0002c107: sbb byte [ebx+0x5E], 0x0000005F ; ret  ; 
0x000253d5: sbb byte [ebx+0x5E], bl ; ret  ; 
0x000e2a9b: sbb byte [ebx+0x65142444], cl ; call dword [0x00000010] ; 
0x000f4392: sbb byte [ebx+0x651C2474], cl ; call dword [0x00000010] ; 
0x0007896d: sbb byte [ebx+edx-0x77], dh ; retn 0xB68D ; 
0x000e0348: sbb byte [ebx-0x0000D77B], cl ; jmp dword [ebp-0x75] ; 
0x001248bc: sbb byte [ebx-0x0000DF80], cl ; jmp dword [ebp+0x03] ; 
0x000ee975: sbb byte [ebx-0x00010B77], cl ; jmp dword [ebp-0x75] ; 
0x0002503c: sbb byte [ebx-0x00012F7F], cl ; jmp dword [ebp-0x75] ; 
0x0018b4c8: sbb byte [ebx-0x0E], cl ; jmp dword [eax] ; 
0x0018ad28: sbb byte [ebx], bh ; call ebx ; 
0x0007db89: sbb byte [ecx+0x5E5B0450], cl ; ret  ; 
0x0005d1e1: sbb byte [ecx+0x5F5E5BC8], cl ; ret  ; 
0x00017870: sbb byte [ecx+0x5F5E5BD0], cl ; ret  ; 
0x00166b34: sbb byte [ecx-0x133BFFFF], al ; call dword [eax-0x7F] ; 
0x00106dfa: sbb byte [ecx-0x76EFDBAC], cl ; retn 0x4C89 ; 
0x000c1ef3: sbb byte [ecx-0x7CE7DBA4], cl ; retn 0x3904 ; 
0x0003fc9c: sbb byte [ecx], al ; ret  ; 
0x00063dbe: sbb byte [ecx], al ; retn 0x468B ; 
0x000ce539: sbb byte [ecx], bh ; retn 0x3574 ; 
0x000ab4d5: sbb byte [ecx], bh ; retn 0x4B89 ; 
0x000e1ccd: sbb byte [ecx], ch ; retn 0x5652 ; 
0x000c44a6: sbb byte [ecx], ch ; retn 0xE889 ; 
0x00031066: sbb byte [ecx], cl ; retn 0x5489 ; 
0x0017ae98: sbb byte [edi+ebp*8], dl ; call dword [eax+0x00] ; 
0x0017ae48: sbb byte [edi+ebp*8], dl ; call dword [ecx] ; 
0x0018d890: sbb byte [edi], 0xFFFFFFF3 ; jmp dword [ecx+eax+0x41000000] ; 
0x00163598: sbb byte [edi], 0xFFFFFFFC ; jmp dword [edx+0x3FFFFC1F] ; 
0x001581b4: sbb byte [edi], al ; jmp dword [edx] ; 
0x000ab2bf: sbb byte [edx+0x00], ch ; call eax ; 
0x00156dd8: sbb byte [edx-0x14], bl ; call dword [eax+0x5A] ; 
0x00001fcb: sbb byte [edx-0x1A], dl ; ret  ; 
0x000f7a05: sbb byte [edx-0x77], dl ; retn 0xEAC1 ; 
0x0018bdc8: sbb byte [esi-0x0E], bl ; jmp dword [ebx+0x00000000] ; 
0x0016d198: sbb byte [esi-0x15], al ; jmp dword [0x00000000] ; 
0x00127b0a: sbb ch, 0xFFFFFFFC ; jmp dword [esi-0x70] ; 
0x0011e594: sbb ch, ch ; call dword [eax+0x0026B48D] ; 
0x001991e5: sbb ch, dh ; jmp dword [edi+0x00] ; 
0x000c3b19: sbb cl, byte [ebx-0x00015B43] ; jmp dword [ebp-0x75] ; 
0x00166ce1: sbb cl, dh ; jmp dword [ecx+edx*4+0x01] ; 
0x000f0141: sbb dh, byte [esp+edx-0x7D] ; retn 0x3901 ; 
0x001135e8: sbb dh, dh ; call dword [eax-0x73] ; 
0x001a01a5: sbb dh, dh ; jmp dword [eax+0x00000000] ; 
0x001a00f9: sbb dh, dh ; jmp dword [edi+0x00000000] ; 
0x001425a7: sbb dh, dh ; retn 0x0F0F ; 
0x00178490: sbb dl, 0xFFFFFFEE ; jmp eax ; 
0x000c8f18: sbb dword [eax-0x0F], 0xFFFFFFFA ; call dword [eax-0x73] ; 
0x000513bb: sbb dword [eax-0x66], 0xFFFFFFFA ; call dword [eax-0x18] ; 
0x00048b99: sbb dword [ebp+0x391774DB], eax ; ret  ; 
0x000df1cf: sbb dword [ebp+edx*4-0x0D], 0xFFFFFFFF ; ret  ; 
0x000b35d7: sbb dword [ebx-0x50], 0xFFFFFFFA ; call dword [eax-0x73] ; 
0x001582d8: sbb dword [ebx], eax ; jmp dword [ebx] ; 
0x000ae189: sbb dword [ecx-0x52], 0xFFFFFFFA ; call dword [eax-0x18] ; 
0x000ae2ea: sbb dword [ecx-0x52], 0xFFFFFFFA ; call dword [eax-0x73] ; 
0x00064fd0: sbb dword [ecx-0x59], 0xFFFFFFFA ; call dword [eax-0x18] ; 
0x0005c955: sbb dword [ecx-0x65], 0xFFFFFFFA ; call dword [eax+0x6A] ; 
0x0006725c: sbb dword [ecx], eax ; retn 0xE983 ; 
0x00040eee: sbb dword [ecx], ebp ; retn 0x858B ; 
0x00041485: sbb dword [ecx], ebp ; retn 0x9589 ; 
0x0005138b: sbb dword [ecx], edi ; retn 0x850F ; 
0x000af631: sbb dword [edi+ebp*4], 0xFFFFFFFA ; call dword [eax-0x18] ; 
0x0001dd60: sbb dword [edi+ecx*8], 0xFFFFFFFA ; call dword [eax-0x18] ; 
0x000f9f90: sbb dword [edx-0x3D], 0xFFFFFFFA ; call dword [eax-0x18] ; 
0x000fa0ff: sbb dword [edx-0x3D], 0xFFFFFFFA ; call dword [eax-0x73] ; 
0x0017f2bb: sbb dword [edx], ecx ; ret  ; 
0x000ff824: sbb dword [esp+ebp*4], 0xFFFFFFFA ; call dword [eax-0x01] ; 
0x000fcd79: sbb dword [esp+ebp*4], 0xFFFFFFFA ; call dword [eax-0x73] ; 
0x000cd2f3: sbb dword [esp+esi*8], 0xFFFFFFFA ; call dword [eax-0x18] ; 
0x0018cf91: sbb eax, 0x098C0002 ; call dword [eax+eax+0x00] ; 
0x0001e8ae: sbb eax, 0x29000003 ; retn 0x5403 ; 
0x0006c3ba: sbb eax, 0x5B02B60F ; ret  ; 
0x000b033b: sbb eax, 0x65000000 ; call dword [0x00000010] ; 
0x001119e4: sbb eax, 0x810000E1 ; ret  ; 
0x000f1ce4: sbb eax, 0x810002DE ; ret  ; 
0x001322e4: sbb eax, 0x81FFFED8 ; ret  ; 
0x001317e4: sbb eax, 0x81FFFEE3 ; ret  ; 
0x0012a2e4: sbb eax, 0x81FFFF58 ; ret  ; 
0x001282e4: sbb eax, 0x81FFFF78 ; ret  ; 
0x000cfd77: sbb eax, 0xE9020000 ; ret  ; 
0x0000374e: sbb eax, dword [0x572808A8] ; call dword [esi+0x6F] ; 
0x0015833c: sbb eax, dword [eax+esi*8] ; jmp dword [0x2FFFF004] ; 
0x0013f714: sbb eax, dword [ebx-0x7BF0D207] ; retn 0x0000 ; 
0x0019929d: sbb ebp, esi ; call dword [ebp+0x00] ; 
0x00199209: sbb ebp, esi ; jmp dword [edx+0x00] ; 
0x000d5294: sbb ebx, dword [ebx+0x5E] ; ret  ; 
0x00066f60: sbb ebx, edi ; jmp dword [esi-0x70] ; 
0x000f3115: sbb ecx, dword [ebx-0x00010B7F] ; jmp dword [ebp-0x75] ; 
0x0005f35c: sbb ecx, dword [ebx-0x76FBDBBC] ; retn 0x708D ; 
0x001011bc: sbb ecx, dword [ecx+0x5BC03110] ; ret  ; 
0x000d54f9: sbb ecx, dword [ecx+0x6A0C2444] ; call dword [edi-0x01] ; 
0x001695e9: sbb ecx, edi ; call dword [eax] ; 
0x00166cf1: sbb ecx, esi ; jmp dword [ecx+edx*4+0x1A040001] ; 
0x0011b388: sbb edi, dword [eax+0x00000006] ; call dword [0x00000010] ; 
0x0017bb81: sbb edi, ebp ; jmp dword [edi+0x00000003] ; 
0x00066d93: sbb edi, ebx ; jmp dword [esi-0x70] ; 
0x00169c49: sbb edi, edx ; jmp dword [eax+ecx*8] ; 
0x00163309: sbb edi, esp ; call dword [0xB2FFFC1C] ; 
0x00163318: sbb edi, esp ; call dword [edx] ; 
0x00163301: sbb edi, esp ; call ebp ; 
0x00163311: sbb edi, esp ; call edx ; 
0x00163375: sbb edi, esp ; jmp eax ; 
0x00163365: sbb edi, esp ; jmp ebx ; 
0x00163355: sbb edi, esp ; jmp esi ; 
0x00169c39: sbb edx, edi ; call dword [eax-0x39] ; 
0x0000378c: sbb esi, ebp ; call dword [edx+esi*8+0x3F] ; 
0x0018d671: sbb esi, ebx ; call esi ; 
0x00166d01: sbb esi, ecx ; jmp eax ; 
0x001a028c: sbb esi, esi ; call dword [edi+0x00] ; 
0x001a02bd: sbb esi, esi ; jmp dword [ecx] ; 
0x001a023d: sbb esi, esi ; jmp dword [edx] ; 
0x00167199: scasb  ; call eax ; 
0x0018f459: scasb  ; jmp dword [esi+0x00000006] ; 
0x000dd7bb: scasd  ; jmp dword [esi-0x70] ; 
0x0002a6ca: scasd  ; ret  ; 
0x00063b68: scasd  ; retn 0x2999 ; 
0x000905f3: scasd  ; retn 0x4BE9 ; 
0x00072ff1: scasd  ; retn 0x5189 ; 
0x00045c90: scasd  ; retn 0xAF0F ; 
0x0002514a: sete al ; ret  ; 
0x000f31b2: setnb al ; ret  ; 
0x00066fbc: setne al ; ret  ; 
0x0015b088: shl ah, 0xFFFFFFF5 ; jmp eax ; 
0x00164b30: shl al, 0xFFFFFFFC ; call dword [eax+0x40FFFCDE] ; 
0x001570a4: shl byte [0x25F0FFF3], 1  ; call dword [eax] ; 
0x0016565c: shl byte [eax+0x66D40000], 0xFFFFFFEC ; call esp ; 
0x001a2600: shl byte [eax-0x0A], 1  ; call dword [ecx] ; 
0x000c78ea: shl byte [eax], 0xFFFFFF83 ; ret  ; 
0x00165704: shl byte [ebx+0x6E440000], 0xFFFFFFEC ; jmp esp ; 
0x00157080: shl byte [ebx+esi*8], 1  ; jmp eax ; 
0x00077274: shl byte [ecx], 0x0000005B ; ret  ; 
0x0002b5d7: shl byte [ecx], 1  ; retn 0x448B ; 
0x00164124: shl byte [edi-0x04], 1  ; jmp dword [eax] ; 
0x00157104: shl byte [edi], 0xFFFFFFF3 ; call eax ; 
0x001570e0: shl byte [edi], 0xFFFFFFF3 ; jmp eax ; 
0x00157108: shl byte [edi], 1  ; jmp eax ; 
0x00164700: shl byte [esi-0x567F0004], 0xFFFFFFFC ; call dword [eax] ; 
0x00164480: shl byte [esp+edi*8-0x035ABD01], cl ; call dword [edx-0x1D00035B] ; 
0x00152e08: shl dword [edi-0x05], 1  ; ret  ; 
0x00019508: shr al, 1  ; retn 0x05DB ; 
0x0004d0ea: shr bh, 0xFFFFFFFF ; call dword [eax] ; 
0x0004d760: shr bh, 0xFFFFFFFF ; call dword [esi-0x01] ; 
0x00166289: shr bh, 1  ; jmp dword [edi+ebx-0x2FABFFFF] ; 
0x0016f939: shr bl, 1  ; call dword [edx+0x00] ; 
0x0016f9ed: shr bl, 1  ; jmp dword [eax+0x00] ; 
0x0016f94d: shr bl, 1  ; jmp dword [eax+eax] ; 
0x001a2030: shr byte [eax+edi*8], 1  ; call dword [ecx] ; 
0x000640d5: shr byte [eax+edx*2], 0x00000053 ; call dword [ebx+0x18] ; 
0x0006495d: shr byte [eax+edx*2], 0x00000055 ; call dword [ebp+0x18] ; 
0x000c4f91: shr byte [eax-0x06], 0xFFFFFFFF ; jmp eax ; 
0x001569b4: shr byte [ebp-0x4D2F0016], 0xFFFFFFEA ; jmp eax ; 
0x00164714: shr byte [ebx-0x53AF0004], 0xFFFFFFFC ; jmp eax ; 
0x001577c8: shr byte [ebx], 0xFFFFFFEF ; call dword [edi+0x2B] ; 
0x0007c9e9: shr byte [ecx], 1  ; ret  ; 
0x00167a0c: shr byte [edx+0x02], 0x00000000 ; retn 0xFFF4 ; 
0x0005420f: shr cl, 0x0000002E ; retn 0xFFFF ; 
0x0007b1ab: shr cl, 0xFFFFFFFA ; call dword [eax-0x18] ; 
0x000c7ad8: shr cl, cl ; ret  ; 
0x00155ac8: shr dh, 0xFFFFFFE9 ; call dword [ebx-0x05] ; 
0x00178151: shr dh, cl ; jmp dword [ebx+0x00000000] ; 
0x0007b5f3: shr dl, 0xFFFFFFFA ; call dword [edx-0x73] ; 
0x0016b2c9: shr dl, cl ; jmp esi ; 
0x000eeb86: shr dword [ecx], 1  ; ret  ; 
0x00057957: shr dword [ecx], cl ; ret  ; 
0x000f79ba: shr eax, 0x18 ; ret  ; 
0x0002b220: shr eax, 0x1F ; ret  ; 
0x00101f8e: shr eax, 1  ; ret  ; 
0x0016fa61: shr ebx, 1  ; call dword [ecx] ; 
0x0016fa9d: shr ebx, 1  ; jmp dword [0x00000001] ; 
0x0016fb4d: shr ebx, cl ; call dword [eax+0x00000000] ; 
0x0016fba1: shr ebx, cl ; jmp dword [edi+0x00] ; 
0x00116128: shr edx, 0x03 ; jmp esi ; 
0x0016b20d: shr edx, 1  ; call dword [edi] ; 
0x0016b3b5: shr edx, cl ; call dword [ecx] ; 
0x0016b395: shr edx, cl ; jmp dword [eax+eax] ; 
0x0016b36d: shr edx, cl ; jmp dword [ebx] ; 
0x001780a5: shr esi, 1  ; call eax ; 
0x0017811d: shr esi, 1  ; jmp dword [eax+0x00000000] ; 
0x00178029: shr esi, 1  ; jmp dword [edi+0x00] ; 
0x0007c7fc: sidt  [eax-0x49F02FBB] ; ret  ; 
0x001a5795: sidt  [edx] ; ret  ; 
0x0002108d: sldt word [eax] ; ret  ; 
0x0001884e: stc  ; call dword [0x00000010] ; 
0x00093f49: stc  ; call dword [eax+0x0026748D] ; 
0x0016998a: stc  ; call dword [eax+ebp*4] ; 
0x0016957a: stc  ; call dword [eax+edi*2] ; 
0x00169a72: stc  ; call dword [eax+esi*4+0x03] ; 
0x00143463: stc  ; call dword [eax-0x01] ; 
0x00022639: stc  ; call dword [eax-0x18] ; 
0x00169b1a: stc  ; call dword [eax-0x4A] ; 
0x00169702: stc  ; call dword [eax-0x4BFFFC7D] ; 
0x001694f2: stc  ; call dword [eax] ; 
0x001696ea: stc  ; call dword [ebx+eax*4+0x03] ; 
0x001695f2: stc  ; call dword [ebx+edi*2+0x03] ; 
0x00169aea: stc  ; call dword [ebx+esi*4-0x23CBFFFD] ; 
0x0016993a: stc  ; call dword [ebx] ; 
0x0016969a: stc  ; call dword [ecx+eax*4] ; 
0x00169869: stc  ; call dword [ecx+ebx*4+0x66540003] ; 
0x0002278c: stc  ; call dword [ecx-0x01] ; 
0x00021e59: stc  ; call dword [edi+0x03] ; 
0x00169742: stc  ; call dword [edi+eax*4] ; 
0x001698ba: stc  ; call dword [esi+ebx*4+0x03] ; 
0x00022fdd: stc  ; call dword [esi-0x73] ; 
0x001698d2: stc  ; call eax ; 
0x00169652: stc  ; call esp ; 
0x00192e7e: stc  ; jmp dword [0x00000000] ; 
0x001694c2: stc  ; jmp dword [eax+0x64000372] ; 
0x0016953a: stc  ; jmp dword [eax+0x76] ; 
0x0016966a: stc  ; jmp dword [eax+0x7E] ; 
0x0016958a: stc  ; jmp dword [eax+edi*2+0x03] ; 
0x00169a6a: stc  ; jmp dword [eax+esi*4] ; 
0x001697ca: stc  ; jmp dword [eax-0x4BFFFC70] ; 
0x001698ca: stc  ; jmp dword [eax-0x5BFFFC62] ; 
0x0016964a: stc  ; jmp dword [eax-0x6BFFFC83] ; 
0x001694ba: stc  ; jmp dword [eax] ; 
0x00169512: stc  ; jmp dword [ebp+esi*2+0x03] ; 
0x0018c905: stc  ; jmp dword [ebx+0x00] ; 
0x0016970a: stc  ; jmp dword [ebx+eax*4+0x2A040003] ; 
0x001ab612: stc  ; jmp dword [edi+0x00] ; 
0x0016983a: stc  ; jmp dword [edi+edx*4+0x03] ; 
0x00169562: stc  ; jmp dword [edi+esi*2+0x03] ; 
0x001a57fe: stc  ; jmp dword [edi] ; 
0x0018a1be: stc  ; jmp dword [edx+0x00000001] ; 
0x00169871: stc  ; jmp dword [edx+ebx*4+0x6BA40003] ; 
0x0018c875: stc  ; jmp dword [esi+0x00] ; 
0x00029df6: stc  ; jmp dword [esi+0x39] ; 
0x00169a1a: stc  ; jmp dword [esi+ebp*4] ; 
0x000917e5: stc  ; jmp dword [esi-0x70] ; 
0x0018ab1e: stc  ; jmp dword [esi] ; 
0x0016971a: stc  ; jmp dword [esp+eax*4] ; 
0x00169502: stc  ; jmp eax ; 
0x000bab37: stc  ; jmp ecx ; 
0x0018a132: stc  ; jmp edx ; 
0x001694ca: stc  ; jmp esp ; 
0x0016b02a: std  ; call dword [0xD4440002+ebp] ; 
0x0016afb2: std  ; call dword [eax+0x140001F4] ; 
0x00164efa: std  ; call dword [eax+0x50FFFD81] ; 
0x0016afd2: std  ; call dword [eax+0x740001F7] ; 
0x00164ec2: std  ; call dword [eax+0x79] ; 
0x00164ede: std  ; call dword [eax+0x7D] ; 
0x0016affa: std  ; call dword [eax+ebp*8-0x4F0BFFFF] ; 
0x0016b172: std  ; call dword [eax-0x1BFFFBC5] ; 
0x0016b1b1: std  ; call dword [eax-0x53] ; 
0x00115aca: std  ; call dword [eax-0x73] ; 
0x00164efe: std  ; call dword [eax-0x7E] ; 
0x00164e3e: std  ; call dword [eax] ; 
0x0016bb26: std  ; call dword [edi+0x00] ; 
0x0016b1a9: std  ; call dword [edi+eax*4+0x01] ; 
0x00164e06: std  ; call dword [edx+edi*2-0x03] ; 
0x0016cf45: std  ; call dword [esi+0x00] ; 
0x0016afa2: std  ; call dword [esi+eax*8+0x01] ; 
0x00164ee2: std  ; call eax ; 
0x0016baae: std  ; call esi ; 
0x0016b10a: std  ; call esp ; 
0x00164ed2: std  ; jmp dword [eax+0x20FFFD7B] ; 
0x0016af92: std  ; jmp dword [eax+0x440001C2] ; 
0x00164ee6: std  ; jmp dword [eax+0x7E] ; 
0x0016b0ea: std  ; jmp dword [eax-0x3BFFFF0C] ; 
0x0016b18a: std  ; jmp dword [eax-0x5BFFFBC0] ; 
0x00164ed6: std  ; jmp dword [eax] ; 
0x000fd06a: std  ; jmp dword [ebp-0x75] ; 
0x00073eb4: std  ; jmp dword [ebp-0x7D] ; 
0x0016af9a: std  ; jmp dword [ebx+eax*8+0x75840001] ; 
0x0016bb5e: std  ; jmp dword [esi+0x00] ; 
0x0011a3b4: std  ; jmp dword [esi-0x70] ; 
0x0016b06a: std  ; jmp dword [esi] ; 
0x00164ec6: std  ; jmp eax ; 
0x0016e61a: std  ; jmp ebx ; 
0x00164e1a: std  ; jmp esi ; 
0x0016afba: std  ; jmp esp ; 
0x000178ca: sti  ; call dword [0x00000010] ; 
0x0006c709: sti  ; call dword [eax+0x0026748D] ; 
0x000666c6: sti  ; call dword [eax+0x0026B48D] ; 
0x0016a76a: sti  ; call dword [eax+0x04000443] ; 
0x0016a8c2: sti  ; call dword [eax+0x04000451] ; 
0x0016aa7a: sti  ; call dword [eax+0x04] ; 
0x0011d4b4: sti  ; call dword [eax+0x31] ; 
0x0016a6ba: sti  ; call dword [eax+0x3A] ; 
0x0016a762: sti  ; call dword [eax+0x43] ; 
0x0016a572: sti  ; call dword [eax+0x44000432] ; 
0x0016a82a: sti  ; call dword [eax+0x49] ; 
0x00046e58: sti  ; call dword [eax+0x56] ; 
0x000952f6: sti  ; call dword [eax+0x57] ; 
0x0016ac52: sti  ; call dword [eax+0x66] ; 
0x0001bd1b: sti  ; call dword [eax+0x68] ; 
0x0016a862: sti  ; call dword [eax+0x7400044A] ; 
0x000e4acf: sti  ; call dword [eax-0x01] ; 
0x000e492f: sti  ; call dword [eax-0x18] ; 
0x0016a88a: sti  ; call dword [eax-0x2BFFFBB4] ; 
0x0001bcf1: sti  ; call dword [eax-0x73] ; 
0x000f2aed: sti  ; call dword [eax-0x75] ; 
0x0016ab6a: sti  ; call dword [eax-0x7F] ; 
0x0016a522: sti  ; call dword [eax] ; 
0x0005fe6e: sti  ; call dword [ebp+0x57] ; 
0x00183ff2: sti  ; call dword [ebx] ; 
0x00187cea: sti  ; call dword [ecx+0x00000003] ; 
0x00166bd1: sti  ; call dword [edi+eax*4-0x034BFFFF] ; 
0x00183f22: sti  ; call dword [edi+eax+0x03000000] ; 
0x0016aa42: sti  ; call dword [edi+ebx*2+0x04] ; 
0x0016aa52: sti  ; call dword [edi+ebx*2-0x66ABFFFC] ; 
0x0016a8a9: sti  ; call dword [edi+ecx*2] ; 
0x0016ae3a: sti  ; call dword [edi+ecx*8] ; 
0x0016a97a: sti  ; call dword [edi+edx*2+0x04] ; 
0x000e4992: sti  ; call dword [edx+0x50] ; 
0x0016a9c2: sti  ; call dword [edx+ebx*2] ; 
0x0016a56a: sti  ; call dword [edx+esi+0x04] ; 
0x00095596: sti  ; call dword [esi+0x6A] ; 
0x0016a7c2: sti  ; call dword [esi+eax*2+0x04] ; 
0x0016a952: sti  ; call dword [esi+edx*2] ; 
0x0016ac5a: sti  ; call dword [esi-0x366BFFFF] ; 
0x0016a882: sti  ; call dword [esp+ecx*2+0x04] ; 
0x0016a902: sti  ; call dword [esp+edx*2+0x77A40004] ; 
0x0016a4fa: sti  ; call eax ; 
0x00187e72: sti  ; call ebx ; 
0x000c414f: sti  ; call ecx ; 
0x0018423e: sti  ; call edx ; 
0x0016a702: sti  ; call esp ; 
0x0016a6ea: sti  ; jmp dword [0x26540004+edi] ; 
0x0016aa22: sti  ; jmp dword [0x8EC40004+ebx*2] ; 
0x0016aa8a: sti  ; jmp dword [eax+0x04000460] ; 
0x0016a71a: sti  ; jmp dword [eax+0x40] ; 
0x0016a892: sti  ; jmp dword [eax+0x4D] ; 
0x0016aafa: sti  ; jmp dword [eax+0x54000463] ; 
0x0016aaea: sti  ; jmp dword [eax+0x63] ; 
0x0016acd2: sti  ; jmp dword [eax+ebp*4+0x02] ; 
0x0016a69a: sti  ; jmp dword [eax+edi+0x11E40004] ; 
0x0016adca: sti  ; jmp dword [eax+edx*4] ; 
0x0016ae32: sti  ; jmp dword [eax-0x6BFFFC32] ; 
0x0016a712: sti  ; jmp dword [eax] ; 
0x0016ace2: sti  ; jmp dword [ebp+eax*8-0x12ABFFFE] ; 
0x00183d3e: sti  ; jmp dword [ebp+eax+0x00] ; 
0x0016a93a: sti  ; jmp dword [ebp+edx*2+0x78A40004] ; 
0x0005db15: sti  ; jmp dword [ebp-0x7D] ; 
0x0016a8ea: sti  ; jmp dword [ebx+edx*2+0x04] ; 
0x0016a8e2: sti  ; jmp dword [ebx+edx*2] ; 
0x0016aad2: sti  ; jmp dword [ebx] ; 
0x0016a732: sti  ; jmp dword [ecx+eax*2+0x3E740004] ; 
0x0016abba: sti  ; jmp dword [ecx+eax*2-0x4B2BFFFF] ; 
0x0018482a: sti  ; jmp dword [ecx+eax] ; 
0x0016a67a: sti  ; jmp dword [edi+esi+0x0EE40004] ; 
0x0016acaa: sti  ; jmp dword [edx+0x02] ; 
0x0016ad8a: sti  ; jmp dword [edx+ebp*2] ; 
0x0016adaa: sti  ; jmp dword [edx+ecx*4-0x073BFFFD] ; 
0x00136ff6: sti  ; jmp dword [esi+0x0F] ; 
0x0016a962: sti  ; jmp dword [esi+edx*2+0x7E040004] ; 
0x0005c1c0: sti  ; jmp dword [esi-0x70] ; 
0x0016a8fa: sti  ; jmp dword [esp+edx*2+0x04] ; 
0x0016a61a: sti  ; jmp eax ; 
0x000a72e4: sti  ; jmp ebx ; 
0x0018132e: sti  ; jmp ecx ; 
0x0016a502: sti  ; jmp esp ; 
0x000f76f1: sti  ; ret  ; 
0x000ea2cc: stosb  ; call dword [eax+0x035834E8] ; 
0x00167189: stosb  ; jmp dword [edi+ebp*8] ; 
0x000022b3: stosb  ; ret  ; 
0x0018f115: stosd  ; call dword [esi] ; 
0x001543e8: stosd  ; ret  ; 
0x0003ebf7: str word [ecx] ; retn 0x5489 ; 
0x0003a784: str word [ecx] ; retn 0xAC74 ; 
0x00164d30: sub ah, 0xFFFFFFFC ; call dword [eax] ; 
0x00163cd9: sub ah, bh ; call dword [eax-0x3F0003D8] ; 
0x00163c98: sub ah, bh ; call dword [ebp-0x3A0003D8] ; 
0x00163b11: sub ah, bh ; call dword [ebx+0x28] ; 
0x00163b21: sub ah, bh ; call dword [ebx] ; 
0x00163bdd: sub ah, bh ; call esp ; 
0x00163ca5: sub ah, bh ; jmp dword [0x55FFFC29] ; 
0x00163cd5: sub ah, bh ; jmp dword [eax+0x28] ; 
0x00163bd9: sub ah, bh ; jmp dword [eax+ebp+0x28D4FFFC] ; 
0x00163ce4: sub ah, bh ; jmp dword [eax] ; 
0x00163c95: sub ah, bh ; jmp dword [ebp+0x28] ; 
0x00163b1d: sub ah, bh ; jmp ebx ; 
0x0010966d: sub al, 0x24 ; call dword [eax+0x10] ; 
0x00062f5c: sub al, 0x24 ; call dword [edx+0x0000009C] ; 
0x0011fb1a: sub al, 0x24 ; ret  ; 
0x000c96dc: sub al, 0x39 ; retn 0x1774 ; 
0x000644ae: sub al, 0x50 ; call dword [eax+0x04] ; 
0x00114cb9: sub al, 0x50 ; call dword [edx+0x04] ; 
0x0006b4df: sub al, 0x50 ; call dword [edx+0x24] ; 
0x00113297: sub al, 0x52 ; call dword [eax+0x0C] ; 
0x0005fb14: sub al, 0x52 ; call eax ; 
0x000f783e: sub al, 0x55 ; call dword [ebx+0x0000292C] ; 
0x000e70be: sub al, 0x65 ; call dword [0x00000010] ; 
0x00115253: sub al, 0x83 ; ret  ; 
0x0013c133: sub al, 0x83 ; retn 0x7E10 ; 
0x000cff4b: sub al, 0x83 ; retn 0x8301 ; 
0x0003743d: sub al, 0x89 ; ret  ; 
0x00043fe6: sub al, 0x89 ; retn 0xB60F ; 
0x0010ace5: sub al, 0x89 ; retn 0xCA29 ; 
0x0011879f: sub al, 0x89 ; retn 0xD889 ; 
0x0018f7c4: sub al, 0xC5 ; jmp dword [eax] ; 
0x00152594: sub al, 0xE4 ; jmp word [0x3B8AFD6B] ; 
0x000d4558: sub al, 0xE8 ; retn 0x0000 ; 
0x001665c9: sub al, 0xF0 ; jmp dword [eax-0x2BFFFEBC] ; 
0x00166e09: sub al, 0xF1 ; call dword [esi+edx*4+0x01] ; 
0x000f5c03: sub al, 0xF2 ; jmp dword [esi-0x70] ; 
0x0013d66c: sub al, 0xF5 ; call dword [eax+0x1024448B] ; 
0x0013d683: sub al, 0xF5 ; call dword [ebx-0x18] ; 
0x001a2031: sub al, 0xF8 ; call dword [ecx] ; 
0x001846b1: sub al, 0xFA ; call dword [edx+0x00000007] ; 
0x00065c57: sub al, 0xFB ; jmp dword [esi-0x70] ; 
0x00168cc9: sub al, bh ; call dword [eax+0x0400032D] ; 
0x00168cb9: sub al, bh ; jmp dword [eax+0x2D] ; 
0x00168ca9: sub al, bh ; jmp dword [eax] ; 
0x000e8f04: sub al, bh ; jmp dword [esi-0x70] ; 
0x000e9e07: sub al, ch ; ret  ; 
0x000660f8: sub al, ch ; retn 0xFB15 ; 
0x001665a1: sub al, dh ; call dword [eax] ; 
0x00164cf0: sub bh, 0xFFFFFFFC ; jmp eax ; 
0x00163b39: sub bh, ah ; call dword [ebx+0x2A] ; 
0x00163bbd: sub bh, ah ; call dword [edi-0x04] ; 
0x00163cfd: sub bh, ah ; call dword [edx+0x42FFFC55] ; 
0x000dd5e5: sub bh, byte [eax+0x00000140] ; call dword [0x00000010] ; 
0x001577e1: sub bh, ch ; call dword [ecx+0x08FFEF29] ; 
0x000922d7: sub bh, cl ; jmp dword [esi-0x70] ; 
0x00169711: sub bh, cl ; jmp esp ; 
0x0006802d: sub bl, ch ; ret  ; 
0x00157125: sub bl, dh ; call dword [eax+0x28] ; 
0x00157115: sub bl, dh ; call dword [eax] ; 
0x00157129: sub bl, dh ; jmp dword [eax+0x28] ; 
0x00157119: sub bl, dh ; jmp dword [eax] ; 
0x0016df48: sub byte [0x72E40000], 0xFFFFFFEB ; call dword [edi] ; 
0x000dcfcb: sub byte [eax+0x00000110], bh ; call dword [0x00000010] ; 
0x0010a075: sub byte [eax+0x57], dl ; call dword [ecx+0x18] ; 
0x00064bbc: sub byte [eax+0x57], dl ; call ebx ; 
0x00165a6c: sub byte [eax+eax-0x13530C00], bh ; jmp dword [eax-0x44] ; 
0x001a2118: sub byte [eax+edi*8], ch ; call dword [ecx] ; 
0x0003da46: sub byte [eax-0x0A], dl ; retn 0x7501 ; 
0x001019cf: sub byte [eax-0x69F0FE05], al ; retn 0xFE83 ; 
0x0001934d: sub byte [ebp+0x310E74ED], al ; jmp dword [ecx+0x00000000] ; 
0x0001d3bd: sub byte [ebp-0x04F61F79], cl ; call dword [eax+0x68] ; 
0x0001d403: sub byte [ebp-0x04F61F79], cl ; call dword [eax-0x73] ; 
0x0001fabc: sub byte [ebp-0x04F69F79], cl ; call dword [eax+0x68] ; 
0x0001fba1: sub byte [ebp-0x04F69F79], cl ; call dword [eax-0x73] ; 
0x000200f4: sub byte [ebp-0x04F6DF79], cl ; call dword [eax-0x73] ; 
0x00020187: sub byte [ebp-0x04F6DF7A], cl ; call dword [eax-0x73] ; 
0x00020164: sub byte [ebp-0x04F71F79], cl ; call dword [eax-0x73] ; 
0x00020141: sub byte [ebp-0x04F71F7A], cl ; call dword [eax-0x73] ; 
0x00020906: sub byte [ebp-0x04F75F7F], cl ; call dword [eax+0x68] ; 
0x000209eb: sub byte [ebp-0x04F75F7F], cl ; call dword [eax-0x73] ; 
0x00020936: sub byte [ebp-0x04F79F7F], cl ; call dword [eax-0x73] ; 
0x0001d3e0: sub byte [ebp-0x052FB379], cl ; call dword [eax-0x73] ; 
0x0001faec: sub byte [ebp-0x05302379], cl ; call dword [eax-0x73] ; 
0x000d79c2: sub byte [ebp-0x0D983F7D], cl ; call dword [eax-0x73] ; 
0x001013be: sub byte [ebp-0x7CF3EC8C], cl ; ret  ; 
0x00112e17: sub byte [ebx+0x50510850], cl ; call dword [edx+0x0C] ; 
0x0004fd5e: sub byte [ebx-0x00056F43], al ; call dword [eax] ; 
0x0007342b: sub byte [ebx-0x55], 0xFFFFFFFA ; call dword [ecx+0x6A] ; 
0x001a2200: sub byte [ebx], 0xFFFFFFF8 ; call dword [ecx] ; 
0x000f802f: sub byte [ecx-0x06], bh ; call dword [eax-0x18] ; 
0x0017d538: sub byte [ecx-0x11], dh ; call dword [ebp+0x01] ; 
0x0017c6d8: sub byte [ecx-0x11], dl ; call dword [eax] ; 
0x000e305c: sub byte [ecx-0x4B], 0xFFFFFFFA ; call dword [eax+0x53] ; 
0x00164704: sub byte [ecx-0x55EF0004], 0xFFFFFFFC ; jmp dword [eax+0x30FFFCAA] ; 
0x00078d07: sub byte [ecx-0x7607FE38], cl ; retn 0x4489 ; 
0x000fdcad: sub byte [ecx-0x76F3DBBC], cl ; retn 0xE889 ; 
0x00027aae: sub byte [ecx], al ; retn 0x408B ; 
0x0011e4db: sub byte [ecx], bh ; retn 0x820F ; 
0x00078498: sub byte [ecx], ch ; retn 0x6A52 ; 
0x001585bc: sub byte [ecx], cl ; jmp eax ; 
0x000a0357: sub byte [edi+0x5E], bl ; ret  ; 
0x001568d8: sub byte [edi-0x4F6F0016], 0xFFFFFFEA ; call dword [eax+0x50FFEAB0] ; 
0x00120de1: sub byte [edx+0x56], dl ; call dword [eax+0x48] ; 
0x0018f948: sub ch, al ; jmp esi ; 
0x00157719: sub ch, bh ; call dword [ecx-0x350010D6] ; 
0x00165079: sub ch, bl ; jmp dword [ecx+edx*4+0x02] ; 
0x00179630: sub cl, 0xFFFFFFEE ; call dword [eax+0x00000000] ; 
0x00022638: sub cl, bh ; call dword [eax-0x18] ; 
0x001696e9: sub cl, bh ; call dword [ebx+eax*4+0x03] ; 
0x0002278b: sub cl, bh ; call dword [ecx-0x01] ; 
0x00021e58: sub cl, bh ; call dword [edi+0x03] ; 
0x00022fdc: sub cl, bh ; call dword [esi-0x73] ; 
0x001665b9: sub dh, al ; call dword [eax] ; 
0x00199d29: sub dh, ch ; call dword [ebx+0x00000000] ; 
0x00199d85: sub dh, ch ; jmp eax ; 
0x00166e01: sub dh, cl ; call dword [esi+edx*4] ; 
0x001a0685: sub dh, dh ; jmp dword [ecx] ; 
0x000d58b9: sub dh, dh ; retn 0x7540 ; 
0x00169ca1: sub dl, bh ; jmp eax ; 
0x000f60b4: sub dl, dh ; jmp dword [esi-0x70] ; 
0x000a9208: sub dword [eax+0x5D], 0xCA01FFFA ; jmp edx ; 
0x0006669e: sub dword [eax-0x24], 0xFFFFFFFA ; call dword [eax-0x18] ; 
0x0001df0b: sub dword [eax-0x31], 0xFFFFFFFA ; call dword [eax-0x18] ; 
0x0005cb4c: sub dword [eax-0x65], 0xFFFFFFFA ; call dword [eax-0x18] ; 
0x000f60b3: sub dword [eax], ebp ; jmp dword [esi-0x70] ; 
0x000e6da2: sub dword [ebp-0x42], 0xFFFFFFFA ; call dword [edx+0x52] ; 
0x000f9854: sub dword [ebx+eax*8], 0xFFFFFFFA ; call dword [eax-0x18] ; 
0x000d5bbf: sub dword [ebx+ebp-0x0C], 0xFFFFFFFF ; ret  ; 
0x000eed6b: sub dword [ebx-0x00007771], ecx ; jmp dword [ebp-0x75] ; 
0x0005bf40: sub dword [ebx-0x0000D77D], ecx ; jmp dword [ebp-0x75] ; 
0x00157ca0: sub dword [ecx-0x11], ebp ; call dword [ecx-0x6E0010AD] ; 
0x0006e8f8: sub dword [ecx-0x6AF0CFA1], ecx ; retn 0xCE83 ; 
0x0007dd24: sub dword [ecx], edi ; ret  ; 
0x000e6365: sub dword [esi-0x47], 0xFFFFFFFA ; call dword [edi+0x57] ; 
0x0005d89b: sub dword [esp+ebx*8], 0xFFFFFFFA ; call dword [eax-0x73] ; 
0x0007d471: sub eax, 0x01 ; ret  ; 
0x000d765e: sub eax, 0x65000001 ; call dword [0x00000010] ; 
0x0011cfd4: sub eax, 0x8100002B ; ret  ; 
0x001086d4: sub eax, 0x81000174 ; ret  ; 
0x000d54d4: sub eax, 0x810004A6 ; ret  ; 
0x00143fd4: sub eax, 0x81FFFDBB ; ret  ; 
0x0012ccd4: sub eax, 0x81FFFF2E ; ret  ; 
0x0012c1d4: sub eax, 0x81FFFF39 ; ret  ; 
0x0012a6d4: sub eax, 0x81FFFF54 ; ret  ; 
0x001286d4: sub eax, 0x81FFFF74 ; ret  ; 
0x00047d28: sub eax, 0xFFF68AE9 ; jmp dword [esi-0x70] ; 
0x00045512: sub eax, 0xFFFD50E9 ; call dword [eax+0x0026B48D] ; 
0x000493c8: sub eax, 0xFFFD62E9 ; jmp dword [esi-0x70] ; 
0x000f7009: sub eax, 0xFFFFFFFF ; jmp dword [esi-0x70] ; 
0x000e476c: sub eax, dword [ebx+0x535508EC] ; call dword [esp+0x50] ; 
0x0006bfab: sub eax, dword [edx+0x08] ; ret  ; 
0x0006c89e: sub eax, dword [edx+0x0C] ; ret  ; 
0x000670a3: sub eax, dword [edx+0x10] ; ret  ; 
0x00066f93: sub eax, dword [edx+0x1C] ; ret  ; 
0x0002320a: sub eax, dword [edx] ; ret  ; 
0x00158bf8: sub eax, dword [esi-0x0F] ; jmp dword [edi+0x46] ; 
0x00075676: sub eax, dword [esp+0x04] ; ret  ; 
0x00135498: sub eax, ecx ; ret  ; 
0x00168ce0: sub eax, edi ; call esp ; 
0x00168cd1: sub eax, edi ; jmp dword [ebp+ebp+0x29340003] ; 
0x0002ef47: sub eax, edx ; ret  ; 
0x001577c9: sub ebp, edi ; call dword [edi+0x2B] ; 
0x00165069: sub ebx, ebp ; jmp dword [ecx+eax*4+0x2A020002] ; 
0x00065f0b: sub ebx, edi ; jmp dword [esi-0x70] ; 
0x00169701: sub ecx, edi ; call dword [eax-0x4BFFFC7D] ; 
0x00169709: sub ecx, edi ; jmp dword [ebx+eax*4+0x2A040003] ; 
0x00158105: sub edi, 0xEF8918FF ; jmp dword [ebx-0x06001087] ; 
0x000d563c: sub edi, dword [eax+0x00000132] ; call dword [0x00000010] ; 
0x001a218d: sub edi, eax ; call dword [ecx] ; 
0x0016a701: sub edi, ebx ; call esp ; 
0x00169719: sub edi, ecx ; jmp dword [esp+eax*4] ; 
0x00169cc9: sub edi, edx ; jmp dword [eax+edx*8] ; 
0x0005c6ab: sub edx, ecx ; call dword [0x00000010] ; 
0x00169ca9: sub edx, edi ; call dword [esi+ecx*8+0x03] ; 
0x00186a90: sub esi, ecx ; jmp dword [edi] ; 
0x001aaa79: sub esi, edi ; call dword [edi+0x00000000] ; 
0x001aaab5: sub esi, edi ; call dword [edx] ; 
0x00111d5b: sub esi, esi ; call dword [eax-0x48] ; 
0x0011a43c: sub esp, 0x08 ; call dword [ebx-0x00000CDC] ; 
0x00163ce9: sub esp, edi ; call dword [eax+0x29] ; 
0x00163ced: sub esp, edi ; call dword [eax-0x3F0003D7] ; 
0x00163ca9: sub esp, edi ; call dword [ebp+0x29] ; 
0x00163cad: sub esp, edi ; call dword [ebp-0x3A0003D7] ; 
0x00163b35: sub esp, edi ; call dword [ebx] ; 
0x00163bf1: sub esp, edi ; call esp ; 
0x00163bec: sub esp, edi ; jmp dword [ecx+ebp+0x29D4FFFC] ; 
0x00163be9: sub esp, edi ; jmp dword [ecx+ebp-0x04] ; 
0x00163b31: sub esp, edi ; jmp ebx ; 
0x000acb4c: test ah, bh ; call dword [eax+0x0824448B] ; 
0x001643a1: test ah, bh ; jmp eax ; 
0x001729a1: test ah, ch ; jmp esp ; 
0x0007cf8e: test al, 0x01 ; retn 0xC031 ; 
0x0019618e: test al, 0x0A ; ret  ; 
0x0018e6f8: test al, 0x78 ; jmp dword [edx+0x02] ; 
0x000cd8c2: test al, 0x89 ; ret  ; 
0x000f7e7f: test al, 0xC6 ; retn 0xFFFA ; 
0x00156319: test al, 0xEA ; jmp dword [eax+0x60FFEAA7] ; 
0x00156305: test al, 0xEA ; jmp dword [eax-0x58] ; 
0x00156309: test al, 0xEA ; jmp dword [eax] ; 
0x001659e9: test al, 0xEC ; call dword [eax-0x47] ; 
0x001660f9: test al, 0xEF ; jmp dword [eax+0x11] ; 
0x001953c1: test al, 0xF4 ; call ebx ; 
0x00195389: test al, 0xF4 ; jmp dword [eax] ; 
0x001a59d5: test al, 0xF6 ; jmp esp ; 
0x0006e606: test al, 0xFA ; call dword [eax-0x73] ; 
0x0006d3ac: test al, 0xFA ; call dword [eax-0x75] ; 
0x0005af84: test al, 0xFF ; call ecx ; 
0x001648a0: test al, 0xFFFFFFFC ; jmp dword [esi-0x3F] ; 
0x001690f9: test al, bh ; call dword [ecx+edx*2+0x03] ; 
0x000ab078: test al, ch ; retn 0xFE60 ; 
0x0018e74c: test byte [0x7AC00002], dh ; call dword [esi+eax+0x41000000] ; 
0x000f0b12: test byte [0x8300000E], dl ; retn 0x8318 ; 
0x00103b33: test byte [0x83FFFFFF], bh ; ret  ; 
0x0002ac0e: test byte [0x89000003], bh ; retn 0x91EB ; 
0x000250f4: test byte [eax+0x00000200], dl ; ret  ; 
0x00074b60: test byte [eax+eax-0x08BE0000], dl ; retn 0x0003 ; 
0x00110d84: test byte [eax-0x00056F3C], dl ; jmp eax ; 
0x001104a4: test byte [eax-0x00056F7C], dl ; jmp eax ; 
0x0010daa6: test byte [eax-0x000573A0], dl ; jmp eax ; 
0x000a47ef: test byte [eax-0x0005A96C], dl ; jmp eax ; 
0x0007796c: test byte [eax-0x0005B230], cl ; jmp eax ; 
0x00055fd0: test byte [eax-0x0005BE5C], dh ; jmp eax ; 
0x00055dd8: test byte [eax-0x0005BFAC], dh ; jmp eax ; 
0x0004fc96: test byte [eax-0x0005C308], bl ; jmp eax ; 
0x0004f960: test byte [eax-0x0005C458], bl ; jmp eax ; 
0x0004f7b3: test byte [eax-0x0005C5A8], bl ; jmp eax ; 
0x00163de8: test byte [eax-0x04], bl ; call dword [ecx+ebx*2-0x04] ; 
0x0016a938: test byte [eax-0x05], bh ; jmp dword [ebp+edx*2+0x78A40004] ; 
0x00166930: test byte [eax-0x10], bh ; jmp dword [eax] ; 
0x00166740: test byte [eax-0x10], bl ; call dword [ebx+edx*2+0x5A840001] ; 
0x000a4f83: test byte [eax-0x7C00000A], dh ; ret  ; 
0x000dd9c1: test byte [eax-0x7EFFFFFE], dh ; call dword [eax] ; 
0x00166558: test byte [eax], ah ; call dword [eax+0x3B] ; 
0x000e9686: test byte [ebp+0x01000000], bh ; retn 0x8689 ; 
0x00029cec: test byte [ebp-0x00061180], cl ; jmp eax ; 
0x0016afa0: test byte [ebp-0x03], dh ; call dword [esi+eax*8+0x01] ; 
0x00168f58: test byte [ebp-0x08], dl ; call eax ; 
0x0001d8d0: test byte [ebp-0x76FFFFFE], al ; retn 0xE281 ; 
0x00071081: test byte [ebp-0x76FFFFFF], ah ; ret  ; 
0x00116cc4: test byte [ebx+edi*8], al ; call dword [eax-0x18] ; 
0x000688d7: test byte [ebx-0x0000D77D], cl ; jmp dword [ebp-0x75] ; 
0x00169030: test byte [ebx-0x08], ah ; call dword [eax] ; 
0x00167b88: test byte [ebx-0x0B], dl ; call dword [eax+0x24000276] ; 
0x001651b0: test byte [ebx-0x15], cl ; jmp dword [ebx+ebp*2+0x4BA40000] ; 
0x0011a258: test byte [ebx-0x76000002], al ; retn 0x01BE ; 
0x0003cc4e: test byte [ebx-0x76FFFFFE], al ; retn 0x540A ; 
0x0011fd78: test byte [ebx-0x77000000], ah ; retn 0xE283 ; 
0x0003c0c3: test byte [ebx-0x7C000008], dl ; retn 0x8301 ; 
0x0003c2a3: test byte [ebx-0x7C00000A], dh ; retn 0x8301 ; 
0x00092758: test byte [ebx-0x7CFFFFFF], bh ; jmp dword [edi+ecx] ; 
0x00166658: test byte [ebx], dh ; call dword [eax+0x48] ; 
0x000a94db: test byte [ecx-0x00008B6B], cl ; call dword [edx+0x6A] ; 
0x000e8a5f: test byte [ecx-0x00058860], dl ; rep ret  ; 
0x0016a870: test byte [ecx-0x05], bl ; call eax ; 
0x00165ec0: test byte [ecx-0x12], bh ; call dword [edx+edi*8] ; 
0x00090d23: test byte [ecx-0x388AFB8E], 0xFFFFFF83 ; retn 0x8904 ; 
0x000d07b8: test byte [ecx-0x76FFFFFE], ch ; ret  ; 
0x00103f37: test byte [ecx-0x7CFFFFF9], dl ; retn 0x0F01 ; 
0x000576be: test byte [ecx-0x7D000000], ah ; retn 0x8904 ; 
0x000a952b: test byte [ecx], bh ; ret  ; 
0x000d4c27: test byte [edi+edi*8-0x01], bl ; jmp dword [ebp-0x75] ; 
0x001641a0: test byte [edi-0x04], dh ; call dword [eax+edi*2] ; 
0x00169068: test byte [edi-0x08], ah ; call dword [eax] ; 
0x00165670: test byte [edi-0x14], ah ; jmp dword [eax] ; 
0x000573ca: test byte [edi-0x7CFFFFFD], cl ; retn 0x8904 ; 
0x000ee87b: test byte [edi], 0xFFFFFF84 ; ret  ; 
0x000797b7: test byte [edi], 0xFFFFFF84 ; retn 0x0000 ; 
0x00058513: test byte [edi], 0xFFFFFF85 ; ret  ; 
0x000baef4: test byte [edi], 0xFFFFFF95 ; retn 0x8D90 ; 
0x0001a309: test byte [edx+0x6B000000], dh ; retn 0x8B3C ; 
0x00194e4c: test byte [edx+eax-0x0B5D1000], bl ; jmp dword [esi] ; 
0x00169d58: test byte [edx+edi*8], dh ; call esp ; 
0x00074b3d: test byte [edx-0x08FFFFFF], dl ; retn 0x0003 ; 
0x0013f489: test byte [edx-0x0A000000], ah ; retn 0x7501 ; 
0x001668d0: test byte [edx-0x10], dh ; jmp dword [esi+ebx*2+0x01] ; 
0x0019fd1d: test byte [edx], 0x0000000A ; ret  ; 
0x0019ff85: test byte [edx], cl ; ret  ; 
0x001038e5: test byte [esi-0x0A000000], dl ; retn 0x0F80 ; 
0x0001e30d: test byte [esi-0x7CFFFFFD], ch ; ret  ; 
0x000c9424: test byte [esi-0x7CFFFFFF], al ; retn 0x3B01 ; 
0x000cd09d: test byte [esi-0x7D000000], bl ; retn 0x8301 ; 
0x00165cd0: test ch, ch ; jmp dword [eax-0x5BFFFF1F] ; 
0x0019bd55: test ch, dh ; jmp dword [esi] ; 
0x00166f81: test cl, dh ; call dword [eax-0x5C] ; 
0x00166f71: test cl, dh ; call dword [eax] ; 
0x00166f61: test cl, dh ; call eax ; 
0x00166f69: test cl, dh ; jmp esp ; 
0x0016a001: test dl, bh ; jmp eax ; 
0x00081e67: test dword [0x5BFFFFFE], edx ; ret  ; 
0x00081d3f: test dword [0x5BFFFFFF], edi ; ret  ; 
0x000312f9: test dword [0x83000002], esp ; retn 0x3901 ; 
0x00054b86: test dword [eax+0x01FFFFFA], edx ; ret  ; 
0x00051f81: test dword [eax+0x01FFFFFA], esp ; ret  ; 
0x000b18f0: test dword [eax+0x09FFFFEB], ecx ; retn 0x850F ; 
0x000a02d7: test dword [eax+eax+0x5E5F0000], esp ; ret  ; 
0x00104718: test dword [eax-0x1588FE07], 0xFFF6ADE9 ; call dword [eax+0x0026748D] ; 
0x0003fd7e: test dword [eax-0x76000005], esi ; retn 0xF089 ; 
0x00140e5b: test dword [eax-0x77FFFFFF], esi ; retn 0xE280 ; 
0x0007368b: test dword [eax-0x7D000000], ebp ; jmp esi ; 
0x00141233: test dword [eax-0x7D000000], ebp ; retn 0x0F04 ; 
0x0007b544: test dword [eax-0x7D000000], ebx ; ret  ; 
0x0013e28e: test dword [ebp+0x5B000000], edi ; ret  ; 
0x0013cf7c: test dword [ebp+0x5B000001], esp ; ret  ; 
0x0013cd9c: test dword [ebp+0x5B000003], eax ; ret  ; 
0x0013c86c: test dword [ebp+0x5B000008], esi ; ret  ; 
0x00140f86: test dword [ebp-0x78000000], eax ; retn 0xE280 ; 
0x00046a1d: test dword [ebp-0x7C000011], edi ; ret  ; 
0x0014120e: test dword [ebp-0x7D000000], ebx ; retn 0x0F00 ; 
0x00141296: test dword [ebp-0x7D000000], esp ; retn 0x0F0C ; 
0x00057c7b: test dword [ebx+edi*8-0x01], edx ; jmp dword [ebp-0x75] ; 
0x000433cc: test dword [ebx+edi*8-0x01], esi ; call dword [eax+0x52] ; 
0x000579d4: test dword [ebx+edi*8-0x01], esp ; call dword [eax-0x01] ; 
0x000561aa: test dword [ebx+edi*8-0x01], esp ; call dword [esi+0x50] ; 
0x00040e23: test dword [ebx+edi*8-0x7AF00001], ecx ; retn 0x0008 ; 
0x0003fe5c: test dword [ebx+edi*8-0x7CAC0001], ebp ; ret  ; 
0x000cce38: test dword [ebx-0x09FFFFFF], esi ; retn 0x0F01 ; 
0x00141a4e: test dword [ebx-0x0A000000], ecx ; retn 0x0F02 ; 
0x00157d08: test dword [ebx-0x11], ebx ; jmp dword [eax+ebp*2] ; 
0x000dadf7: test dword [ebx-0x17000000], ebp ; ret  ; 
0x00030318: test dword [ebx-0x7D000000], ecx ; retn 0x3901 ; 
0x0007c12c: test dword [ebx-0x7D000000], edx ; retn 0x3901 ; 
0x00030d58: test dword [ebx-0x7D000000], esp ; retn 0x3901 ; 
0x0016ae7d: test dword [ebx], 0xFBFDF400 ; jmp eax ; 
0x0013caa0: test dword [ecx+0x5B000006], eax ; ret  ; 
0x00081edb: test dword [ecx+0x5BFFFFFD], esp ; ret  ; 
0x00081de3: test dword [ecx+0x5BFFFFFE], ebx ; ret  ; 
0x00141b6a: test dword [ecx-0x0A000000], esi ; retn 0x0F04 ; 
0x0003c499: test dword [ecx-0x76000002], edx ; retn 0x9EE9 ; 
0x0006ee9e: test dword [ecx-0x76FFFFFF], ebp ; retn 0x448B ; 
0x0005326b: test dword [ecx-0x7D000000], edi ; ret  ; 
0x0018a989: test dword [ecx], 0xF2354400 ; call dword [ebx+0x02] ; 
0x0016afcd: test dword [ecx], 0xFD8D3400 ; call dword [eax+0x740001F7] ; 
0x00081dc5: test dword [edi+0x5BFFFFFE], esi ; ret  ; 
0x0011c326: test dword [edi+ebp*8-0x01], esp ; call dword [edi-0x18] ; 
0x0010228f: test dword [edi+edi*8-0x01], eax ; jmp dword [eax] ; 
0x000d49b9: test dword [edi+edi*8-0x01], eax ; jmp dword [ebp-0x75] ; 
0x001195b8: test dword [edi+edi*8-0x01], ebx ; call dword [eax] ; 
0x000d96fb: test dword [edi+edi*8-0x01], ebx ; jmp dword [ebp-0x5F] ; 
0x001080ff: test dword [edi+edi*8-0x01], ebx ; jmp dword [esi-0x7F] ; 
0x000ea1a4: test dword [edi+edi*8-0x01], ecx ; call dword [eax+0x6A] ; 
0x000cfd48: test dword [edi+edi*8-0x01], ecx ; call dword [eax-0x73] ; 
0x000d827b: test dword [edi+edi*8-0x01], ecx ; call dword [edi+0x50] ; 
0x000fd15c: test dword [edi+edi*8-0x01], edi ; jmp dword [ebp-0x5F] ; 
0x000e268e: test dword [edi+edi*8-0x01], esi ; call dword [eax+0x0026748D] ; 
0x000d849b: test dword [edi+edi*8-0x01], esp ; jmp dword [ebp-0x5F] ; 
0x00141b94: test dword [edi-0x0A000000], esp ; retn 0x0F20 ; 
0x00078c44: test dword [edi-0x77000000], eax ; ret  ; 
0x0014126c: test dword [edi-0x7D000000], ebx ; retn 0x0F08 ; 
0x000c641f: test dword [edx+ebp*2-0x16FE0006], esp ; jmp ecx ; 
0x00050340: test dword [edx+edi*8-0x01], ebp ; jmp dword [0x00000080] ; 
0x0005346a: test dword [edx+edi*8-0x01], ebp ; jmp dword [0x00002000] ; 
0x00050970: test dword [edx+edi*8-0x01], ebp ; jmp dword [0x00002100] ; 
0x00054e8c: test dword [edx+edi*8-0x01], ebp ; jmp dword [edi+edi*2] ; 
0x0005497d: test dword [edx+edi*8-0x01], edx ; call dword [ecx] ; 
0x0004fd46: test dword [edx+edi*8-0x01], esi ; call dword [eax+0x0026748D] ; 
0x00141a7d: test dword [edx-0x09FFFFFD], esi ; retn 0x0F40 ; 
0x00030bd9: test dword [edx-0x7CFFFFFE], ebx ; retn 0x3901 ; 
0x00093211: test dword [edx-0x7D000000], edi ; ret  ; 
0x0007c7ac: test dword [edx-0x7D000000], edx ; retn 0x3901 ; 
0x0019a8f5: test dword [edx], 0xF540A800 ; call dword [ebp+0x00000000] ; 
0x0019a935: test dword [edx], 0xF5410800 ; jmp dword [edx+0x00] ; 
0x00168545: test dword [edx], 0xF7947400 ; call dword [eax+edi*8] ; 
0x00023694: test dword [esi+edi*8-0x01], eax ; call dword [edi-0x01] ; 
0x000b31d9: test dword [esi+edi*8-0x01], ebp ; call dword [edi-0x18] ; 
0x000b3142: test dword [esi+edi*8-0x01], ebx ; call dword [eax] ; 
0x00028939: test dword [esi+edi*8-0x01], ecx ; jmp dword [ebp-0x5F] ; 
0x000fc476: test dword [esi+edi*8-0x01], edi ; jmp dword [ebp-0x75] ; 
0x000b33b0: test dword [esi+edi*8-0x01], esi ; call dword [edi-0x18] ; 
0x000b2db0: test dword [esi+edi*8-0x01], esp ; call dword [edx-0x18] ; 
0x00141a74: test dword [esi-0x09FFFFFD], esi ; retn 0x0F20 ; 
0x00141b9d: test dword [esi-0x0A000000], ebp ; retn 0x0F40 ; 
0x001424fd: test dword [esi-0x0A000000], edi ; retn 0x0F0F ; 
0x000c7986: test dword [esi-0x7CFFFFFF], eax ; retn 0x3901 ; 
0x000e93ac: test dword [esp+edi*8-0x01], edi ; call ecx ; 
0x000e8fe3: test dword [esp+edi*8-0x01], edx ; jmp dword [edi+0x6D] ; 
0x000e93be: test dword [esp+edi*8-0x01], esi ; jmp dword [eax] ; 
0x0006ce4e: test eax, 0x01575590 ; retn 0x5356 ; 
0x0019c0f1: test eax, 0x41140E0A ; ret  ; 
0x0018a111: test eax, 0x43140E0A ; ret  ; 
0x000e7a1e: test eax, 0x65000000 ; call dword [0x00000010] ; 
0x001540bc: test eax, 0x7D4C8C5D ; retn 0x0D8F ; 
0x0006c858: test eax, 0x81000B32 ; ret  ; 
0x0012fd58: test eax, 0x81FFFEFD ; ret  ; 
0x0012dc58: test eax, 0x81FFFF1E ; ret  ; 
0x0006ee9f: test eax, 0x89000001 ; retn 0x448B ; 
0x000d07b9: test eax, 0x89000002 ; ret  ; 
0x000b21b3: test eax, 0x890002C8 ; retn 0xC483 ; 
0x000538c6: test eax, ebx ; retn 0xFFFF ; 
0x0019be15: test ebp, esi ; jmp edx ; 
0x0006034e: test ebx, edi ; jmp dword [esi-0x70] ; 
0x00166f91: test ecx, esi ; call dword [eax+0x740001A4] ; 
0x00166f99: test ecx, esi ; call esp ; 
0x00158071: test edi, ebp ; call dword [eax] ; 
0x001580f1: test edi, ebp ; call dword [ebx-0x77] ; 
0x001580ad: test edi, ebp ; call esi ; 
0x00158075: test edi, ebp ; jmp esi ; 
0x001684c1: test edi, esi ; jmp dword [eax] ; 
0x001684d9: test edi, esi ; jmp dword [ebx+esi*8-0x79BBFFFE] ; 
0x000d44aa: test edx, 0x0874FF80 ; rep ret  ; 
0x0016a009: test edx, edi ; jmp dword [eax-0x0A] ; 
0x000acb6c: test esp, edi ; call dword [eax-0x17ACA9A9] ; 
0x000540ae: test esp, edx ; ret  ; 
0x00193cfd: test esp, esi ; jmp dword [edi+0x03] ; 
0x001674a9: wait  ; call dword [eax] ; 
0x00154ee5: wait  ; retn 0x0198 ; 
0x001587ad: xchg al, dh ; call esi ; 
0x001684e1: xchg bh, dh ; jmp eax ; 
0x0006c708: xchg bl, bh ; call dword [eax+0x0026748D] ; 
0x0016a9e1: xchg bl, bh ; call esp ; 
0x0006020a: xchg bl, bh ; jmp dword [esi-0x70] ; 
0x00100a79: xchg byte [eax+0x39000002], cl ; ret  ; 
0x0003296e: xchg byte [eax-0x77], bh ; retn 0x840F ; 
0x0009d3c7: xchg byte [ebp+ebp*8-0x06], dh ; call dword [eax-0x18] ; 
0x000cfef6: xchg byte [ebp+esi*8-0x06], al ; call dword [eax-0x73] ; 
0x0010117b: xchg byte [ebp-0x05027F79], cl ; call dword [eax-0x73] ; 
0x00065c56: xchg byte [ebx+edi*8], ch ; jmp dword [esi-0x70] ; 
0x00048afe: xchg byte [ebx-0x0000D77D], cl ; jmp dword [ebp-0x75] ; 
0x000c8c52: xchg byte [ecx], bh ; retn 0x0775 ; 
0x0013d765: xchg byte [edi-0x7CFFFFFE], al ; retn 0x8310 ; 
0x0013c2de: xchg byte [edi-0x7CFFFFFF], cl ; retn 0x8310 ; 
0x00060e56: xchg byte [edx-0x05], bh ; jmp dword [esi-0x70] ; 
0x0018aef7: xchg byte [edx], cl ; ret  ; 
0x000c71b5: xchg byte [esp+ebp*2-0x0DFE0006], dl ; jmp edx ; 
0x0016afb9: xchg ch, bh ; jmp esp ; 
0x00028392: xchg cl, dh ; ret  ; 
0x000bde9c: xchg dword [0x83000003], edi ; retn 0xB880 ; 
0x0001d3e2: xchg dword [eax+edx*8-0x06], ecx ; call dword [eax-0x73] ; 
0x000b81e7: xchg dword [eax+esi*8-0x06], ebx ; call dword [eax-0x73] ; 
0x001239b7: xchg dword [eax+esi*8-0x06], ecx ; call dword [eax-0x73] ; 
0x00035767: xchg dword [eax-0x77], edi ; retn 0x840F ; 
0x0011d4b1: xchg dword [ebp+eax-0x05], esi ; call dword [eax+0x31] ; 
0x00101190: xchg dword [ebp+edi*8-0x06], edx ; call dword [eax-0x18] ; 
0x000d3caa: xchg dword [ebp+esi*8-0x06], edi ; call dword [eax-0x73] ; 
0x0007e245: xchg dword [ebx+ebp*8-0x06], esi ; call dword [eax-0x73] ; 
0x000ba05c: xchg dword [ecx+edi], eax ; ret  ; 
0x0001d4b9: xchg dword [edi+ecx*8-0x06], eax ; call dword [eax-0x18] ; 
0x00100b47: xchg dword [edi+edi*8-0x01], ebx ; jmp dword [esi-0x7D] ; 
0x00104b3d: xchg dword [edi+edi*8-0x06], eax ; call dword [eax-0x73] ; 
0x000bab31: xchg dword [edi-0x06FE0006], esi ; jmp ecx ; 
0x000bb7c6: xchg dword [edx-0x7D000000], ebx ; retn 0x0F01 ; 
0x001a57d5: xchg dword [edx], ecx ; ret  ; 
0x00040bde: xchg dword [esi+edx*8-0x06], ebx ; call dword [eax+0x68] ; 
0x0003fee2: xchg dword [esi+edx*8-0x06], ebx ; call dword [eax-0x73] ; 
0x00158be4: xchg dword [esi-0x0F], eax ; call dword [ebx+0x48] ; 
0x00151f2f: xchg dword [esp+eax+0x6FA9CE9D], esp ; ret  ; 
0x0000204b: xchg eax, ebp ; ret  ; 
0x00099f1a: xchg eax, ebp ; retn 0x08EB ; 
0x000945b0: xchg eax, ebp ; retn 0x0AEB ; 
0x00097342: xchg eax, ebp ; retn 0x10EB ; 
0x00104ecd: xchg eax, ebp ; retn 0x233C ; 
0x00104ead: xchg eax, ebp ; retn 0x2C3C ; 
0x00064e20: xchg eax, ebp ; retn 0x490F ; 
0x000ef54c: xchg eax, ebp ; retn 0x8B52 ; 
0x000baef6: xchg eax, ebp ; retn 0x8D90 ; 
0x000549b9: xchg eax, ebp ; retn 0x9522 ; 
0x000274d3: xchg eax, ebp ; retn 0x953D ; 
0x0002c64a: xchg eax, ebp ; retn 0xB60F ; 
0x000c88d3: xchg eax, ebp ; retn 0xC209 ; 
0x0004b4d8: xchg eax, ebp ; retn 0xC221 ; 
0x0006f93c: xchg eax, ebp ; retn 0xC983 ; 
0x000e1d49: xchg eax, ebp ; retn 0xC984 ; 
0x000eed02: xchg eax, ebp ; retn 0xC985 ; 
0x0009ed4d: xchg eax, ebp ; retn 0xCA20 ; 
0x0006e8fd: xchg eax, ebp ; retn 0xCE83 ; 
0x000a1f9c: xchg eax, ebp ; retn 0xD020 ; 
0x000a268c: xchg eax, ebp ; retn 0xD021 ; 
0x0009edb8: xchg eax, ebp ; retn 0xD121 ; 
0x000a1211: xchg eax, ebp ; retn 0xD138 ; 
0x0007dd7f: xchg eax, ebp ; retn 0xD184 ; 
0x001068a2: xchg eax, ebp ; retn 0xD589 ; 
0x0006e809: xchg eax, ebp ; retn 0xD689 ; 
0x0005ded7: xchg eax, ebp ; retn 0xDAF7 ; 
0x00091b22: xchg eax, ebp ; retn 0xE883 ; 
0x00033311: xchg eax, ebp ; retn 0xE8C1 ; 
0x0011507b: xchg eax, ebp ; retn 0xEC83 ; 
0x0009eec4: xchg eax, ebp ; retn 0xF1E9 ; 
0x00121d9d: xchg eax, ebp ; retn 0xF685 ; 
0x0009c94e: xchg eax, ebp ; retn 0xF839 ; 
0x00091e46: xchg eax, ebp ; retn 0xF983 ; 
0x000a1f8e: xchg eax, ebp ; retn 0xFB80 ; 
0x000c4ba8: xchg eax, ebp ; retn 0xFF85 ; 
0x000fb4cc: xchg eax, ebx ; rep ret  ; 
0x000f7b49: xchg eax, ebx ; ret  ; 
0x000e623a: xchg eax, ebx ; retn 0xFAB8 ; 
0x0018c451: xchg eax, ecx ; call dword [edi+0x08] ; 
0x000876c4: xchg eax, ecx ; jmp ecx ; 
0x000fa67b: xchg eax, ecx ; ret  ; 
0x001531df: xchg eax, edi ; call dword [ebx+0x7C] ; 
0x000d5d6b: xchg eax, edi ; retn 0x000D ; 
0x00107355: xchg eax, edi ; retn 0xFFFF ; 
0x00033e15: xchg eax, edx ; ret  ; 
0x0013ddc0: xchg eax, edx ; retn 0x940F ; 
0x000b1914: xchg eax, edx ; retn 0xD029 ; 
0x00151d93: xchg eax, edx ; retn 0xF869 ; 
0x000a2a16: xchg eax, edx ; retn 0xFA09 ; 
0x0011b6ed: xchg eax, esi ; call dword [ebp+0x57] ; 
0x00167471: xchg eax, esi ; call eax ; 
0x000df058: xchg eax, esi ; jmp dword [esi-0x70] ; 
0x00069d3a: xchg eax, esi ; ret  ; 
0x000751ec: xchg eax, esi ; retn 0xB60F ; 
0x00075190: xchg eax, esi ; retn 0xC031 ; 
0x000ab2f0: xchg eax, esi ; retn 0xC483 ; 
0x00075216: xchg eax, esi ; retn 0xC931 ; 
0x00154628: xchg eax, esi ; retn 0xCD11 ; 
0x000ab2cd: xchg eax, esi ; retn 0xF883 ; 
0x001019d4: xchg eax, esi ; retn 0xFE83 ; 
0x00166810: xchg eax, esp ; call dword [bx+si+0x5A] ; 
0x00018ea7: xchg eax, esp ; ret  ; 
0x00165b54: xchg eax, esp ; retn 0x0000 ; 
0x00103ec8: xchg eax, esp ; retn 0x093C ; 
0x000f3063: xchg eax, esp ; retn 0x1BE9 ; 
0x000f0ee0: xchg eax, esp ; retn 0x2D3C ; 
0x000eda00: xchg eax, esp ; retn 0x3A3C ; 
0x000a68a4: xchg eax, esp ; retn 0x3C8D ; 
0x000bde3b: xchg eax, esp ; retn 0x4422 ; 
0x000324de: xchg eax, esp ; retn 0x442B ; 
0x000f7e62: xchg eax, esp ; retn 0x4489 ; 
0x000ccb2a: xchg eax, esp ; retn 0x4889 ; 
0x0003c486: xchg eax, esp ; retn 0x540A ; 
0x000a13f2: xchg eax, esp ; retn 0x5438 ; 
0x000904a7: xchg eax, esp ; retn 0x5484 ; 
0x000e0d3c: xchg eax, esp ; retn 0x5C3C ; 
0x00069d26: xchg eax, esp ; retn 0x5F3C ; 
0x000182d5: xchg eax, esp ; retn 0x7C83 ; 
0x0004ed36: xchg eax, esp ; retn 0x7F3C ; 
0x00111ca3: xchg eax, esp ; retn 0x8365 ; 
0x000cc5d6: xchg eax, esp ; retn 0x9389 ; 
0x00054c16: xchg eax, esp ; retn 0x950A ; 
0x0002605f: xchg eax, esp ; retn 0xB60F ; 
0x00090397: xchg eax, esp ; retn 0xB883 ; 
0x000efb6b: xchg eax, esp ; retn 0xC085 ; 
0x000ee941: xchg eax, esp ; retn 0xC1EB ; 
0x000327dd: xchg eax, esp ; retn 0xC220 ; 
0x000bc66f: xchg eax, esp ; retn 0xC789 ; 
0x000cac9f: xchg eax, esp ; retn 0xC931 ; 
0x000a135c: xchg eax, esp ; retn 0xCA38 ; 
0x000c62aa: xchg eax, esp ; retn 0xD009 ; 
0x000a1245: xchg eax, esp ; retn 0xD021 ; 
0x000548d9: xchg eax, esp ; retn 0xD089 ; 
0x0004f657: xchg eax, esp ; retn 0xD108 ; 
0x000c8bc1: xchg eax, esp ; retn 0xD109 ; 
0x00018674: xchg eax, esp ; retn 0xD284 ; 
0x000fb97c: xchg eax, esp ; retn 0xD285 ; 
0x000da182: xchg eax, esp ; retn 0xD689 ; 
0x00060486: xchg eax, esp ; retn 0xDAF7 ; 
0x000da68e: xchg eax, esp ; retn 0xDB84 ; 
0x000dafcd: xchg eax, esp ; retn 0xEC83 ; 
0x000c6fd2: xchg eax, esp ; retn 0xED85 ; 
0x000751f9: xchg eax, esp ; retn 0xF201 ; 
0x0002cb3d: xchg eax, esp ; retn 0xF685 ; 
0x0009468e: xchg eax, esp ; retn 0xF883 ; 
0x00069d2d: xchg eax, esp ; retn 0xFA09 ; 
0x000e0d98: xchg eax, esp ; retn 0xFB80 ; 
0x00040e70: xchg eax, esp ; retn 0xFF52 ; 
0x000a0e3a: xchg eax, esp ; retn 0xFFC1 ; 
0x0016ef6c: xchg eax, esp ; retn 0xFFEB ; 
0x00169a30: xchg eax, esp ; retn 0xFFF9 ; 
0x00187f99: xchg ecx, esi ; jmp dword [eax] ; 
0x0017e199: xchg edi, ebp ; jmp ebp ; 
0x00175afd: xchg esi, ebp ; call dword [eax+eax+0x00] ; 
0x001643a9: xchg esp, edi ; jmp dword [eax+0x00FFFC88] ; 
0x001858c1: xlatb  ; jmp dword [0x00000006] ; 
0x0007e7d2: xlatb  ; ret  ; 
0x00140912: xlatb  ; retn 0x498D ; 
0x001542a2: xlatb  ; retn 0x4E27 ; 
0x00003358: xlatb  ; retn 0x5A51 ; 
0x0008f808: xlatb  ; retn 0xC085 ; 
0x000d5660: xor ah, dh ; call dword [eax+0x0026748D] ; 
0x000d567b: xor ah, dh ; jmp dword [esi-0x70] ; 
0x00107e35: xor al, 0x24 ; call dword [eax+0x10] ; 
0x00021045: xor al, 0x24 ; call ebx ; 
0x00019c2e: xor al, 0x24 ; call edi ; 
0x0011fb12: xor al, 0x24 ; ret  ; 
0x000b43dd: xor al, 0x30 ; call dword [edi+0x20] ; 
0x0018b63c: xor al, 0x4C ; jmp dword [eax] ; 
0x00071a56: xor al, 0x55 ; call eax ; 
0x000debb1: xor al, 0x65 ; call dword [0x00000010] ; 
0x00166830: xor al, 0x6B ; call dword [eax+0x5B] ; 
0x001668b0: xor al, 0x72 ; call dword [esi+ebx*2] ; 
0x000c7eed: xor al, 0x89 ; retn 0x448B ; 
0x00167618: xor al, 0xCD ; call dword [eax] ; 
0x00152f6a: xor al, 0xD8 ; ret  ; 
0x000dd4d8: xor al, 0xE8 ; retn 0xFF6A ; 
0x00167678: xor al, 0xEB ; jmp dword [esi+edi] ; 
0x000f549c: xor al, 0xF2 ; call dword [eax+0x57E58955] ; 
0x00167139: xor al, 0xF2 ; jmp dword [eax+ebx*8+0x3A140001] ; 
0x000d525c: xor al, 0xF4 ; call dword [eax+0x7C835356] ; 
0x000d52b4: xor al, 0xF4 ; jmp dword [esi-0x70] ; 
0x00121d3c: xor al, 0xF5 ; call dword [eax-0x00F3137D] ; 
0x000de0ef: xor al, 0xF6 ; retn 0x7420 ; 
0x001a1735: xor al, 0xF8 ; jmp dword [edx] ; 
0x00169d49: xor al, 0xFA ; call dword [esp+edx*8+0x34340003] ; 
0x00169d59: xor al, 0xFA ; call esp ; 
0x00164cfc: xor al, 0xFFFFFFFC ; call dword [eax+0x50FFFCE3] ; 
0x000ad111: xor al, byte [ebx+0x5E5B04C4] ; ret  ; 
0x0007523c: xor al, byte [ebx-0x41F0F33C] ; retn 0x5E5B ; 
0x0015602c: xor al, byte [edi-0x16] ; call dword [eax] ; 
0x0007e208: xor al, ch ; retn 0xFF8E ; 
0x000820bc: xor bh, 0xFFFFFFFF ; jmp dword [esi+0x0F] ; 
0x00168dd9: xor bh, al ; jmp esp ; 
0x0006565b: xor bh, bl ; jmp dword [esi-0x70] ; 
0x0011f92c: xor bl, byte [ebx+0x5E] ; ret  ; 
0x0016cb81: xor bl, ch ; jmp dword [edi+0x00000005] ; 
0x00192410: xor byte [eax-0x0C], cl ; jmp dword [ebx+0x00000000] ; 
0x00156988: xor byte [eax-0x4F7F0016], 0xFFFFFFEA ; call dword [0x80FFEAAF] ; 
0x001569b0: xor byte [eax-0x523F0016], 0xFFFFFFEA ; call eax ; 
0x0016cb80: xor byte [eax], 0xFFFFFFEB ; jmp dword [edi+0x00000005] ; 
0x00156ffc: xor byte [eax], ah ; call dword [eax+0x20] ; 
0x0001e29b: xor byte [ebp+0x0A], 0xFFFFFF89 ; ret  ; 
0x0001e84c: xor byte [ebp+0x0B], 0xFFFFFF83 ; ret  ; 
0x000716ee: xor byte [ebp+0x56], dl ; call eax ; 
0x000e492a: xor byte [ebp-0x04EE1B7D], cl ; call dword [eax-0x18] ; 
0x000fc861: xor byte [ebp-0x053AC47D], cl ; call dword [eax-0x73] ; 
0x000e4f62: xor byte [ebp-0x053AFE7D], cl ; call dword [eax+0x6A] ; 
0x000e50ca: xor byte [ebp-0x05409B7D], cl ; call dword [eax+0x6A] ; 
0x000fc655: xor byte [ebp-0x054CD47D], cl ; call dword [eax+0x6A] ; 
0x000aef73: xor byte [ebp-0x0551367D], cl ; call dword [eax+0x56] ; 
0x000d667a: xor byte [ebp-0x0552027B], cl ; call dword [edi+0x50] ; 
0x00193a70: xor byte [ebp-0x0C], bh ; jmp esp ; 
0x000cdfd1: xor byte [ebp-0x4E], 0xFFFFFFFA ; call dword [eax-0x01] ; 
0x0008baa1: xor byte [ebx+0x5E082444], cl ; ret  ; 
0x0007dc52: xor byte [ebx+0x5E5B01C0], al ; ret  ; 
0x00062ac1: xor byte [ebx+0x5E5B04C4], al ; ret  ; 
0x000777b9: xor byte [ebx+0x5E], bl ; ret  ; 
0x000debad: xor byte [ebx+0x65342454], cl ; call dword [0x00000010] ; 
0x00164ed0: xor byte [ebx-0x03], bh ; jmp dword [eax+0x20FFFD7B] ; 
0x00091ef3: xor byte [ebx-0x17ACF314], al ; ret  ; 
0x000e3650: xor byte [ebx-0x4B], 0xFFFFFFFA ; call dword [eax+0x53] ; 
0x0005ca3d: xor byte [ebx-0x65], 0xFFFFFFFA ; call dword [eax+0x56] ; 
0x00156e98: xor byte [ebx], cl ; call dword [eax+0x0B] ; 
0x00001a2c: xor byte [ecx+0x3A6D4813], ah ; ret  ; 
0x001835f8: xor byte [ecx+eax-0x0F4E5C00], al ; jmp dword [ebx] ; 
0x0018a130: xor byte [ecx-0x07], bh ; jmp edx ; 
0x00187980: xor byte [ecx-0x0F], bh ; jmp edi ; 
0x00184af8: xor byte [ecx-0x3FDBFFFF], bl ; jmp dword [edi] ; 
0x000de404: xor byte [ecx], 0xFFFFFFC0 ; ret  ; 
0x00157014: xor byte [ecx], ah ; jmp dword [eax+0x21] ; 
0x0008fcf5: xor byte [ecx], al ; retn 0x267C ; 
0x0006dc5c: xor byte [ecx], bh ; ret  ; 
0x000c96fa: xor byte [ecx], bh ; retn 0x1474 ; 
0x001166b5: xor byte [ecx], ch ; retn 0x53E8 ; 
0x0007d635: xor byte [ecx], ch ; retn 0x6A52 ; 
0x00116d45: xor byte [ecx], ch ; retn 0x83E8 ; 
0x0003105c: xor byte [ecx], dh ; retn 0x448B ; 
0x00156f60: xor byte [ecx], dl ; call dword [eax+0x11] ; 
0x0007e504: xor byte [edi+0x5E], bl ; ret  ; 
0x00163dac: xor byte [edi-0x04], dl ; jmp dword [eax] ; 
0x0010c7bd: xor byte [edi-0x77], dl ; ret  ; 
0x00156efc: xor byte [edi], cl ; jmp eax ; 
0x0012fd19: xor byte [edx+0x5B], 0xFFFFFFFC ; jmp dword [esi-0x70] ; 
0x00192210: xor byte [edx-0x0C], al ; jmp dword [eax] ; 
0x00126d19: xor byte [edx-0x15], 0xFFFFFFFC ; jmp dword [esi-0x70] ; 
0x00067b99: xor byte [edx-0x15], bl ; call dword [eax-0x01] ; 
0x001569f8: xor byte [edx-0x4D1F0016], 0xFFFFFFEA ; jmp eax ; 
0x0006565a: xor byte [edx], 0xFFFFFFFB ; jmp dword [esi-0x70] ; 
0x0015702c: xor byte [edx], ah ; jmp dword [eax+0x22] ; 
0x00156f80: xor byte [edx], dl ; call dword [eax+0x12] ; 
0x001570b0: xor byte [esi], ah ; call dword [eax+0x26] ; 
0x00174091: xor ch, ch ; call dword [edi] ; 
0x00174065: xor ch, ch ; jmp dword [0x00000000] ; 
0x0013d16c: xor ch, dh ; call dword [eax+0x0C24448B] ; 
0x0013d183: xor ch, dh ; call dword [ebx-0x18] ; 
0x0019a0e9: xor ch, dh ; call dword [ecx+0x00000002] ; 
0x00164dc4: xor cl, 0xFFFFFFFC ; call edx ; 
0x00091d13: xor cl, bh ; jmp dword [esi-0x70] ; 
0x000e498d: xor cl, byte [ebp-0x04EDDF6D] ; call dword [edx+0x50] ; 
0x000e49d2: xor cl, byte [ebp-0x053AFE6D] ; call dword [edx+0x50] ; 
0x00060bce: xor cl, byte [ecx+0x5F5E5BF0] ; ret  ; 
0x00032c06: xor cl, ch ; ret  ; 
0x000865ac: xor dh, 0xFFFFFFFF ; jmp dword [esi+0x0F] ; 
0x00166649: xor dh, al ; call esp ; 
0x0007778c: xor dh, byte [ecx+ebp-0x7D] ; retn 0xEB04 ; 
0x000e14fa: xor dh, byte [edx-0x0D] ; jmp dword [esi-0x70] ; 
0x00121d1c: xor dh, ch ; call dword [eax+0x0824448B] ; 
0x001588c5: xor dh, cl ; call dword [edi+0x71FFF12F] ; 
0x001588c1: xor dh, cl ; call ecx ; 
0x00108d4f: xor dh, dh ; call dword [edx-0x73] ; 
0x000c2086: xor dh, dh ; retn 0x7404 ; 
0x000f56dc: xor dh, dl ; call dword [eax+0x57E58955] ; 
0x0018a7a5: xor dh, dl ; jmp edi ; 
0x0003f19f: xor dl, bh ; call dword [ebx-0x73] ; 
0x000f5888: xor dl, dh ; jmp dword [esi-0x70] ; 
0x0002be86: xor dword [eax+0x000000E0], edi ; call dword [0x00000010] ; 
0x000f742c: xor dword [eax-0x05], 0xFFFFFFFA ; call dword [eax-0x73] ; 
0x000d00c0: xor dword [eax-0x0B], 0xFFFFFFFA ; call dword [eax-0x73] ; 
0x000443cc: xor dword [eax-0x2A], 0xFFFFFFFA ; call dword [eax+0x68] ; 
0x00044187: xor dword [eax-0x2A], 0xFFFFFFFA ; call dword [eax-0x73] ; 
0x00114485: xor dword [eax-0x35], 0xFFFFFFFA ; call dword [eax-0x73] ; 
0x001062b1: xor dword [eax-0x38], 0xFFFFFFFA ; call dword [eax-0x18] ; 
0x000df9b7: xor dword [ebp+ecx*4-0x0D], 0xFFFFFFFF ; ret  ; 
0x000b1734: xor dword [ebx-0x51], 0xFFFFFFFA ; call dword [eax+0x6A] ; 
0x000ec019: xor dword [ecx-0x41], 0xFFFFFFFA ; call dword [eax-0x18] ; 
0x000ec17a: xor dword [ecx-0x41], 0xFFFFFFFA ; call dword [eax-0x73] ; 
0x0004a9ea: xor dword [ecx], ebp ; retn 0x858B ; 
0x0004b8a2: xor dword [ecx], ebp ; retn 0x9589 ; 
0x000ba680: xor dword [edi], 0xCF01FFFA ; jmp edi ; 
0x000e4acc: xor dword [edx+edx], 0xFFFFFFFB ; call dword [eax-0x01] ; 
0x000fa106: xor dword [edx-0x3D], 0xFFFFFFFA ; call dword [eax-0x18] ; 
0x0010e69a: xor dword [esi-0x36], 0xFFFFFFFA ; call dword [eax-0x73] ; 
0x000e617d: xor dword [esi-0x48], 0xFFFFFFFA ; call dword [eax-0x01] ; 
0x001664ad: xor eax, 0x12A40001 ; call dword [esi+esi+0x01] ; 
0x0018e6f5: xor eax, 0x78A80002 ; jmp dword [edx+0x02] ; 
0x0018e74d: xor eax, 0x7AC00002 ; call dword [esi+eax+0x41000000] ; 
0x0011e8cc: xor eax, 0x81000012 ; ret  ; 
0x0010fccc: xor eax, 0x810000FE ; ret  ; 
0x00167605: xor eax, 0xCB540002 ; call esp ; 
0x00018657: xor eax, dword [0x00000018] ; call eax ; 
0x0011d4b7: xor eax, eax ; call dword [esi+0x000001E8] ; 
0x0002c79c: xor eax, eax ; ret  ; 
0x00166639: xor eax, esi ; call dword [edi+eax*2+0x01] ; 
0x00166631: xor eax, esi ; jmp dword [eax] ; 
0x0011bd5e: xor ebp, ebp ; call dword [eax+0x14] ; 
0x0007cef1: xor ebp, ebx ; ret  ; 
0x0013dcff: xor ebx, dword [esi+ecx*2-0x06] ; jmp dword [esi+0x0F] ; 
0x00106b68: xor ecx, ecx ; call edi ; 
0x00169731: xor ecx, edi ; jmp eax ; 
0x000e659f: xor edi, 0xFFFFFFFF ; call dword [eax+0x50] ; 
0x0006dfa4: xor edi, dword [ecx] ; ret  ; 
0x00168de9: xor edi, eax ; call dword [ebx+esi+0x03] ; 
0x0002e962: xor edx, dword [0x00000018] ; call edx ; 
0x000f6209: xor esi, 0xFFFFFFFF ; jmp dword [esi-0x70] ; 
0x000b034e: xor esi, 0xFFFFFFFF ; ret  ; 
0x0010ba7a: xor esi, dword [ecx] ; ret  ; 
0x00166659: xor esi, eax ; call dword [eax+0x48] ; 
0x000f55ca: xor esi, edx ; jmp dword [esi-0x70] ; 
0x000c9eba: xor esi, esi ; jmp dword [esi-0x70] ; 
0x001a0905: xor esi, esi ; jmp edx ; 
0x00141b5c: xor esi, esi ; retn 0x0F01 ; 
0x000d5350: xor esi, esp ; call dword [eax+0x0026748D] ; 
0x000d53fb: xor esi, esp ; jmp dword [esi-0x70] ; 
